22
main_unrolled.ino.elf:     file format elf32-avr


Disassembly of section .text:

00000000 <__vectors>:
       0:	0c 94 72 00 	jmp	0xe4	; 0xe4 <__ctors_end>
       4:	0c 94 93 00 	jmp	0x126	; 0x126 <__bad_interrupt>
       8:	0c 94 93 00 	jmp	0x126	; 0x126 <__bad_interrupt>
       c:	0c 94 93 00 	jmp	0x126	; 0x126 <__bad_interrupt>
      10:	0c 94 93 00 	jmp	0x126	; 0x126 <__bad_interrupt>
      14:	0c 94 93 00 	jmp	0x126	; 0x126 <__bad_interrupt>
      18:	0c 94 93 00 	jmp	0x126	; 0x126 <__bad_interrupt>
      1c:	0c 94 93 00 	jmp	0x126	; 0x126 <__bad_interrupt>
      20:	0c 94 93 00 	jmp	0x126	; 0x126 <__bad_interrupt>
      24:	0c 94 93 00 	jmp	0x126	; 0x126 <__bad_interrupt>
      28:	0c 94 93 00 	jmp	0x126	; 0x126 <__bad_interrupt>
      2c:	0c 94 93 00 	jmp	0x126	; 0x126 <__bad_interrupt>
      30:	0c 94 93 00 	jmp	0x126	; 0x126 <__bad_interrupt>
      34:	0c 94 93 00 	jmp	0x126	; 0x126 <__bad_interrupt>
      38:	0c 94 93 00 	jmp	0x126	; 0x126 <__bad_interrupt>
      3c:	0c 94 93 00 	jmp	0x126	; 0x126 <__bad_interrupt>
      40:	0c 94 93 00 	jmp	0x126	; 0x126 <__bad_interrupt>
      44:	0c 94 93 00 	jmp	0x126	; 0x126 <__bad_interrupt>
      48:	0c 94 93 00 	jmp	0x126	; 0x126 <__bad_interrupt>
      4c:	0c 94 93 00 	jmp	0x126	; 0x126 <__bad_interrupt>
      50:	0c 94 93 00 	jmp	0x126	; 0x126 <__bad_interrupt>
      54:	0c 94 93 00 	jmp	0x126	; 0x126 <__bad_interrupt>
      58:	0c 94 93 00 	jmp	0x126	; 0x126 <__bad_interrupt>
      5c:	0c 94 57 01 	jmp	0x2ae	; 0x2ae <__vector_23>
      60:	0c 94 93 00 	jmp	0x126	; 0x126 <__bad_interrupt>
      64:	0c 94 93 00 	jmp	0x126	; 0x126 <__bad_interrupt>
      68:	0c 94 93 00 	jmp	0x126	; 0x126 <__bad_interrupt>
      6c:	0c 94 93 00 	jmp	0x126	; 0x126 <__bad_interrupt>
      70:	0c 94 93 00 	jmp	0x126	; 0x126 <__bad_interrupt>
      74:	0c 94 93 00 	jmp	0x126	; 0x126 <__bad_interrupt>
      78:	0c 94 93 00 	jmp	0x126	; 0x126 <__bad_interrupt>
      7c:	0c 94 93 00 	jmp	0x126	; 0x126 <__bad_interrupt>
      80:	0c 94 93 00 	jmp	0x126	; 0x126 <__bad_interrupt>
      84:	0c 94 93 00 	jmp	0x126	; 0x126 <__bad_interrupt>
      88:	0c 94 93 00 	jmp	0x126	; 0x126 <__bad_interrupt>
      8c:	0c 94 93 00 	jmp	0x126	; 0x126 <__bad_interrupt>
      90:	0c 94 93 00 	jmp	0x126	; 0x126 <__bad_interrupt>
      94:	0c 94 93 00 	jmp	0x126	; 0x126 <__bad_interrupt>
      98:	0c 94 93 00 	jmp	0x126	; 0x126 <__bad_interrupt>
      9c:	0c 94 93 00 	jmp	0x126	; 0x126 <__bad_interrupt>
      a0:	0c 94 93 00 	jmp	0x126	; 0x126 <__bad_interrupt>
      a4:	0c 94 93 00 	jmp	0x126	; 0x126 <__bad_interrupt>
      a8:	0c 94 93 00 	jmp	0x126	; 0x126 <__bad_interrupt>
      ac:	0c 94 93 00 	jmp	0x126	; 0x126 <__bad_interrupt>
      b0:	0c 94 93 00 	jmp	0x126	; 0x126 <__bad_interrupt>
      b4:	0c 94 93 00 	jmp	0x126	; 0x126 <__bad_interrupt>
      b8:	0c 94 93 00 	jmp	0x126	; 0x126 <__bad_interrupt>
      bc:	0c 94 93 00 	jmp	0x126	; 0x126 <__bad_interrupt>
      c0:	0c 94 93 00 	jmp	0x126	; 0x126 <__bad_interrupt>
      c4:	0c 94 93 00 	jmp	0x126	; 0x126 <__bad_interrupt>
      c8:	0c 94 93 00 	jmp	0x126	; 0x126 <__bad_interrupt>
      cc:	0c 94 93 00 	jmp	0x126	; 0x126 <__bad_interrupt>
      d0:	0c 94 93 00 	jmp	0x126	; 0x126 <__bad_interrupt>
      d4:	0c 94 93 00 	jmp	0x126	; 0x126 <__bad_interrupt>
      d8:	0c 94 93 00 	jmp	0x126	; 0x126 <__bad_interrupt>
      dc:	0c 94 93 00 	jmp	0x126	; 0x126 <__bad_interrupt>
      e0:	0c 94 93 00 	jmp	0x126	; 0x126 <__bad_interrupt>

000000e4 <__ctors_end>:
      e4:	11 24       	eor	r1, r1
      e6:	1f be       	out	0x3f, r1	; 63
      e8:	cf ef       	ldi	r28, 0xFF	; 255
      ea:	d1 e2       	ldi	r29, 0x21	; 33
      ec:	de bf       	out	0x3e, r29	; 62
      ee:	cd bf       	out	0x3d, r28	; 61
      f0:	00 e0       	ldi	r16, 0x00	; 0
      f2:	0c bf       	out	0x3c, r16	; 60

000000f4 <__do_copy_data>:
      f4:	12 e0       	ldi	r17, 0x02	; 2
      f6:	a0 e0       	ldi	r26, 0x00	; 0
      f8:	b2 e0       	ldi	r27, 0x02	; 2
      fa:	e6 e9       	ldi	r30, 0x96	; 150
      fc:	f5 e6       	ldi	r31, 0x65	; 101
      fe:	00 e0       	ldi	r16, 0x00	; 0
     100:	0b bf       	out	0x3b, r16	; 59
     102:	02 c0       	rjmp	.+4      	; 0x108 <__do_copy_data+0x14>
     104:	07 90       	elpm	r0, Z+
     106:	0d 92       	st	X+, r0
     108:	a0 32       	cpi	r26, 0x20	; 32
     10a:	b1 07       	cpc	r27, r17
     10c:	d9 f7       	brne	.-10     	; 0x104 <__do_copy_data+0x10>

0000010e <__do_clear_bss>:
     10e:	22 e0       	ldi	r18, 0x02	; 2
     110:	a0 e2       	ldi	r26, 0x20	; 32
     112:	b2 e0       	ldi	r27, 0x02	; 2
     114:	01 c0       	rjmp	.+2      	; 0x118 <.do_clear_bss_start>

00000116 <.do_clear_bss_loop>:
     116:	1d 92       	st	X+, r1

00000118 <.do_clear_bss_start>:
     118:	a9 32       	cpi	r26, 0x29	; 41
     11a:	b2 07       	cpc	r27, r18
     11c:	e1 f7       	brne	.-8      	; 0x116 <.do_clear_bss_loop>
     11e:	0e 94 a1 01 	call	0x342	; 0x342 <main>
     122:	0c 94 c9 32 	jmp	0x6592	; 0x6592 <_exit>

00000126 <__bad_interrupt>:
     126:	0c 94 00 00 	jmp	0	; 0x0 <__vectors>

0000012a <_ZL10fp_add_satii>:
    if (v < FP_MIN) return FP_MIN;
    return (int16_t)v;
}

static inline int16_t fp_add_sat(int16_t a, int16_t b) {
    int32_t s = (int32_t)a + (int32_t)b;
     12a:	09 2e       	mov	r0, r25
     12c:	00 0c       	add	r0, r0
     12e:	aa 0b       	sbc	r26, r26
     130:	bb 0b       	sbc	r27, r27
     132:	ab 01       	movw	r20, r22
     134:	77 0f       	add	r23, r23
     136:	66 0b       	sbc	r22, r22
     138:	77 0b       	sbc	r23, r23
     13a:	84 0f       	add	r24, r20
     13c:	95 1f       	adc	r25, r21
     13e:	a6 1f       	adc	r26, r22
     140:	b7 1f       	adc	r27, r23
    if (s > FP_MAX) return FP_MAX;
     142:	81 15       	cp	r24, r1
     144:	20 e8       	ldi	r18, 0x80	; 128
     146:	92 07       	cpc	r25, r18
     148:	a1 05       	cpc	r26, r1
     14a:	b1 05       	cpc	r27, r1
     14c:	44 f4       	brge	.+16     	; 0x15e <_ZL10fp_add_satii+0x34>
    if (s < FP_MIN) return FP_MIN;
     14e:	81 15       	cp	r24, r1
     150:	20 e8       	ldi	r18, 0x80	; 128
     152:	92 07       	cpc	r25, r18
     154:	2f ef       	ldi	r18, 0xFF	; 255
     156:	a2 07       	cpc	r26, r18
     158:	b2 07       	cpc	r27, r18
     15a:	24 f0       	brlt	.+8      	; 0x164 <_ZL10fp_add_satii+0x3a>
     15c:	08 95       	ret
    return (int16_t)v;
}

static inline int16_t fp_add_sat(int16_t a, int16_t b) {
    int32_t s = (int32_t)a + (int32_t)b;
    if (s > FP_MAX) return FP_MAX;
     15e:	8f ef       	ldi	r24, 0xFF	; 255
     160:	9f e7       	ldi	r25, 0x7F	; 127
     162:	08 95       	ret
    if (s < FP_MIN) return FP_MIN;
     164:	80 e0       	ldi	r24, 0x00	; 0
     166:	90 e8       	ldi	r25, 0x80	; 128
    return (int16_t)s;
}
     168:	08 95       	ret

0000016a <_ZL10fp_sigmoidi>:

static inline int16_t fp_sigmoid(int16_t x) {
     16a:	bc 01       	movw	r22, r24
    if (x <= (int16_t)(-320)) return (int16_t)0;
     16c:	61 3c       	cpi	r22, 0xC1	; 193
     16e:	8e ef       	ldi	r24, 0xFE	; 254
     170:	78 07       	cpc	r23, r24
     172:	0c f4       	brge	.+2      	; 0x176 <_ZL10fp_sigmoidi+0xc>
     174:	59 c0       	rjmp	.+178    	; 0x228 <_ZL10fp_sigmoidi+0xbe>
    if (x <= (int16_t)(-152)) return fp_add_sat((int16_t)10,  fp_mul((int16_t)2,  x));
     176:	69 36       	cpi	r22, 0x69	; 105
     178:	8f ef       	ldi	r24, 0xFF	; 255
     17a:	78 07       	cpc	r23, r24
     17c:	7c f4       	brge	.+30     	; 0x19c <_ZL10fp_sigmoidi+0x32>
// ---------------------------------------------------------------------------
// Fixed-point primitives  (kept as inline functions so avr-gcc inlines them
// and the assembly is one flat sequence of instructions)
// ---------------------------------------------------------------------------
static inline int16_t fp_mul(int16_t a, int16_t b) {
    return (int16_t)(((int32_t)a * (int32_t)b) >> FRAC_BITS);
     17e:	07 2e       	mov	r0, r23
     180:	00 0c       	add	r0, r0
     182:	88 0b       	sbc	r24, r24
     184:	99 0b       	sbc	r25, r25
     186:	e5 e0       	ldi	r30, 0x05	; 5
     188:	95 95       	asr	r25
     18a:	87 95       	ror	r24
     18c:	77 95       	ror	r23
     18e:	67 95       	ror	r22
     190:	ea 95       	dec	r30
     192:	d1 f7       	brne	.-12     	; 0x188 <_ZL10fp_sigmoidi+0x1e>
    return (int16_t)s;
}

static inline int16_t fp_sigmoid(int16_t x) {
    if (x <= (int16_t)(-320)) return (int16_t)0;
    if (x <= (int16_t)(-152)) return fp_add_sat((int16_t)10,  fp_mul((int16_t)2,  x));
     194:	8a e0       	ldi	r24, 0x0A	; 10
     196:	90 e0       	ldi	r25, 0x00	; 0
    if (x <= (int16_t)( -64)) return fp_add_sat((int16_t)24,  fp_mul((int16_t)8,  x));
    if (x <= (int16_t)(  64)) return fp_add_sat((int16_t)32,  fp_mul((int16_t)16, x));
    if (x <= (int16_t)( 152)) return fp_add_sat((int16_t)40,  fp_mul((int16_t)8,  x));
    if (x <= (int16_t)( 320)) return fp_add_sat((int16_t)54,  fp_mul((int16_t)2,  x));
     198:	0c 94 95 00 	jmp	0x12a	; 0x12a <_ZL10fp_add_satii>
}

static inline int16_t fp_sigmoid(int16_t x) {
    if (x <= (int16_t)(-320)) return (int16_t)0;
    if (x <= (int16_t)(-152)) return fp_add_sat((int16_t)10,  fp_mul((int16_t)2,  x));
    if (x <= (int16_t)( -64)) return fp_add_sat((int16_t)24,  fp_mul((int16_t)8,  x));
     19c:	61 3c       	cpi	r22, 0xC1	; 193
     19e:	8f ef       	ldi	r24, 0xFF	; 255
     1a0:	78 07       	cpc	r23, r24
     1a2:	74 f4       	brge	.+28     	; 0x1c0 <_ZL10fp_sigmoidi+0x56>
// ---------------------------------------------------------------------------
// Fixed-point primitives  (kept as inline functions so avr-gcc inlines them
// and the assembly is one flat sequence of instructions)
// ---------------------------------------------------------------------------
static inline int16_t fp_mul(int16_t a, int16_t b) {
    return (int16_t)(((int32_t)a * (int32_t)b) >> FRAC_BITS);
     1a4:	07 2e       	mov	r0, r23
     1a6:	00 0c       	add	r0, r0
     1a8:	88 0b       	sbc	r24, r24
     1aa:	99 0b       	sbc	r25, r25
     1ac:	53 e0       	ldi	r21, 0x03	; 3
     1ae:	95 95       	asr	r25
     1b0:	87 95       	ror	r24
     1b2:	77 95       	ror	r23
     1b4:	67 95       	ror	r22
     1b6:	5a 95       	dec	r21
     1b8:	d1 f7       	brne	.-12     	; 0x1ae <_ZL10fp_sigmoidi+0x44>
}

static inline int16_t fp_sigmoid(int16_t x) {
    if (x <= (int16_t)(-320)) return (int16_t)0;
    if (x <= (int16_t)(-152)) return fp_add_sat((int16_t)10,  fp_mul((int16_t)2,  x));
    if (x <= (int16_t)( -64)) return fp_add_sat((int16_t)24,  fp_mul((int16_t)8,  x));
     1ba:	88 e1       	ldi	r24, 0x18	; 24
     1bc:	90 e0       	ldi	r25, 0x00	; 0
     1be:	ec cf       	rjmp	.-40     	; 0x198 <_ZL10fp_sigmoidi+0x2e>
    if (x <= (int16_t)(  64)) return fp_add_sat((int16_t)32,  fp_mul((int16_t)16, x));
     1c0:	61 34       	cpi	r22, 0x41	; 65
     1c2:	71 05       	cpc	r23, r1
     1c4:	74 f4       	brge	.+28     	; 0x1e2 <_ZL10fp_sigmoidi+0x78>
// ---------------------------------------------------------------------------
// Fixed-point primitives  (kept as inline functions so avr-gcc inlines them
// and the assembly is one flat sequence of instructions)
// ---------------------------------------------------------------------------
static inline int16_t fp_mul(int16_t a, int16_t b) {
    return (int16_t)(((int32_t)a * (int32_t)b) >> FRAC_BITS);
     1c6:	07 2e       	mov	r0, r23
     1c8:	00 0c       	add	r0, r0
     1ca:	88 0b       	sbc	r24, r24
     1cc:	99 0b       	sbc	r25, r25
     1ce:	42 e0       	ldi	r20, 0x02	; 2
     1d0:	95 95       	asr	r25
     1d2:	87 95       	ror	r24
     1d4:	77 95       	ror	r23
     1d6:	67 95       	ror	r22
     1d8:	4a 95       	dec	r20
     1da:	d1 f7       	brne	.-12     	; 0x1d0 <_ZL10fp_sigmoidi+0x66>

static inline int16_t fp_sigmoid(int16_t x) {
    if (x <= (int16_t)(-320)) return (int16_t)0;
    if (x <= (int16_t)(-152)) return fp_add_sat((int16_t)10,  fp_mul((int16_t)2,  x));
    if (x <= (int16_t)( -64)) return fp_add_sat((int16_t)24,  fp_mul((int16_t)8,  x));
    if (x <= (int16_t)(  64)) return fp_add_sat((int16_t)32,  fp_mul((int16_t)16, x));
     1dc:	80 e2       	ldi	r24, 0x20	; 32
     1de:	90 e0       	ldi	r25, 0x00	; 0
     1e0:	db cf       	rjmp	.-74     	; 0x198 <_ZL10fp_sigmoidi+0x2e>
    if (x <= (int16_t)( 152)) return fp_add_sat((int16_t)40,  fp_mul((int16_t)8,  x));
     1e2:	69 39       	cpi	r22, 0x99	; 153
     1e4:	71 05       	cpc	r23, r1
     1e6:	74 f4       	brge	.+28     	; 0x204 <_ZL10fp_sigmoidi+0x9a>
// ---------------------------------------------------------------------------
// Fixed-point primitives  (kept as inline functions so avr-gcc inlines them
// and the assembly is one flat sequence of instructions)
// ---------------------------------------------------------------------------
static inline int16_t fp_mul(int16_t a, int16_t b) {
    return (int16_t)(((int32_t)a * (int32_t)b) >> FRAC_BITS);
     1e8:	07 2e       	mov	r0, r23
     1ea:	00 0c       	add	r0, r0
     1ec:	88 0b       	sbc	r24, r24
     1ee:	99 0b       	sbc	r25, r25
     1f0:	33 e0       	ldi	r19, 0x03	; 3
     1f2:	95 95       	asr	r25
     1f4:	87 95       	ror	r24
     1f6:	77 95       	ror	r23
     1f8:	67 95       	ror	r22
     1fa:	3a 95       	dec	r19
     1fc:	d1 f7       	brne	.-12     	; 0x1f2 <_ZL10fp_sigmoidi+0x88>
static inline int16_t fp_sigmoid(int16_t x) {
    if (x <= (int16_t)(-320)) return (int16_t)0;
    if (x <= (int16_t)(-152)) return fp_add_sat((int16_t)10,  fp_mul((int16_t)2,  x));
    if (x <= (int16_t)( -64)) return fp_add_sat((int16_t)24,  fp_mul((int16_t)8,  x));
    if (x <= (int16_t)(  64)) return fp_add_sat((int16_t)32,  fp_mul((int16_t)16, x));
    if (x <= (int16_t)( 152)) return fp_add_sat((int16_t)40,  fp_mul((int16_t)8,  x));
     1fe:	88 e2       	ldi	r24, 0x28	; 40
     200:	90 e0       	ldi	r25, 0x00	; 0
     202:	ca cf       	rjmp	.-108    	; 0x198 <_ZL10fp_sigmoidi+0x2e>
    if (x <= (int16_t)( 320)) return fp_add_sat((int16_t)54,  fp_mul((int16_t)2,  x));
     204:	61 34       	cpi	r22, 0x41	; 65
     206:	81 e0       	ldi	r24, 0x01	; 1
     208:	78 07       	cpc	r23, r24
     20a:	8c f4       	brge	.+34     	; 0x22e <_ZL10fp_sigmoidi+0xc4>
// ---------------------------------------------------------------------------
// Fixed-point primitives  (kept as inline functions so avr-gcc inlines them
// and the assembly is one flat sequence of instructions)
// ---------------------------------------------------------------------------
static inline int16_t fp_mul(int16_t a, int16_t b) {
    return (int16_t)(((int32_t)a * (int32_t)b) >> FRAC_BITS);
     20c:	07 2e       	mov	r0, r23
     20e:	00 0c       	add	r0, r0
     210:	88 0b       	sbc	r24, r24
     212:	99 0b       	sbc	r25, r25
     214:	25 e0       	ldi	r18, 0x05	; 5
     216:	95 95       	asr	r25
     218:	87 95       	ror	r24
     21a:	77 95       	ror	r23
     21c:	67 95       	ror	r22
     21e:	2a 95       	dec	r18
     220:	d1 f7       	brne	.-12     	; 0x216 <_ZL10fp_sigmoidi+0xac>
    if (x <= (int16_t)(-320)) return (int16_t)0;
    if (x <= (int16_t)(-152)) return fp_add_sat((int16_t)10,  fp_mul((int16_t)2,  x));
    if (x <= (int16_t)( -64)) return fp_add_sat((int16_t)24,  fp_mul((int16_t)8,  x));
    if (x <= (int16_t)(  64)) return fp_add_sat((int16_t)32,  fp_mul((int16_t)16, x));
    if (x <= (int16_t)( 152)) return fp_add_sat((int16_t)40,  fp_mul((int16_t)8,  x));
    if (x <= (int16_t)( 320)) return fp_add_sat((int16_t)54,  fp_mul((int16_t)2,  x));
     222:	86 e3       	ldi	r24, 0x36	; 54
     224:	90 e0       	ldi	r25, 0x00	; 0
     226:	b8 cf       	rjmp	.-144    	; 0x198 <_ZL10fp_sigmoidi+0x2e>
    if (s < FP_MIN) return FP_MIN;
    return (int16_t)s;
}

static inline int16_t fp_sigmoid(int16_t x) {
    if (x <= (int16_t)(-320)) return (int16_t)0;
     228:	90 e0       	ldi	r25, 0x00	; 0
     22a:	80 e0       	ldi	r24, 0x00	; 0
     22c:	08 95       	ret
    if (x <= (int16_t)(-152)) return fp_add_sat((int16_t)10,  fp_mul((int16_t)2,  x));
    if (x <= (int16_t)( -64)) return fp_add_sat((int16_t)24,  fp_mul((int16_t)8,  x));
    if (x <= (int16_t)(  64)) return fp_add_sat((int16_t)32,  fp_mul((int16_t)16, x));
    if (x <= (int16_t)( 152)) return fp_add_sat((int16_t)40,  fp_mul((int16_t)8,  x));
    if (x <= (int16_t)( 320)) return fp_add_sat((int16_t)54,  fp_mul((int16_t)2,  x));
    return (int16_t)64;
     22e:	80 e4       	ldi	r24, 0x40	; 64
     230:	90 e0       	ldi	r25, 0x00	; 0
}
     232:	08 95       	ret

00000234 <_ZL7fp_tanhi>:

static inline int16_t fp_tanh(int16_t x) {
    int32_t two_x_32 = (int32_t)x << 1;
     234:	09 2e       	mov	r0, r25
     236:	00 0c       	add	r0, r0
     238:	aa 0b       	sbc	r26, r26
     23a:	bb 0b       	sbc	r27, r27
     23c:	88 0f       	add	r24, r24
     23e:	99 1f       	adc	r25, r25
     240:	aa 1f       	adc	r26, r26
     242:	bb 1f       	adc	r27, r27
    int16_t two_x = (two_x_32 > FP_MAX) ? FP_MAX :
     244:	81 15       	cp	r24, r1
     246:	20 e8       	ldi	r18, 0x80	; 128
     248:	92 07       	cpc	r25, r18
     24a:	a1 05       	cpc	r26, r1
     24c:	b1 05       	cpc	r27, r1
     24e:	1c f5       	brge	.+70     	; 0x296 <_ZL7fp_tanhi+0x62>
                    (two_x_32 < FP_MIN) ? FP_MIN :
     250:	81 15       	cp	r24, r1
     252:	20 e8       	ldi	r18, 0x80	; 128
     254:	92 07       	cpc	r25, r18
     256:	2f ef       	ldi	r18, 0xFF	; 255
     258:	a2 07       	cpc	r26, r18
     25a:	b2 07       	cpc	r27, r18
     25c:	fc f0       	brlt	.+62     	; 0x29c <_ZL7fp_tanhi+0x68>
                    (int16_t)two_x_32;
    int16_t sig = fp_sigmoid(two_x);
     25e:	0e 94 b5 00 	call	0x16a	; 0x16a <_ZL10fp_sigmoidi>
    int32_t result = ((int32_t)sig << 1) - FP_ONE;
     262:	09 2e       	mov	r0, r25
     264:	00 0c       	add	r0, r0
     266:	aa 0b       	sbc	r26, r26
     268:	bb 0b       	sbc	r27, r27
     26a:	88 0f       	add	r24, r24
     26c:	99 1f       	adc	r25, r25
     26e:	aa 1f       	adc	r26, r26
     270:	bb 1f       	adc	r27, r27
     272:	80 54       	subi	r24, 0x40	; 64
     274:	91 09       	sbc	r25, r1
     276:	a1 09       	sbc	r26, r1
     278:	b1 09       	sbc	r27, r1
static inline int16_t fp_mul(int16_t a, int16_t b) {
    return (int16_t)(((int32_t)a * (int32_t)b) >> FRAC_BITS);
}

static inline int16_t fp_sat32(int32_t v) {
    if (v > FP_MAX) return FP_MAX;
     27a:	81 15       	cp	r24, r1
     27c:	20 e8       	ldi	r18, 0x80	; 128
     27e:	92 07       	cpc	r25, r18
     280:	a1 05       	cpc	r26, r1
     282:	b1 05       	cpc	r27, r1
     284:	74 f4       	brge	.+28     	; 0x2a2 <_ZL7fp_tanhi+0x6e>
    if (v < FP_MIN) return FP_MIN;
     286:	81 15       	cp	r24, r1
     288:	20 e8       	ldi	r18, 0x80	; 128
     28a:	92 07       	cpc	r25, r18
     28c:	2f ef       	ldi	r18, 0xFF	; 255
     28e:	a2 07       	cpc	r26, r18
     290:	b2 07       	cpc	r27, r18
     292:	54 f0       	brlt	.+20     	; 0x2a8 <_ZL7fp_tanhi+0x74>
     294:	08 95       	ret
    return (int16_t)64;
}

static inline int16_t fp_tanh(int16_t x) {
    int32_t two_x_32 = (int32_t)x << 1;
    int16_t two_x = (two_x_32 > FP_MAX) ? FP_MAX :
     296:	8f ef       	ldi	r24, 0xFF	; 255
     298:	9f e7       	ldi	r25, 0x7F	; 127
     29a:	e1 cf       	rjmp	.-62     	; 0x25e <_ZL7fp_tanhi+0x2a>
                    (two_x_32 < FP_MIN) ? FP_MIN :
     29c:	80 e0       	ldi	r24, 0x00	; 0
     29e:	90 e8       	ldi	r25, 0x80	; 128
     2a0:	de cf       	rjmp	.-68     	; 0x25e <_ZL7fp_tanhi+0x2a>
static inline int16_t fp_mul(int16_t a, int16_t b) {
    return (int16_t)(((int32_t)a * (int32_t)b) >> FRAC_BITS);
}

static inline int16_t fp_sat32(int32_t v) {
    if (v > FP_MAX) return FP_MAX;
     2a2:	8f ef       	ldi	r24, 0xFF	; 255
     2a4:	9f e7       	ldi	r25, 0x7F	; 127
     2a6:	08 95       	ret
    if (v < FP_MIN) return FP_MIN;
     2a8:	80 e0       	ldi	r24, 0x00	; 0
     2aa:	90 e8       	ldi	r25, 0x80	; 128
                    (two_x_32 < FP_MIN) ? FP_MIN :
                    (int16_t)two_x_32;
    int16_t sig = fp_sigmoid(two_x);
    int32_t result = ((int32_t)sig << 1) - FP_ONE;
    return fp_sat32(result);
}
     2ac:	08 95       	ret

000002ae <__vector_23>:
#if defined(TIM0_OVF_vect)
ISR(TIM0_OVF_vect)
#else
ISR(TIMER0_OVF_vect)
#endif
{
     2ae:	1f 92       	push	r1
     2b0:	0f 92       	push	r0
     2b2:	0f b6       	in	r0, 0x3f	; 63
     2b4:	0f 92       	push	r0
     2b6:	11 24       	eor	r1, r1
     2b8:	2f 93       	push	r18
     2ba:	3f 93       	push	r19
     2bc:	8f 93       	push	r24
     2be:	9f 93       	push	r25
     2c0:	af 93       	push	r26
     2c2:	bf 93       	push	r27
	// copy these to local variables so they can be stored in registers
	// (volatile variables must be read from memory on every access)
	unsigned long m = timer0_millis;
     2c4:	80 91 25 02 	lds	r24, 0x0225	; 0x800225 <timer0_millis>
     2c8:	90 91 26 02 	lds	r25, 0x0226	; 0x800226 <timer0_millis+0x1>
     2cc:	a0 91 27 02 	lds	r26, 0x0227	; 0x800227 <timer0_millis+0x2>
     2d0:	b0 91 28 02 	lds	r27, 0x0228	; 0x800228 <timer0_millis+0x3>
	unsigned char f = timer0_fract;
     2d4:	30 91 24 02 	lds	r19, 0x0224	; 0x800224 <timer0_fract>

	m += MILLIS_INC;
	f += FRACT_INC;
     2d8:	23 e0       	ldi	r18, 0x03	; 3
     2da:	23 0f       	add	r18, r19
	if (f >= FRACT_MAX) {
     2dc:	2d 37       	cpi	r18, 0x7D	; 125
     2de:	58 f5       	brcc	.+86     	; 0x336 <__vector_23+0x88>
	// copy these to local variables so they can be stored in registers
	// (volatile variables must be read from memory on every access)
	unsigned long m = timer0_millis;
	unsigned char f = timer0_fract;

	m += MILLIS_INC;
     2e0:	01 96       	adiw	r24, 0x01	; 1
     2e2:	a1 1d       	adc	r26, r1
     2e4:	b1 1d       	adc	r27, r1
	if (f >= FRACT_MAX) {
		f -= FRACT_MAX;
		m += 1;
	}

	timer0_fract = f;
     2e6:	20 93 24 02 	sts	0x0224, r18	; 0x800224 <timer0_fract>
	timer0_millis = m;
     2ea:	80 93 25 02 	sts	0x0225, r24	; 0x800225 <timer0_millis>
     2ee:	90 93 26 02 	sts	0x0226, r25	; 0x800226 <timer0_millis+0x1>
     2f2:	a0 93 27 02 	sts	0x0227, r26	; 0x800227 <timer0_millis+0x2>
     2f6:	b0 93 28 02 	sts	0x0228, r27	; 0x800228 <timer0_millis+0x3>
	timer0_overflow_count++;
     2fa:	80 91 20 02 	lds	r24, 0x0220	; 0x800220 <__data_end>
     2fe:	90 91 21 02 	lds	r25, 0x0221	; 0x800221 <__data_end+0x1>
     302:	a0 91 22 02 	lds	r26, 0x0222	; 0x800222 <__data_end+0x2>
     306:	b0 91 23 02 	lds	r27, 0x0223	; 0x800223 <__data_end+0x3>
     30a:	01 96       	adiw	r24, 0x01	; 1
     30c:	a1 1d       	adc	r26, r1
     30e:	b1 1d       	adc	r27, r1
     310:	80 93 20 02 	sts	0x0220, r24	; 0x800220 <__data_end>
     314:	90 93 21 02 	sts	0x0221, r25	; 0x800221 <__data_end+0x1>
     318:	a0 93 22 02 	sts	0x0222, r26	; 0x800222 <__data_end+0x2>
     31c:	b0 93 23 02 	sts	0x0223, r27	; 0x800223 <__data_end+0x3>
}
     320:	bf 91       	pop	r27
     322:	af 91       	pop	r26
     324:	9f 91       	pop	r25
     326:	8f 91       	pop	r24
     328:	3f 91       	pop	r19
     32a:	2f 91       	pop	r18
     32c:	0f 90       	pop	r0
     32e:	0f be       	out	0x3f, r0	; 63
     330:	0f 90       	pop	r0
     332:	1f 90       	pop	r1
     334:	18 95       	reti
	unsigned char f = timer0_fract;

	m += MILLIS_INC;
	f += FRACT_INC;
	if (f >= FRACT_MAX) {
		f -= FRACT_MAX;
     336:	26 e8       	ldi	r18, 0x86	; 134
     338:	23 0f       	add	r18, r19
		m += 1;
     33a:	02 96       	adiw	r24, 0x02	; 2
     33c:	a1 1d       	adc	r26, r1
     33e:	b1 1d       	adc	r27, r1
     340:	d2 cf       	rjmp	.-92     	; 0x2e6 <__vector_23+0x38>

00000342 <main>:

void setupUSB() __attribute__((weak));
void setupUSB() { }

int main(void)
{
     342:	cf 93       	push	r28
     344:	df 93       	push	r29
     346:	cd b7       	in	r28, 0x3d	; 61
     348:	de b7       	in	r29, 0x3e	; 62
     34a:	c8 59       	subi	r28, 0x98	; 152
     34c:	d1 40       	sbci	r29, 0x01	; 1
     34e:	0f b6       	in	r0, 0x3f	; 63
     350:	f8 94       	cli
     352:	de bf       	out	0x3e, r29	; 62
     354:	0f be       	out	0x3f, r0	; 63
     356:	cd bf       	out	0x3d, r28	; 61

void init()
{
	// this needs to be called before setup() or some functions won't
	// work there
	sei();
     358:	78 94       	sei
	
	// on the ATmega168, timer 0 is also used for fast hardware pwm
	// (using phase-correct PWM would mean that timer 0 overflowed half as often
	// resulting in different millis() behavior on the ATmega8 and ATmega168)
#if defined(TCCR0A) && defined(WGM01)
	sbi(TCCR0A, WGM01);
     35a:	84 b5       	in	r24, 0x24	; 36
     35c:	82 60       	ori	r24, 0x02	; 2
     35e:	84 bd       	out	0x24, r24	; 36
	sbi(TCCR0A, WGM00);
     360:	84 b5       	in	r24, 0x24	; 36
     362:	81 60       	ori	r24, 0x01	; 1
     364:	84 bd       	out	0x24, r24	; 36
	// this combination is for the standard atmega8
	sbi(TCCR0, CS01);
	sbi(TCCR0, CS00);
#elif defined(TCCR0B) && defined(CS01) && defined(CS00)
	// this combination is for the standard 168/328/1280/2560
	sbi(TCCR0B, CS01);
     366:	85 b5       	in	r24, 0x25	; 37
     368:	82 60       	ori	r24, 0x02	; 2
     36a:	85 bd       	out	0x25, r24	; 37
	sbi(TCCR0B, CS00);
     36c:	85 b5       	in	r24, 0x25	; 37
     36e:	81 60       	ori	r24, 0x01	; 1
     370:	85 bd       	out	0x25, r24	; 37

	// enable timer 0 overflow interrupt
#if defined(TIMSK) && defined(TOIE0)
	sbi(TIMSK, TOIE0);
#elif defined(TIMSK0) && defined(TOIE0)
	sbi(TIMSK0, TOIE0);
     372:	80 91 6e 00 	lds	r24, 0x006E	; 0x80006e <__TEXT_REGION_LENGTH__+0x70006e>
     376:	81 60       	ori	r24, 0x01	; 1
     378:	80 93 6e 00 	sts	0x006E, r24	; 0x80006e <__TEXT_REGION_LENGTH__+0x70006e>
	// this is better for motors as it ensures an even waveform
	// note, however, that fast pwm mode can achieve a frequency of up
	// 8 MHz (with a 16 MHz clock) at 50% duty cycle

#if defined(TCCR1B) && defined(CS11) && defined(CS10)
	TCCR1B = 0;
     37c:	10 92 81 00 	sts	0x0081, r1	; 0x800081 <__TEXT_REGION_LENGTH__+0x700081>

	// set timer 1 prescale factor to 64
	sbi(TCCR1B, CS11);
     380:	80 91 81 00 	lds	r24, 0x0081	; 0x800081 <__TEXT_REGION_LENGTH__+0x700081>
     384:	82 60       	ori	r24, 0x02	; 2
     386:	80 93 81 00 	sts	0x0081, r24	; 0x800081 <__TEXT_REGION_LENGTH__+0x700081>
#if F_CPU >= 8000000L
	sbi(TCCR1B, CS10);
     38a:	80 91 81 00 	lds	r24, 0x0081	; 0x800081 <__TEXT_REGION_LENGTH__+0x700081>
     38e:	81 60       	ori	r24, 0x01	; 1
     390:	80 93 81 00 	sts	0x0081, r24	; 0x800081 <__TEXT_REGION_LENGTH__+0x700081>
	sbi(TCCR1, CS10);
#endif
#endif
	// put timer 1 in 8-bit phase correct pwm mode
#if defined(TCCR1A) && defined(WGM10)
	sbi(TCCR1A, WGM10);
     394:	80 91 80 00 	lds	r24, 0x0080	; 0x800080 <__TEXT_REGION_LENGTH__+0x700080>
     398:	81 60       	ori	r24, 0x01	; 1
     39a:	80 93 80 00 	sts	0x0080, r24	; 0x800080 <__TEXT_REGION_LENGTH__+0x700080>

	// set timer 2 prescale factor to 64
#if defined(TCCR2) && defined(CS22)
	sbi(TCCR2, CS22);
#elif defined(TCCR2B) && defined(CS22)
	sbi(TCCR2B, CS22);
     39e:	80 91 b1 00 	lds	r24, 0x00B1	; 0x8000b1 <__TEXT_REGION_LENGTH__+0x7000b1>
     3a2:	84 60       	ori	r24, 0x04	; 4
     3a4:	80 93 b1 00 	sts	0x00B1, r24	; 0x8000b1 <__TEXT_REGION_LENGTH__+0x7000b1>

	// configure timer 2 for phase correct pwm (8-bit)
#if defined(TCCR2) && defined(WGM20)
	sbi(TCCR2, WGM20);
#elif defined(TCCR2A) && defined(WGM20)
	sbi(TCCR2A, WGM20);
     3a8:	80 91 b0 00 	lds	r24, 0x00B0	; 0x8000b0 <__TEXT_REGION_LENGTH__+0x7000b0>
     3ac:	81 60       	ori	r24, 0x01	; 1
     3ae:	80 93 b0 00 	sts	0x00B0, r24	; 0x8000b0 <__TEXT_REGION_LENGTH__+0x7000b0>
//#else
	// Timer 2 not finished (may not be present on this CPU)
#endif

#if defined(TCCR3B) && defined(CS31) && defined(WGM30)
	sbi(TCCR3B, CS31);		// set timer 3 prescale factor to 64
     3b2:	80 91 91 00 	lds	r24, 0x0091	; 0x800091 <__TEXT_REGION_LENGTH__+0x700091>
     3b6:	82 60       	ori	r24, 0x02	; 2
     3b8:	80 93 91 00 	sts	0x0091, r24	; 0x800091 <__TEXT_REGION_LENGTH__+0x700091>
	sbi(TCCR3B, CS30);
     3bc:	80 91 91 00 	lds	r24, 0x0091	; 0x800091 <__TEXT_REGION_LENGTH__+0x700091>
     3c0:	81 60       	ori	r24, 0x01	; 1
     3c2:	80 93 91 00 	sts	0x0091, r24	; 0x800091 <__TEXT_REGION_LENGTH__+0x700091>
	sbi(TCCR3A, WGM30);		// put timer 3 in 8-bit phase correct pwm mode
     3c6:	80 91 90 00 	lds	r24, 0x0090	; 0x800090 <__TEXT_REGION_LENGTH__+0x700090>
     3ca:	81 60       	ori	r24, 0x01	; 1
     3cc:	80 93 90 00 	sts	0x0090, r24	; 0x800090 <__TEXT_REGION_LENGTH__+0x700090>
	sbi(TCCR4D, WGM40);		// put timer 4 in phase- and frequency-correct PWM mode	
	sbi(TCCR4A, PWM4A);		// enable PWM mode for comparator OCR4A
	sbi(TCCR4C, PWM4D);		// enable PWM mode for comparator OCR4D
#else /* beginning of timer4 block for ATMEGA1280 and ATMEGA2560 */
#if defined(TCCR4B) && defined(CS41) && defined(WGM40)
	sbi(TCCR4B, CS41);		// set timer 4 prescale factor to 64
     3d0:	80 91 a1 00 	lds	r24, 0x00A1	; 0x8000a1 <__TEXT_REGION_LENGTH__+0x7000a1>
     3d4:	82 60       	ori	r24, 0x02	; 2
     3d6:	80 93 a1 00 	sts	0x00A1, r24	; 0x8000a1 <__TEXT_REGION_LENGTH__+0x7000a1>
	sbi(TCCR4B, CS40);
     3da:	80 91 a1 00 	lds	r24, 0x00A1	; 0x8000a1 <__TEXT_REGION_LENGTH__+0x7000a1>
     3de:	81 60       	ori	r24, 0x01	; 1
     3e0:	80 93 a1 00 	sts	0x00A1, r24	; 0x8000a1 <__TEXT_REGION_LENGTH__+0x7000a1>
	sbi(TCCR4A, WGM40);		// put timer 4 in 8-bit phase correct pwm mode
     3e4:	80 91 a0 00 	lds	r24, 0x00A0	; 0x8000a0 <__TEXT_REGION_LENGTH__+0x7000a0>
     3e8:	81 60       	ori	r24, 0x01	; 1
     3ea:	80 93 a0 00 	sts	0x00A0, r24	; 0x8000a0 <__TEXT_REGION_LENGTH__+0x7000a0>
#endif
#endif /* end timer4 block for ATMEGA1280/2560 and similar */	

#if defined(TCCR5B) && defined(CS51) && defined(WGM50)
	sbi(TCCR5B, CS51);		// set timer 5 prescale factor to 64
     3ee:	80 91 21 01 	lds	r24, 0x0121	; 0x800121 <__TEXT_REGION_LENGTH__+0x700121>
     3f2:	82 60       	ori	r24, 0x02	; 2
     3f4:	80 93 21 01 	sts	0x0121, r24	; 0x800121 <__TEXT_REGION_LENGTH__+0x700121>
	sbi(TCCR5B, CS50);
     3f8:	80 91 21 01 	lds	r24, 0x0121	; 0x800121 <__TEXT_REGION_LENGTH__+0x700121>
     3fc:	81 60       	ori	r24, 0x01	; 1
     3fe:	80 93 21 01 	sts	0x0121, r24	; 0x800121 <__TEXT_REGION_LENGTH__+0x700121>
	sbi(TCCR5A, WGM50);		// put timer 5 in 8-bit phase correct pwm mode
     402:	80 91 20 01 	lds	r24, 0x0120	; 0x800120 <__TEXT_REGION_LENGTH__+0x700120>
     406:	81 60       	ori	r24, 0x01	; 1
     408:	80 93 20 01 	sts	0x0120, r24	; 0x800120 <__TEXT_REGION_LENGTH__+0x700120>
#endif

#if defined(ADCSRA)
	// set a2d prescaler so we are inside the desired 50-200 KHz range.
	#if F_CPU >= 16000000 // 16 MHz / 128 = 125 KHz
		sbi(ADCSRA, ADPS2);
     40c:	80 91 7a 00 	lds	r24, 0x007A	; 0x80007a <__TEXT_REGION_LENGTH__+0x70007a>
     410:	84 60       	ori	r24, 0x04	; 4
     412:	80 93 7a 00 	sts	0x007A, r24	; 0x80007a <__TEXT_REGION_LENGTH__+0x70007a>
		sbi(ADCSRA, ADPS1);
     416:	80 91 7a 00 	lds	r24, 0x007A	; 0x80007a <__TEXT_REGION_LENGTH__+0x70007a>
     41a:	82 60       	ori	r24, 0x02	; 2
     41c:	80 93 7a 00 	sts	0x007A, r24	; 0x80007a <__TEXT_REGION_LENGTH__+0x70007a>
		sbi(ADCSRA, ADPS0);
     420:	80 91 7a 00 	lds	r24, 0x007A	; 0x80007a <__TEXT_REGION_LENGTH__+0x70007a>
     424:	81 60       	ori	r24, 0x01	; 1
     426:	80 93 7a 00 	sts	0x007A, r24	; 0x80007a <__TEXT_REGION_LENGTH__+0x70007a>
		cbi(ADCSRA, ADPS2);
		cbi(ADCSRA, ADPS1);
		sbi(ADCSRA, ADPS0);
	#endif
	// enable a2d conversions
	sbi(ADCSRA, ADEN);
     42a:	80 91 7a 00 	lds	r24, 0x007A	; 0x80007a <__TEXT_REGION_LENGTH__+0x70007a>
     42e:	80 68       	ori	r24, 0x80	; 128
     430:	80 93 7a 00 	sts	0x007A, r24	; 0x80007a <__TEXT_REGION_LENGTH__+0x70007a>
	// here so they can be used as normal digital i/o; they will be
	// reconnected in Serial.begin()
#if defined(UCSRB)
	UCSRB = 0;
#elif defined(UCSR0B)
	UCSR0B = 0;
     434:	10 92 c1 00 	sts	0x00C1, r1	; 0x8000c1 <__TEXT_REGION_LENGTH__+0x7000c1>
     438:	20 91 00 02 	lds	r18, 0x0200	; 0x800200 <__DATA_REGION_ORIGIN__>
     43c:	30 91 01 02 	lds	r19, 0x0201	; 0x800201 <__DATA_REGION_ORIGIN__+0x1>
     440:	3c 87       	std	Y+12, r19	; 0x0c
     442:	2b 87       	std	Y+11, r18	; 0x0b
     444:	40 91 02 02 	lds	r20, 0x0202	; 0x800202 <__DATA_REGION_ORIGIN__+0x2>
     448:	50 91 03 02 	lds	r21, 0x0203	; 0x800203 <__DATA_REGION_ORIGIN__+0x3>
     44c:	58 87       	std	Y+8, r21	; 0x08
     44e:	4f 83       	std	Y+7, r20	; 0x07
     450:	80 91 04 02 	lds	r24, 0x0204	; 0x800204 <__DATA_REGION_ORIGIN__+0x4>
     454:	90 91 05 02 	lds	r25, 0x0205	; 0x800205 <__DATA_REGION_ORIGIN__+0x5>
     458:	9e 8b       	std	Y+22, r25	; 0x16
     45a:	8d 8b       	std	Y+21, r24	; 0x15
     45c:	20 90 06 02 	lds	r2, 0x0206	; 0x800206 <__DATA_REGION_ORIGIN__+0x6>
     460:	30 90 07 02 	lds	r3, 0x0207	; 0x800207 <__DATA_REGION_ORIGIN__+0x7>
     464:	a0 91 08 02 	lds	r26, 0x0208	; 0x800208 <__DATA_REGION_ORIGIN__+0x8>
     468:	b0 91 09 02 	lds	r27, 0x0209	; 0x800209 <__DATA_REGION_ORIGIN__+0x9>
     46c:	be 83       	std	Y+6, r27	; 0x06
     46e:	ad 83       	std	Y+5, r26	; 0x05
     470:	e0 91 0a 02 	lds	r30, 0x020A	; 0x80020a <__DATA_REGION_ORIGIN__+0xa>
     474:	f0 91 0b 02 	lds	r31, 0x020B	; 0x80020b <__DATA_REGION_ORIGIN__+0xb>
     478:	fe 87       	std	Y+14, r31	; 0x0e
     47a:	ed 87       	std	Y+13, r30	; 0x0d
     47c:	20 91 0c 02 	lds	r18, 0x020C	; 0x80020c <__DATA_REGION_ORIGIN__+0xc>
     480:	30 91 0d 02 	lds	r19, 0x020D	; 0x80020d <__DATA_REGION_ORIGIN__+0xd>
     484:	c9 56       	subi	r28, 0x69	; 105
     486:	de 4f       	sbci	r29, 0xFE	; 254
     488:	39 83       	std	Y+1, r19	; 0x01
     48a:	28 83       	st	Y, r18
     48c:	c7 59       	subi	r28, 0x97	; 151
     48e:	d1 40       	sbci	r29, 0x01	; 1
     490:	40 91 0e 02 	lds	r20, 0x020E	; 0x80020e <__DATA_REGION_ORIGIN__+0xe>
     494:	50 91 0f 02 	lds	r21, 0x020F	; 0x80020f <__DATA_REGION_ORIGIN__+0xf>
     498:	5a 8b       	std	Y+18, r21	; 0x12
     49a:	49 8b       	std	Y+17, r20	; 0x11
     49c:	80 91 10 02 	lds	r24, 0x0210	; 0x800210 <__DATA_REGION_ORIGIN__+0x10>
     4a0:	90 91 11 02 	lds	r25, 0x0211	; 0x800211 <__DATA_REGION_ORIGIN__+0x11>
     4a4:	98 8f       	std	Y+24, r25	; 0x18
     4a6:	8f 8b       	std	Y+23, r24	; 0x17
     4a8:	a0 91 12 02 	lds	r26, 0x0212	; 0x800212 <__DATA_REGION_ORIGIN__+0x12>
     4ac:	b0 91 13 02 	lds	r27, 0x0213	; 0x800213 <__DATA_REGION_ORIGIN__+0x13>
     4b0:	ba 87       	std	Y+10, r27	; 0x0a
     4b2:	a9 87       	std	Y+9, r26	; 0x09
     4b4:	e0 91 14 02 	lds	r30, 0x0214	; 0x800214 <__DATA_REGION_ORIGIN__+0x14>
     4b8:	f0 91 15 02 	lds	r31, 0x0215	; 0x800215 <__DATA_REGION_ORIGIN__+0x15>
     4bc:	f8 8b       	std	Y+16, r31	; 0x10
     4be:	ef 87       	std	Y+15, r30	; 0x0f
     4c0:	20 91 16 02 	lds	r18, 0x0216	; 0x800216 <__DATA_REGION_ORIGIN__+0x16>
     4c4:	30 91 17 02 	lds	r19, 0x0217	; 0x800217 <__DATA_REGION_ORIGIN__+0x17>
     4c8:	3a 8f       	std	Y+26, r19	; 0x1a
     4ca:	29 8f       	std	Y+25, r18	; 0x19
     4cc:	00 91 18 02 	lds	r16, 0x0218	; 0x800218 <__DATA_REGION_ORIGIN__+0x18>
     4d0:	10 91 19 02 	lds	r17, 0x0219	; 0x800219 <__DATA_REGION_ORIGIN__+0x19>
     4d4:	40 91 1a 02 	lds	r20, 0x021A	; 0x80021a <__DATA_REGION_ORIGIN__+0x1a>
     4d8:	50 91 1b 02 	lds	r21, 0x021B	; 0x80021b <__DATA_REGION_ORIGIN__+0x1b>
     4dc:	5c 8f       	std	Y+28, r21	; 0x1c
     4de:	4b 8f       	std	Y+27, r20	; 0x1b
     4e0:	80 91 1c 02 	lds	r24, 0x021C	; 0x80021c <__DATA_REGION_ORIGIN__+0x1c>
     4e4:	90 91 1d 02 	lds	r25, 0x021D	; 0x80021d <__DATA_REGION_ORIGIN__+0x1d>
     4e8:	9e 8f       	std	Y+30, r25	; 0x1e
     4ea:	8d 8f       	std	Y+29, r24	; 0x1d
     4ec:	a0 91 1e 02 	lds	r26, 0x021E	; 0x80021e <__DATA_REGION_ORIGIN__+0x1e>
     4f0:	b0 91 1f 02 	lds	r27, 0x021F	; 0x80021f <__DATA_REGION_ORIGIN__+0x1f>
     4f4:	bc 8b       	std	Y+20, r27	; 0x14
     4f6:	ab 8b       	std	Y+19, r26	; 0x13
    acc += (int32_t)W_ir[0][61] * (int32_t)x[61];
    acc += (int32_t)W_ir[0][62] * (int32_t)x[62];
    acc += (int32_t)W_ir[0][63] * (int32_t)x[63];
    acc >>= FRAC_BITS;
    acc += (int32_t)b_hr[0];
    acc += (int32_t)W_hr[0][0] * (int32_t)h_state[0];
     4f8:	2f e1       	ldi	r18, 0x1F	; 31
     4fa:	30 e0       	ldi	r19, 0x00	; 0
     4fc:	ab 85       	ldd	r26, Y+11	; 0x0b
     4fe:	bc 85       	ldd	r27, Y+12	; 0x0c
     500:	0e 94 c2 32 	call	0x6584	; 0x6584 <__usmulhisi3>
     504:	6b 01       	movw	r12, r22
     506:	7c 01       	movw	r14, r24
     508:	b5 e1       	ldi	r27, 0x15	; 21
     50a:	cb 0e       	add	r12, r27
     50c:	d1 1c       	adc	r13, r1
     50e:	e1 1c       	adc	r14, r1
     510:	f1 1c       	adc	r15, r1
    acc += (int32_t)W_hr[0][1] * (int32_t)h_state[1];
     512:	23 e0       	ldi	r18, 0x03	; 3
     514:	30 e0       	ldi	r19, 0x00	; 0
     516:	af 81       	ldd	r26, Y+7	; 0x07
     518:	b8 85       	ldd	r27, Y+8	; 0x08
     51a:	0e 94 c2 32 	call	0x6584	; 0x6584 <__usmulhisi3>
     51e:	c6 0e       	add	r12, r22
     520:	d7 1e       	adc	r13, r23
     522:	e8 1e       	adc	r14, r24
     524:	f9 1e       	adc	r15, r25
    acc += (int32_t)W_hr[0][2] * (int32_t)h_state[2];
     526:	2d 89       	ldd	r18, Y+21	; 0x15
     528:	3e 89       	ldd	r19, Y+22	; 0x16
     52a:	03 2e       	mov	r0, r19
     52c:	00 0c       	add	r0, r0
     52e:	44 0b       	sbc	r20, r20
     530:	55 0b       	sbc	r21, r21
     532:	2b a7       	std	Y+43, r18	; 0x2b
     534:	3c a7       	std	Y+44, r19	; 0x2c
     536:	4d a7       	std	Y+45, r20	; 0x2d
     538:	5e a7       	std	Y+46, r21	; 0x2e
     53a:	2f e1       	ldi	r18, 0x1F	; 31
     53c:	30 e0       	ldi	r19, 0x00	; 0
     53e:	ad 89       	ldd	r26, Y+21	; 0x15
     540:	be 89       	ldd	r27, Y+22	; 0x16
     542:	0e 94 c2 32 	call	0x6584	; 0x6584 <__usmulhisi3>
     546:	c6 0e       	add	r12, r22
     548:	d7 1e       	adc	r13, r23
     54a:	e8 1e       	adc	r14, r24
     54c:	f9 1e       	adc	r15, r25
    acc += (int32_t)W_hr[0][3] * (int32_t)h_state[3];
     54e:	c1 01       	movw	r24, r2
     550:	03 2c       	mov	r0, r3
     552:	00 0c       	add	r0, r0
     554:	aa 0b       	sbc	r26, r26
     556:	bb 0b       	sbc	r27, r27
     558:	ab 96       	adiw	r28, 0x2b	; 43
     55a:	8c af       	std	Y+60, r24	; 0x3c
     55c:	9d af       	std	Y+61, r25	; 0x3d
     55e:	ae af       	std	Y+62, r26	; 0x3e
     560:	bf af       	std	Y+63, r27	; 0x3f
     562:	ab 97       	sbiw	r28, 0x2b	; 43
     564:	91 01       	movw	r18, r2
     566:	ad ef       	ldi	r26, 0xFD	; 253
     568:	bf ef       	ldi	r27, 0xFF	; 255
     56a:	0e 94 ab 32 	call	0x6556	; 0x6556 <__mulhisi3>
     56e:	c6 0e       	add	r12, r22
     570:	d7 1e       	adc	r13, r23
     572:	e8 1e       	adc	r14, r24
     574:	f9 1e       	adc	r15, r25
    acc += (int32_t)W_hr[0][4] * (int32_t)h_state[4];
     576:	2d 81       	ldd	r18, Y+5	; 0x05
     578:	3e 81       	ldd	r19, Y+6	; 0x06
     57a:	03 2e       	mov	r0, r19
     57c:	00 0c       	add	r0, r0
     57e:	44 0b       	sbc	r20, r20
     580:	55 0b       	sbc	r21, r21
     582:	63 96       	adiw	r28, 0x13	; 19
     584:	2c af       	std	Y+60, r18	; 0x3c
     586:	3d af       	std	Y+61, r19	; 0x3d
     588:	4e af       	std	Y+62, r20	; 0x3e
     58a:	5f af       	std	Y+63, r21	; 0x3f
     58c:	63 97       	sbiw	r28, 0x13	; 19
     58e:	24 e2       	ldi	r18, 0x24	; 36
     590:	30 e0       	ldi	r19, 0x00	; 0
     592:	ad 81       	ldd	r26, Y+5	; 0x05
     594:	be 81       	ldd	r27, Y+6	; 0x06
     596:	0e 94 c2 32 	call	0x6584	; 0x6584 <__usmulhisi3>
     59a:	c6 0e       	add	r12, r22
     59c:	d7 1e       	adc	r13, r23
     59e:	e8 1e       	adc	r14, r24
     5a0:	f9 1e       	adc	r15, r25
    acc += (int32_t)W_hr[0][5] * (int32_t)h_state[5];
     5a2:	4d 85       	ldd	r20, Y+13	; 0x0d
     5a4:	5e 85       	ldd	r21, Y+14	; 0x0e
     5a6:	4a 01       	movw	r8, r20
     5a8:	55 0f       	add	r21, r21
     5aa:	aa 08       	sbc	r10, r10
     5ac:	bb 08       	sbc	r11, r11
     5ae:	d5 01       	movw	r26, r10
     5b0:	c4 01       	movw	r24, r8
     5b2:	88 0f       	add	r24, r24
     5b4:	99 1f       	adc	r25, r25
     5b6:	aa 1f       	adc	r26, r26
     5b8:	bb 1f       	adc	r27, r27
     5ba:	cd 53       	subi	r28, 0x3D	; 61
     5bc:	df 4f       	sbci	r29, 0xFF	; 255
     5be:	88 83       	st	Y, r24
     5c0:	99 83       	std	Y+1, r25	; 0x01
     5c2:	aa 83       	std	Y+2, r26	; 0x02
     5c4:	bb 83       	std	Y+3, r27	; 0x03
     5c6:	c3 5c       	subi	r28, 0xC3	; 195
     5c8:	d0 40       	sbci	r29, 0x00	; 0
     5ca:	c8 0e       	add	r12, r24
     5cc:	d9 1e       	adc	r13, r25
     5ce:	ea 1e       	adc	r14, r26
     5d0:	fb 1e       	adc	r15, r27
    acc += (int32_t)W_hr[0][6] * (int32_t)h_state[6];
     5d2:	c9 56       	subi	r28, 0x69	; 105
     5d4:	de 4f       	sbci	r29, 0xFE	; 254
     5d6:	28 81       	ld	r18, Y
     5d8:	39 81       	ldd	r19, Y+1	; 0x01
     5da:	c7 59       	subi	r28, 0x97	; 151
     5dc:	d1 40       	sbci	r29, 0x01	; 1
     5de:	03 2e       	mov	r0, r19
     5e0:	00 0c       	add	r0, r0
     5e2:	44 0b       	sbc	r20, r20
     5e4:	55 0b       	sbc	r21, r21
     5e6:	c9 54       	subi	r28, 0x49	; 73
     5e8:	df 4f       	sbci	r29, 0xFF	; 255
     5ea:	28 83       	st	Y, r18
     5ec:	39 83       	std	Y+1, r19	; 0x01
     5ee:	4a 83       	std	Y+2, r20	; 0x02
     5f0:	5b 83       	std	Y+3, r21	; 0x03
     5f2:	c7 5b       	subi	r28, 0xB7	; 183
     5f4:	d0 40       	sbci	r29, 0x00	; 0
     5f6:	c9 56       	subi	r28, 0x69	; 105
     5f8:	de 4f       	sbci	r29, 0xFE	; 254
     5fa:	28 81       	ld	r18, Y
     5fc:	39 81       	ldd	r19, Y+1	; 0x01
     5fe:	c7 59       	subi	r28, 0x97	; 151
     600:	d1 40       	sbci	r29, 0x01	; 1
     602:	ae ec       	ldi	r26, 0xCE	; 206
     604:	bf ef       	ldi	r27, 0xFF	; 255
     606:	0e 94 ab 32 	call	0x6556	; 0x6556 <__mulhisi3>
     60a:	c6 0e       	add	r12, r22
     60c:	d7 1e       	adc	r13, r23
     60e:	e8 1e       	adc	r14, r24
     610:	f9 1e       	adc	r15, r25
    acc += (int32_t)W_hr[0][7] * (int32_t)h_state[7];
    acc += (int32_t)W_hr[0][8] * (int32_t)h_state[8];
     612:	29 e3       	ldi	r18, 0x39	; 57
     614:	30 e0       	ldi	r19, 0x00	; 0
     616:	af 89       	ldd	r26, Y+23	; 0x17
     618:	b8 8d       	ldd	r27, Y+24	; 0x18
     61a:	0e 94 c2 32 	call	0x6584	; 0x6584 <__usmulhisi3>
     61e:	c9 53       	subi	r28, 0x39	; 57
     620:	df 4f       	sbci	r29, 0xFF	; 255
     622:	68 83       	st	Y, r22
     624:	79 83       	std	Y+1, r23	; 0x01
     626:	8a 83       	std	Y+2, r24	; 0x02
     628:	9b 83       	std	Y+3, r25	; 0x03
     62a:	c7 5c       	subi	r28, 0xC7	; 199
     62c:	d0 40       	sbci	r29, 0x00	; 0
     62e:	c6 0e       	add	r12, r22
     630:	d7 1e       	adc	r13, r23
     632:	e8 1e       	adc	r14, r24
     634:	f9 1e       	adc	r15, r25
    acc += (int32_t)W_hr[0][9] * (int32_t)h_state[9];
     636:	89 85       	ldd	r24, Y+9	; 0x09
     638:	9a 85       	ldd	r25, Y+10	; 0x0a
     63a:	09 2e       	mov	r0, r25
     63c:	00 0c       	add	r0, r0
     63e:	aa 0b       	sbc	r26, r26
     640:	bb 0b       	sbc	r27, r27
     642:	8f 8f       	std	Y+31, r24	; 0x1f
     644:	98 a3       	std	Y+32, r25	; 0x20
     646:	a9 a3       	std	Y+33, r26	; 0x21
     648:	ba a3       	std	Y+34, r27	; 0x22
     64a:	29 85       	ldd	r18, Y+9	; 0x09
     64c:	3a 85       	ldd	r19, Y+10	; 0x0a
     64e:	a6 ec       	ldi	r26, 0xC6	; 198
     650:	bf ef       	ldi	r27, 0xFF	; 255
     652:	0e 94 ab 32 	call	0x6556	; 0x6556 <__mulhisi3>
     656:	c6 0e       	add	r12, r22
     658:	d7 1e       	adc	r13, r23
     65a:	e8 1e       	adc	r14, r24
     65c:	f9 1e       	adc	r15, r25
    acc += (int32_t)W_hr[0][10] * (int32_t)h_state[10];
     65e:	2f 85       	ldd	r18, Y+15	; 0x0f
     660:	38 89       	ldd	r19, Y+16	; 0x10
     662:	03 2e       	mov	r0, r19
     664:	00 0c       	add	r0, r0
     666:	44 0b       	sbc	r20, r20
     668:	55 0b       	sbc	r21, r21
     66a:	af 96       	adiw	r28, 0x2f	; 47
     66c:	2c af       	std	Y+60, r18	; 0x3c
     66e:	3d af       	std	Y+61, r19	; 0x3d
     670:	4e af       	std	Y+62, r20	; 0x3e
     672:	5f af       	std	Y+63, r21	; 0x3f
     674:	af 97       	sbiw	r28, 0x2f	; 47
     676:	24 e2       	ldi	r18, 0x24	; 36
     678:	30 e0       	ldi	r19, 0x00	; 0
     67a:	af 85       	ldd	r26, Y+15	; 0x0f
     67c:	b8 89       	ldd	r27, Y+16	; 0x10
     67e:	0e 94 c2 32 	call	0x6584	; 0x6584 <__usmulhisi3>
     682:	e7 96       	adiw	r28, 0x37	; 55
     684:	6c af       	std	Y+60, r22	; 0x3c
     686:	7d af       	std	Y+61, r23	; 0x3d
     688:	8e af       	std	Y+62, r24	; 0x3e
     68a:	9f af       	std	Y+63, r25	; 0x3f
     68c:	e7 97       	sbiw	r28, 0x37	; 55
     68e:	c6 0e       	add	r12, r22
     690:	d7 1e       	adc	r13, r23
     692:	e8 1e       	adc	r14, r24
     694:	f9 1e       	adc	r15, r25
    acc += (int32_t)W_hr[0][11] * (int32_t)h_state[11];
     696:	89 8d       	ldd	r24, Y+25	; 0x19
     698:	9a 8d       	ldd	r25, Y+26	; 0x1a
     69a:	09 2e       	mov	r0, r25
     69c:	00 0c       	add	r0, r0
     69e:	aa 0b       	sbc	r26, r26
     6a0:	bb 0b       	sbc	r27, r27
     6a2:	8f ab       	std	Y+55, r24	; 0x37
     6a4:	98 af       	std	Y+56, r25	; 0x38
     6a6:	a9 af       	std	Y+57, r26	; 0x39
     6a8:	ba af       	std	Y+58, r27	; 0x3a
     6aa:	2f e2       	ldi	r18, 0x2F	; 47
     6ac:	30 e0       	ldi	r19, 0x00	; 0
     6ae:	a9 8d       	ldd	r26, Y+25	; 0x19
     6b0:	ba 8d       	ldd	r27, Y+26	; 0x1a
     6b2:	0e 94 c2 32 	call	0x6584	; 0x6584 <__usmulhisi3>
     6b6:	c6 0e       	add	r12, r22
     6b8:	d7 1e       	adc	r13, r23
     6ba:	e8 1e       	adc	r14, r24
     6bc:	f9 1e       	adc	r15, r25
    acc += (int32_t)W_hr[0][12] * (int32_t)h_state[12];
     6be:	98 01       	movw	r18, r16
     6c0:	01 2e       	mov	r0, r17
     6c2:	00 0c       	add	r0, r0
     6c4:	44 0b       	sbc	r20, r20
     6c6:	55 0b       	sbc	r21, r21
     6c8:	c5 53       	subi	r28, 0x35	; 53
     6ca:	df 4f       	sbci	r29, 0xFF	; 255
     6cc:	28 83       	st	Y, r18
     6ce:	39 83       	std	Y+1, r19	; 0x01
     6d0:	4a 83       	std	Y+2, r20	; 0x02
     6d2:	5b 83       	std	Y+3, r21	; 0x03
     6d4:	cb 5c       	subi	r28, 0xCB	; 203
     6d6:	d0 40       	sbci	r29, 0x00	; 0
     6d8:	23 e0       	ldi	r18, 0x03	; 3
     6da:	30 e0       	ldi	r19, 0x00	; 0
     6dc:	d8 01       	movw	r26, r16
     6de:	0e 94 c2 32 	call	0x6584	; 0x6584 <__usmulhisi3>
     6e2:	c1 53       	subi	r28, 0x31	; 49
     6e4:	df 4f       	sbci	r29, 0xFF	; 255
     6e6:	68 83       	st	Y, r22
     6e8:	79 83       	std	Y+1, r23	; 0x01
     6ea:	8a 83       	std	Y+2, r24	; 0x02
     6ec:	9b 83       	std	Y+3, r25	; 0x03
     6ee:	cf 5c       	subi	r28, 0xCF	; 207
     6f0:	d0 40       	sbci	r29, 0x00	; 0
     6f2:	c6 0e       	add	r12, r22
     6f4:	d7 1e       	adc	r13, r23
     6f6:	e8 1e       	adc	r14, r24
     6f8:	f9 1e       	adc	r15, r25
    acc += (int32_t)W_hr[0][13] * (int32_t)h_state[13];
     6fa:	8b 8d       	ldd	r24, Y+27	; 0x1b
     6fc:	9c 8d       	ldd	r25, Y+28	; 0x1c
     6fe:	09 2e       	mov	r0, r25
     700:	00 0c       	add	r0, r0
     702:	aa 0b       	sbc	r26, r26
     704:	bb 0b       	sbc	r27, r27
     706:	cd 52       	subi	r28, 0x2D	; 45
     708:	df 4f       	sbci	r29, 0xFF	; 255
     70a:	88 83       	st	Y, r24
     70c:	99 83       	std	Y+1, r25	; 0x01
     70e:	aa 83       	std	Y+2, r26	; 0x02
     710:	bb 83       	std	Y+3, r27	; 0x03
     712:	c3 5d       	subi	r28, 0xD3	; 211
     714:	d0 40       	sbci	r29, 0x00	; 0
     716:	2b 8d       	ldd	r18, Y+27	; 0x1b
     718:	3c 8d       	ldd	r19, Y+28	; 0x1c
     71a:	ab ef       	ldi	r26, 0xFB	; 251
     71c:	bf ef       	ldi	r27, 0xFF	; 255
     71e:	0e 94 ab 32 	call	0x6556	; 0x6556 <__mulhisi3>
     722:	c9 52       	subi	r28, 0x29	; 41
     724:	df 4f       	sbci	r29, 0xFF	; 255
     726:	68 83       	st	Y, r22
     728:	79 83       	std	Y+1, r23	; 0x01
     72a:	8a 83       	std	Y+2, r24	; 0x02
     72c:	9b 83       	std	Y+3, r25	; 0x03
     72e:	c7 5d       	subi	r28, 0xD7	; 215
     730:	d0 40       	sbci	r29, 0x00	; 0
     732:	c6 0e       	add	r12, r22
     734:	d7 1e       	adc	r13, r23
     736:	e8 1e       	adc	r14, r24
     738:	f9 1e       	adc	r15, r25
    acc += (int32_t)W_hr[0][14] * (int32_t)h_state[14];
     73a:	2d 8d       	ldd	r18, Y+29	; 0x1d
     73c:	3e 8d       	ldd	r19, Y+30	; 0x1e
     73e:	03 2e       	mov	r0, r19
     740:	00 0c       	add	r0, r0
     742:	44 0b       	sbc	r20, r20
     744:	55 0b       	sbc	r21, r21
     746:	2b a3       	std	Y+35, r18	; 0x23
     748:	3c a3       	std	Y+36, r19	; 0x24
     74a:	4d a3       	std	Y+37, r20	; 0x25
     74c:	5e a3       	std	Y+38, r21	; 0x26
     74e:	2b e3       	ldi	r18, 0x3B	; 59
     750:	30 e0       	ldi	r19, 0x00	; 0
     752:	ad 8d       	ldd	r26, Y+29	; 0x1d
     754:	be 8d       	ldd	r27, Y+30	; 0x1e
     756:	0e 94 c2 32 	call	0x6584	; 0x6584 <__usmulhisi3>
     75a:	c5 52       	subi	r28, 0x25	; 37
     75c:	df 4f       	sbci	r29, 0xFF	; 255
     75e:	68 83       	st	Y, r22
     760:	79 83       	std	Y+1, r23	; 0x01
     762:	8a 83       	std	Y+2, r24	; 0x02
     764:	9b 83       	std	Y+3, r25	; 0x03
     766:	cb 5d       	subi	r28, 0xDB	; 219
     768:	d0 40       	sbci	r29, 0x00	; 0
     76a:	c6 0e       	add	r12, r22
     76c:	d7 1e       	adc	r13, r23
     76e:	e8 1e       	adc	r14, r24
     770:	f9 1e       	adc	r15, r25
    acc += (int32_t)W_hr[0][15] * (int32_t)h_state[15];
     772:	8b 89       	ldd	r24, Y+19	; 0x13
     774:	9c 89       	ldd	r25, Y+20	; 0x14
     776:	09 2e       	mov	r0, r25
     778:	00 0c       	add	r0, r0
     77a:	aa 0b       	sbc	r26, r26
     77c:	bb 0b       	sbc	r27, r27
     77e:	67 96       	adiw	r28, 0x17	; 23
     780:	8c af       	std	Y+60, r24	; 0x3c
     782:	9d af       	std	Y+61, r25	; 0x3d
     784:	ae af       	std	Y+62, r26	; 0x3e
     786:	bf af       	std	Y+63, r27	; 0x3f
     788:	67 97       	sbiw	r28, 0x17	; 23
     78a:	2b 89       	ldd	r18, Y+19	; 0x13
     78c:	3c 89       	ldd	r19, Y+20	; 0x14
     78e:	a8 ec       	ldi	r26, 0xC8	; 200
     790:	bf ef       	ldi	r27, 0xFF	; 255
     792:	0e 94 ab 32 	call	0x6556	; 0x6556 <__mulhisi3>
     796:	dc 01       	movw	r26, r24
     798:	cb 01       	movw	r24, r22
     79a:	8c 0d       	add	r24, r12
     79c:	9d 1d       	adc	r25, r13
     79e:	ae 1d       	adc	r26, r14
     7a0:	bf 1d       	adc	r27, r15
    acc >>= FRAC_BITS;
     7a2:	76 e0       	ldi	r23, 0x06	; 6
     7a4:	b5 95       	asr	r27
     7a6:	a7 95       	ror	r26
     7a8:	97 95       	ror	r25
     7aa:	87 95       	ror	r24
     7ac:	7a 95       	dec	r23
     7ae:	d1 f7       	brne	.-12     	; 0x7a4 <__LOCK_REGION_LENGTH__+0x3a4>
static inline int16_t fp_mul(int16_t a, int16_t b) {
    return (int16_t)(((int32_t)a * (int32_t)b) >> FRAC_BITS);
}

static inline int16_t fp_sat32(int32_t v) {
    if (v > FP_MAX) return FP_MAX;
     7b0:	81 15       	cp	r24, r1
     7b2:	e0 e8       	ldi	r30, 0x80	; 128
     7b4:	9e 07       	cpc	r25, r30
     7b6:	a1 05       	cpc	r26, r1
     7b8:	b1 05       	cpc	r27, r1
     7ba:	14 f0       	brlt	.+4      	; 0x7c0 <__LOCK_REGION_LENGTH__+0x3c0>
     7bc:	0c 94 82 31 	jmp	0x6304	; 0x6304 <__stack+0x4105>
    if (v < FP_MIN) return FP_MIN;
     7c0:	81 15       	cp	r24, r1
     7c2:	f0 e8       	ldi	r31, 0x80	; 128
     7c4:	9f 07       	cpc	r25, r31
     7c6:	ff ef       	ldi	r31, 0xFF	; 255
     7c8:	af 07       	cpc	r26, r31
     7ca:	bf 07       	cpc	r27, r31
     7cc:	14 f4       	brge	.+4      	; 0x7d2 <__LOCK_REGION_LENGTH__+0x3d2>
     7ce:	0c 94 86 31 	jmp	0x630c	; 0x630c <__stack+0x410d>
    acc += (int32_t)W_hr[0][12] * (int32_t)h_state[12];
    acc += (int32_t)W_hr[0][13] * (int32_t)h_state[13];
    acc += (int32_t)W_hr[0][14] * (int32_t)h_state[14];
    acc += (int32_t)W_hr[0][15] * (int32_t)h_state[15];
    acc >>= FRAC_BITS;
    r[0] = fp_sigmoid(fp_sat32(acc));
     7d2:	0e 94 b5 00 	call	0x16a	; 0x16a <_ZL10fp_sigmoidi>
     7d6:	c9 58       	subi	r28, 0x89	; 137
     7d8:	de 4f       	sbci	r29, 0xFE	; 254
     7da:	99 83       	std	Y+1, r25	; 0x01
     7dc:	88 83       	st	Y, r24
     7de:	c7 57       	subi	r28, 0x77	; 119
     7e0:	d1 40       	sbci	r29, 0x01	; 1
    acc += (int32_t)W_ir[1][61] * (int32_t)x[61];
    acc += (int32_t)W_ir[1][62] * (int32_t)x[62];
    acc += (int32_t)W_ir[1][63] * (int32_t)x[63];
    acc >>= FRAC_BITS;
    acc += (int32_t)b_hr[1];
    acc += (int32_t)W_hr[1][0] * (int32_t)h_state[0];
     7e2:	2b 85       	ldd	r18, Y+11	; 0x0b
     7e4:	3c 85       	ldd	r19, Y+12	; 0x0c
     7e6:	ad ef       	ldi	r26, 0xFD	; 253
     7e8:	bf ef       	ldi	r27, 0xFF	; 255
     7ea:	0e 94 ab 32 	call	0x6556	; 0x6556 <__mulhisi3>
     7ee:	6b 01       	movw	r12, r22
     7f0:	7c 01       	movw	r14, r24
     7f2:	24 e0       	ldi	r18, 0x04	; 4
     7f4:	c2 0e       	add	r12, r18
     7f6:	d1 1c       	adc	r13, r1
     7f8:	e1 1c       	adc	r14, r1
     7fa:	f1 1c       	adc	r15, r1
    acc += (int32_t)W_hr[1][1] * (int32_t)h_state[1];
     7fc:	2f 81       	ldd	r18, Y+7	; 0x07
     7fe:	38 85       	ldd	r19, Y+8	; 0x08
     800:	a3 ef       	ldi	r26, 0xF3	; 243
     802:	bf ef       	ldi	r27, 0xFF	; 255
     804:	0e 94 ab 32 	call	0x6556	; 0x6556 <__mulhisi3>
     808:	c6 0e       	add	r12, r22
     80a:	d7 1e       	adc	r13, r23
     80c:	e8 1e       	adc	r14, r24
     80e:	f9 1e       	adc	r15, r25
    acc += (int32_t)W_hr[1][2] * (int32_t)h_state[2];
     810:	28 e1       	ldi	r18, 0x18	; 24
     812:	30 e0       	ldi	r19, 0x00	; 0
     814:	ad 89       	ldd	r26, Y+21	; 0x15
     816:	be 89       	ldd	r27, Y+22	; 0x16
     818:	0e 94 c2 32 	call	0x6584	; 0x6584 <__usmulhisi3>
     81c:	6b 96       	adiw	r28, 0x1b	; 27
     81e:	6c af       	std	Y+60, r22	; 0x3c
     820:	7d af       	std	Y+61, r23	; 0x3d
     822:	8e af       	std	Y+62, r24	; 0x3e
     824:	9f af       	std	Y+63, r25	; 0x3f
     826:	6b 97       	sbiw	r28, 0x1b	; 27
     828:	c6 0e       	add	r12, r22
     82a:	d7 1e       	adc	r13, r23
     82c:	e8 1e       	adc	r14, r24
     82e:	f9 1e       	adc	r15, r25
     830:	ab 96       	adiw	r28, 0x2b	; 43
     832:	8c ad       	ldd	r24, Y+60	; 0x3c
     834:	9d ad       	ldd	r25, Y+61	; 0x3d
     836:	ae ad       	ldd	r26, Y+62	; 0x3e
     838:	bf ad       	ldd	r27, Y+63	; 0x3f
     83a:	ab 97       	sbiw	r28, 0x2b	; 43
     83c:	c8 1a       	sub	r12, r24
     83e:	d9 0a       	sbc	r13, r25
     840:	ea 0a       	sbc	r14, r26
     842:	fb 0a       	sbc	r15, r27
    acc += (int32_t)W_hr[1][3] * (int32_t)h_state[3];
    acc += (int32_t)W_hr[1][4] * (int32_t)h_state[4];
     844:	24 e3       	ldi	r18, 0x34	; 52
     846:	30 e0       	ldi	r19, 0x00	; 0
     848:	ad 81       	ldd	r26, Y+5	; 0x05
     84a:	be 81       	ldd	r27, Y+6	; 0x06
     84c:	0e 94 c2 32 	call	0x6584	; 0x6584 <__usmulhisi3>
     850:	c1 52       	subi	r28, 0x21	; 33
     852:	df 4f       	sbci	r29, 0xFF	; 255
     854:	68 83       	st	Y, r22
     856:	79 83       	std	Y+1, r23	; 0x01
     858:	8a 83       	std	Y+2, r24	; 0x02
     85a:	9b 83       	std	Y+3, r25	; 0x03
     85c:	cf 5d       	subi	r28, 0xDF	; 223
     85e:	d0 40       	sbci	r29, 0x00	; 0
     860:	c6 0e       	add	r12, r22
     862:	d7 1e       	adc	r13, r23
     864:	e8 1e       	adc	r14, r24
     866:	f9 1e       	adc	r15, r25
    acc += (int32_t)W_hr[1][5] * (int32_t)h_state[5];
     868:	2d 85       	ldd	r18, Y+13	; 0x0d
     86a:	3e 85       	ldd	r19, Y+14	; 0x0e
     86c:	a9 ec       	ldi	r26, 0xC9	; 201
     86e:	bf ef       	ldi	r27, 0xFF	; 255
     870:	0e 94 ab 32 	call	0x6556	; 0x6556 <__mulhisi3>
     874:	c6 0e       	add	r12, r22
     876:	d7 1e       	adc	r13, r23
     878:	e8 1e       	adc	r14, r24
     87a:	f9 1e       	adc	r15, r25
    acc += (int32_t)W_hr[1][6] * (int32_t)h_state[6];
     87c:	c9 56       	subi	r28, 0x69	; 105
     87e:	de 4f       	sbci	r29, 0xFE	; 254
     880:	28 81       	ld	r18, Y
     882:	39 81       	ldd	r19, Y+1	; 0x01
     884:	c7 59       	subi	r28, 0x97	; 151
     886:	d1 40       	sbci	r29, 0x01	; 1
     888:	aa ec       	ldi	r26, 0xCA	; 202
     88a:	bf ef       	ldi	r27, 0xFF	; 255
     88c:	0e 94 ab 32 	call	0x6556	; 0x6556 <__mulhisi3>
     890:	c6 0e       	add	r12, r22
     892:	d7 1e       	adc	r13, r23
     894:	e8 1e       	adc	r14, r24
     896:	f9 1e       	adc	r15, r25
    acc += (int32_t)W_hr[1][7] * (int32_t)h_state[7];
     898:	2e e0       	ldi	r18, 0x0E	; 14
     89a:	30 e0       	ldi	r19, 0x00	; 0
     89c:	a9 89       	ldd	r26, Y+17	; 0x11
     89e:	ba 89       	ldd	r27, Y+18	; 0x12
     8a0:	0e 94 c2 32 	call	0x6584	; 0x6584 <__usmulhisi3>
     8a4:	c6 0e       	add	r12, r22
     8a6:	d7 1e       	adc	r13, r23
     8a8:	e8 1e       	adc	r14, r24
     8aa:	f9 1e       	adc	r15, r25
    acc += (int32_t)W_hr[1][8] * (int32_t)h_state[8];
     8ac:	2f 89       	ldd	r18, Y+23	; 0x17
     8ae:	38 8d       	ldd	r19, Y+24	; 0x18
     8b0:	a8 ec       	ldi	r26, 0xC8	; 200
     8b2:	bf ef       	ldi	r27, 0xFF	; 255
     8b4:	0e 94 ab 32 	call	0x6556	; 0x6556 <__mulhisi3>
     8b8:	c6 0e       	add	r12, r22
     8ba:	d7 1e       	adc	r13, r23
     8bc:	e8 1e       	adc	r14, r24
     8be:	f9 1e       	adc	r15, r25
    acc += (int32_t)W_hr[1][9] * (int32_t)h_state[9];
     8c0:	29 85       	ldd	r18, Y+9	; 0x09
     8c2:	3a 85       	ldd	r19, Y+10	; 0x0a
     8c4:	a3 ee       	ldi	r26, 0xE3	; 227
     8c6:	bf ef       	ldi	r27, 0xFF	; 255
     8c8:	0e 94 ab 32 	call	0x6556	; 0x6556 <__mulhisi3>
     8cc:	c6 0e       	add	r12, r22
     8ce:	d7 1e       	adc	r13, r23
     8d0:	e8 1e       	adc	r14, r24
     8d2:	f9 1e       	adc	r15, r25
    acc += (int32_t)W_hr[1][10] * (int32_t)h_state[10];
     8d4:	21 e1       	ldi	r18, 0x11	; 17
     8d6:	30 e0       	ldi	r19, 0x00	; 0
     8d8:	af 85       	ldd	r26, Y+15	; 0x0f
     8da:	b8 89       	ldd	r27, Y+16	; 0x10
     8dc:	0e 94 c2 32 	call	0x6584	; 0x6584 <__usmulhisi3>
     8e0:	c6 0e       	add	r12, r22
     8e2:	d7 1e       	adc	r13, r23
     8e4:	e8 1e       	adc	r14, r24
     8e6:	f9 1e       	adc	r15, r25
    acc += (int32_t)W_hr[1][11] * (int32_t)h_state[11];
     8e8:	26 e0       	ldi	r18, 0x06	; 6
     8ea:	30 e0       	ldi	r19, 0x00	; 0
     8ec:	a9 8d       	ldd	r26, Y+25	; 0x19
     8ee:	ba 8d       	ldd	r27, Y+26	; 0x1a
     8f0:	0e 94 c2 32 	call	0x6584	; 0x6584 <__usmulhisi3>
     8f4:	c6 0e       	add	r12, r22
     8f6:	d7 1e       	adc	r13, r23
     8f8:	e8 1e       	adc	r14, r24
     8fa:	f9 1e       	adc	r15, r25
    acc += (int32_t)W_hr[1][12] * (int32_t)h_state[12];
     8fc:	98 01       	movw	r18, r16
     8fe:	aa ee       	ldi	r26, 0xEA	; 234
     900:	bf ef       	ldi	r27, 0xFF	; 255
     902:	0e 94 ab 32 	call	0x6556	; 0x6556 <__mulhisi3>
     906:	2b 01       	movw	r4, r22
     908:	3c 01       	movw	r6, r24
     90a:	c4 0c       	add	r12, r4
     90c:	d5 1c       	adc	r13, r5
     90e:	e6 1c       	adc	r14, r6
     910:	f7 1c       	adc	r15, r7
    acc += (int32_t)W_hr[1][13] * (int32_t)h_state[13];
     912:	2f e3       	ldi	r18, 0x3F	; 63
     914:	30 e0       	ldi	r19, 0x00	; 0
     916:	ab 8d       	ldd	r26, Y+27	; 0x1b
     918:	bc 8d       	ldd	r27, Y+28	; 0x1c
     91a:	0e 94 c2 32 	call	0x6584	; 0x6584 <__usmulhisi3>
     91e:	6f a7       	std	Y+47, r22	; 0x2f
     920:	78 ab       	std	Y+48, r23	; 0x30
     922:	89 ab       	std	Y+49, r24	; 0x31
     924:	9a ab       	std	Y+50, r25	; 0x32
     926:	c6 0e       	add	r12, r22
     928:	d7 1e       	adc	r13, r23
     92a:	e8 1e       	adc	r14, r24
     92c:	f9 1e       	adc	r15, r25
    acc += (int32_t)W_hr[1][14] * (int32_t)h_state[14];
     92e:	8b a1       	ldd	r24, Y+35	; 0x23
     930:	9c a1       	ldd	r25, Y+36	; 0x24
     932:	ad a1       	ldd	r26, Y+37	; 0x25
     934:	be a1       	ldd	r27, Y+38	; 0x26
     936:	42 e0       	ldi	r20, 0x02	; 2
     938:	88 0f       	add	r24, r24
     93a:	99 1f       	adc	r25, r25
     93c:	aa 1f       	adc	r26, r26
     93e:	bb 1f       	adc	r27, r27
     940:	4a 95       	dec	r20
     942:	d1 f7       	brne	.-12     	; 0x938 <__LOCK_REGION_LENGTH__+0x538>
     944:	c8 0e       	add	r12, r24
     946:	d9 1e       	adc	r13, r25
     948:	ea 1e       	adc	r14, r26
     94a:	fb 1e       	adc	r15, r27
    acc += (int32_t)W_hr[1][15] * (int32_t)h_state[15];
     94c:	2b 89       	ldd	r18, Y+19	; 0x13
     94e:	3c 89       	ldd	r19, Y+20	; 0x14
     950:	aa ef       	ldi	r26, 0xFA	; 250
     952:	bf ef       	ldi	r27, 0xFF	; 255
     954:	0e 94 ab 32 	call	0x6556	; 0x6556 <__mulhisi3>
     958:	dc 01       	movw	r26, r24
     95a:	cb 01       	movw	r24, r22
     95c:	8c 0d       	add	r24, r12
     95e:	9d 1d       	adc	r25, r13
     960:	ae 1d       	adc	r26, r14
     962:	bf 1d       	adc	r27, r15
    acc >>= FRAC_BITS;
     964:	56 e0       	ldi	r21, 0x06	; 6
     966:	b5 95       	asr	r27
     968:	a7 95       	ror	r26
     96a:	97 95       	ror	r25
     96c:	87 95       	ror	r24
     96e:	5a 95       	dec	r21
     970:	d1 f7       	brne	.-12     	; 0x966 <__LOCK_REGION_LENGTH__+0x566>
static inline int16_t fp_mul(int16_t a, int16_t b) {
    return (int16_t)(((int32_t)a * (int32_t)b) >> FRAC_BITS);
}

static inline int16_t fp_sat32(int32_t v) {
    if (v > FP_MAX) return FP_MAX;
     972:	81 15       	cp	r24, r1
     974:	e0 e8       	ldi	r30, 0x80	; 128
     976:	9e 07       	cpc	r25, r30
     978:	a1 05       	cpc	r26, r1
     97a:	b1 05       	cpc	r27, r1
     97c:	14 f0       	brlt	.+4      	; 0x982 <__LOCK_REGION_LENGTH__+0x582>
     97e:	0c 94 8a 31 	jmp	0x6314	; 0x6314 <__stack+0x4115>
    if (v < FP_MIN) return FP_MIN;
     982:	81 15       	cp	r24, r1
     984:	f0 e8       	ldi	r31, 0x80	; 128
     986:	9f 07       	cpc	r25, r31
     988:	ff ef       	ldi	r31, 0xFF	; 255
     98a:	af 07       	cpc	r26, r31
     98c:	bf 07       	cpc	r27, r31
     98e:	14 f4       	brge	.+4      	; 0x994 <__LOCK_REGION_LENGTH__+0x594>
     990:	0c 94 8e 31 	jmp	0x631c	; 0x631c <__stack+0x411d>
    acc += (int32_t)W_hr[1][12] * (int32_t)h_state[12];
    acc += (int32_t)W_hr[1][13] * (int32_t)h_state[13];
    acc += (int32_t)W_hr[1][14] * (int32_t)h_state[14];
    acc += (int32_t)W_hr[1][15] * (int32_t)h_state[15];
    acc >>= FRAC_BITS;
    r[1] = fp_sigmoid(fp_sat32(acc));
     994:	0e 94 b5 00 	call	0x16a	; 0x16a <_ZL10fp_sigmoidi>
     998:	c7 58       	subi	r28, 0x87	; 135
     99a:	de 4f       	sbci	r29, 0xFE	; 254
     99c:	99 83       	std	Y+1, r25	; 0x01
     99e:	88 83       	st	Y, r24
     9a0:	c9 57       	subi	r28, 0x79	; 121
     9a2:	d1 40       	sbci	r29, 0x01	; 1
    acc += (int32_t)W_ir[2][61] * (int32_t)x[61];
    acc += (int32_t)W_ir[2][62] * (int32_t)x[62];
    acc += (int32_t)W_ir[2][63] * (int32_t)x[63];
    acc >>= FRAC_BITS;
    acc += (int32_t)b_hr[2];
    acc += (int32_t)W_hr[2][0] * (int32_t)h_state[0];
     9a4:	2d e0       	ldi	r18, 0x0D	; 13
     9a6:	30 e0       	ldi	r19, 0x00	; 0
     9a8:	ab 85       	ldd	r26, Y+11	; 0x0b
     9aa:	bc 85       	ldd	r27, Y+12	; 0x0c
     9ac:	0e 94 c2 32 	call	0x6584	; 0x6584 <__usmulhisi3>
     9b0:	4b 01       	movw	r8, r22
     9b2:	5c 01       	movw	r10, r24
     9b4:	2d e9       	ldi	r18, 0x9D	; 157
     9b6:	82 1a       	sub	r8, r18
     9b8:	91 08       	sbc	r9, r1
     9ba:	a1 08       	sbc	r10, r1
     9bc:	b1 08       	sbc	r11, r1
    acc += (int32_t)W_hr[2][1] * (int32_t)h_state[1];
     9be:	2f 81       	ldd	r18, Y+7	; 0x07
     9c0:	38 85       	ldd	r19, Y+8	; 0x08
     9c2:	ad ec       	ldi	r26, 0xCD	; 205
     9c4:	bf ef       	ldi	r27, 0xFF	; 255
     9c6:	0e 94 ab 32 	call	0x6556	; 0x6556 <__mulhisi3>
     9ca:	2f 96       	adiw	r28, 0x0f	; 15
     9cc:	6c af       	std	Y+60, r22	; 0x3c
     9ce:	7d af       	std	Y+61, r23	; 0x3d
     9d0:	8e af       	std	Y+62, r24	; 0x3e
     9d2:	9f af       	std	Y+63, r25	; 0x3f
     9d4:	2f 97       	sbiw	r28, 0x0f	; 15
     9d6:	86 0e       	add	r8, r22
     9d8:	97 1e       	adc	r9, r23
     9da:	a8 1e       	adc	r10, r24
     9dc:	b9 1e       	adc	r11, r25
    acc += (int32_t)W_hr[2][2] * (int32_t)h_state[2];
     9de:	2a e1       	ldi	r18, 0x1A	; 26
     9e0:	30 e0       	ldi	r19, 0x00	; 0
     9e2:	ad 89       	ldd	r26, Y+21	; 0x15
     9e4:	be 89       	ldd	r27, Y+22	; 0x16
     9e6:	0e 94 c2 32 	call	0x6584	; 0x6584 <__usmulhisi3>
     9ea:	eb 96       	adiw	r28, 0x3b	; 59
     9ec:	6c af       	std	Y+60, r22	; 0x3c
     9ee:	7d af       	std	Y+61, r23	; 0x3d
     9f0:	8e af       	std	Y+62, r24	; 0x3e
     9f2:	9f af       	std	Y+63, r25	; 0x3f
     9f4:	eb 97       	sbiw	r28, 0x3b	; 59
     9f6:	86 0e       	add	r8, r22
     9f8:	97 1e       	adc	r9, r23
     9fa:	a8 1e       	adc	r10, r24
     9fc:	b9 1e       	adc	r11, r25
    acc += (int32_t)W_hr[2][3] * (int32_t)h_state[3];
     9fe:	2d e2       	ldi	r18, 0x2D	; 45
     a00:	30 e0       	ldi	r19, 0x00	; 0
     a02:	d1 01       	movw	r26, r2
     a04:	0e 94 c2 32 	call	0x6584	; 0x6584 <__usmulhisi3>
     a08:	86 0e       	add	r8, r22
     a0a:	97 1e       	adc	r9, r23
     a0c:	a8 1e       	adc	r10, r24
     a0e:	b9 1e       	adc	r11, r25
    acc += (int32_t)W_hr[2][4] * (int32_t)h_state[4];
     a10:	23 e1       	ldi	r18, 0x13	; 19
     a12:	30 e0       	ldi	r19, 0x00	; 0
     a14:	ad 81       	ldd	r26, Y+5	; 0x05
     a16:	be 81       	ldd	r27, Y+6	; 0x06
     a18:	0e 94 c2 32 	call	0x6584	; 0x6584 <__usmulhisi3>
     a1c:	ef 96       	adiw	r28, 0x3f	; 63
     a1e:	6c af       	std	Y+60, r22	; 0x3c
     a20:	7d af       	std	Y+61, r23	; 0x3d
     a22:	8e af       	std	Y+62, r24	; 0x3e
     a24:	9f af       	std	Y+63, r25	; 0x3f
     a26:	ef 97       	sbiw	r28, 0x3f	; 63
     a28:	86 0e       	add	r8, r22
     a2a:	97 1e       	adc	r9, r23
     a2c:	a8 1e       	adc	r10, r24
     a2e:	b9 1e       	adc	r11, r25
    acc += (int32_t)W_hr[2][5] * (int32_t)h_state[5];
     a30:	22 e2       	ldi	r18, 0x22	; 34
     a32:	30 e0       	ldi	r19, 0x00	; 0
     a34:	ad 85       	ldd	r26, Y+13	; 0x0d
     a36:	be 85       	ldd	r27, Y+14	; 0x0e
     a38:	0e 94 c2 32 	call	0x6584	; 0x6584 <__usmulhisi3>
     a3c:	86 0e       	add	r8, r22
     a3e:	97 1e       	adc	r9, r23
     a40:	a8 1e       	adc	r10, r24
     a42:	b9 1e       	adc	r11, r25
    acc += (int32_t)W_hr[2][6] * (int32_t)h_state[6];
     a44:	2c e1       	ldi	r18, 0x1C	; 28
     a46:	30 e0       	ldi	r19, 0x00	; 0
     a48:	c9 56       	subi	r28, 0x69	; 105
     a4a:	de 4f       	sbci	r29, 0xFE	; 254
     a4c:	a8 81       	ld	r26, Y
     a4e:	b9 81       	ldd	r27, Y+1	; 0x01
     a50:	c7 59       	subi	r28, 0x97	; 151
     a52:	d1 40       	sbci	r29, 0x01	; 1
     a54:	0e 94 c2 32 	call	0x6584	; 0x6584 <__usmulhisi3>
     a58:	2b 96       	adiw	r28, 0x0b	; 11
     a5a:	6c af       	std	Y+60, r22	; 0x3c
     a5c:	7d af       	std	Y+61, r23	; 0x3d
     a5e:	8e af       	std	Y+62, r24	; 0x3e
     a60:	9f af       	std	Y+63, r25	; 0x3f
     a62:	2b 97       	sbiw	r28, 0x0b	; 11
     a64:	86 0e       	add	r8, r22
     a66:	97 1e       	adc	r9, r23
     a68:	a8 1e       	adc	r10, r24
     a6a:	b9 1e       	adc	r11, r25
    acc += (int32_t)W_hr[2][7] * (int32_t)h_state[7];
     a6c:	29 89       	ldd	r18, Y+17	; 0x11
     a6e:	3a 89       	ldd	r19, Y+18	; 0x12
     a70:	ac ed       	ldi	r26, 0xDC	; 220
     a72:	bf ef       	ldi	r27, 0xFF	; 255
     a74:	0e 94 ab 32 	call	0x6556	; 0x6556 <__mulhisi3>
     a78:	86 0e       	add	r8, r22
     a7a:	97 1e       	adc	r9, r23
     a7c:	a8 1e       	adc	r10, r24
     a7e:	b9 1e       	adc	r11, r25
    acc += (int32_t)W_hr[2][8] * (int32_t)h_state[8];
     a80:	2f 89       	ldd	r18, Y+23	; 0x17
     a82:	38 8d       	ldd	r19, Y+24	; 0x18
     a84:	aa ef       	ldi	r26, 0xFA	; 250
     a86:	bf ef       	ldi	r27, 0xFF	; 255
     a88:	0e 94 ab 32 	call	0x6556	; 0x6556 <__mulhisi3>
     a8c:	86 0e       	add	r8, r22
     a8e:	97 1e       	adc	r9, r23
     a90:	a8 1e       	adc	r10, r24
     a92:	b9 1e       	adc	r11, r25
    acc += (int32_t)W_hr[2][9] * (int32_t)h_state[9];
     a94:	29 85       	ldd	r18, Y+9	; 0x09
     a96:	3a 85       	ldd	r19, Y+10	; 0x0a
     a98:	ad ed       	ldi	r26, 0xDD	; 221
     a9a:	bf ef       	ldi	r27, 0xFF	; 255
     a9c:	0e 94 ab 32 	call	0x6556	; 0x6556 <__mulhisi3>
     aa0:	6b 01       	movw	r12, r22
     aa2:	7c 01       	movw	r14, r24
     aa4:	8c 0c       	add	r8, r12
     aa6:	9d 1c       	adc	r9, r13
     aa8:	ae 1c       	adc	r10, r14
     aaa:	bf 1c       	adc	r11, r15
    acc += (int32_t)W_hr[2][10] * (int32_t)h_state[10];
     aac:	2f 85       	ldd	r18, Y+15	; 0x0f
     aae:	38 89       	ldd	r19, Y+16	; 0x10
     ab0:	ab ee       	ldi	r26, 0xEB	; 235
     ab2:	bf ef       	ldi	r27, 0xFF	; 255
     ab4:	0e 94 ab 32 	call	0x6556	; 0x6556 <__mulhisi3>
     ab8:	86 0e       	add	r8, r22
     aba:	97 1e       	adc	r9, r23
     abc:	a8 1e       	adc	r10, r24
     abe:	b9 1e       	adc	r11, r25
    acc += (int32_t)W_hr[2][11] * (int32_t)h_state[11];
     ac0:	29 8d       	ldd	r18, Y+25	; 0x19
     ac2:	3a 8d       	ldd	r19, Y+26	; 0x1a
     ac4:	aa ef       	ldi	r26, 0xFA	; 250
     ac6:	bf ef       	ldi	r27, 0xFF	; 255
     ac8:	0e 94 ab 32 	call	0x6556	; 0x6556 <__mulhisi3>
     acc:	6f a3       	std	Y+39, r22	; 0x27
     ace:	78 a7       	std	Y+40, r23	; 0x28
     ad0:	89 a7       	std	Y+41, r24	; 0x29
     ad2:	9a a7       	std	Y+42, r25	; 0x2a
     ad4:	86 0e       	add	r8, r22
     ad6:	97 1e       	adc	r9, r23
     ad8:	a8 1e       	adc	r10, r24
     ada:	b9 1e       	adc	r11, r25
    acc += (int32_t)W_hr[2][12] * (int32_t)h_state[12];
     adc:	98 01       	movw	r18, r16
     ade:	a5 ef       	ldi	r26, 0xF5	; 245
     ae0:	bf ef       	ldi	r27, 0xFF	; 255
     ae2:	0e 94 ab 32 	call	0x6556	; 0x6556 <__mulhisi3>
     ae6:	86 0e       	add	r8, r22
     ae8:	97 1e       	adc	r9, r23
     aea:	a8 1e       	adc	r10, r24
     aec:	b9 1e       	adc	r11, r25
    acc += (int32_t)W_hr[2][13] * (int32_t)h_state[13];
     aee:	2b 8d       	ldd	r18, Y+27	; 0x1b
     af0:	3c 8d       	ldd	r19, Y+28	; 0x1c
     af2:	ac ec       	ldi	r26, 0xCC	; 204
     af4:	bf ef       	ldi	r27, 0xFF	; 255
     af6:	0e 94 ab 32 	call	0x6556	; 0x6556 <__mulhisi3>
     afa:	c1 58       	subi	r28, 0x81	; 129
     afc:	df 4f       	sbci	r29, 0xFF	; 255
     afe:	68 83       	st	Y, r22
     b00:	79 83       	std	Y+1, r23	; 0x01
     b02:	8a 83       	std	Y+2, r24	; 0x02
     b04:	9b 83       	std	Y+3, r25	; 0x03
     b06:	cf 57       	subi	r28, 0x7F	; 127
     b08:	d0 40       	sbci	r29, 0x00	; 0
     b0a:	86 0e       	add	r8, r22
     b0c:	97 1e       	adc	r9, r23
     b0e:	a8 1e       	adc	r10, r24
     b10:	b9 1e       	adc	r11, r25
    acc += (int32_t)W_hr[2][14] * (int32_t)h_state[14];
     b12:	2d 8d       	ldd	r18, Y+29	; 0x1d
     b14:	3e 8d       	ldd	r19, Y+30	; 0x1e
     b16:	a7 ef       	ldi	r26, 0xF7	; 247
     b18:	bf ef       	ldi	r27, 0xFF	; 255
     b1a:	0e 94 ab 32 	call	0x6556	; 0x6556 <__mulhisi3>
     b1e:	cd 57       	subi	r28, 0x7D	; 125
     b20:	df 4f       	sbci	r29, 0xFF	; 255
     b22:	68 83       	st	Y, r22
     b24:	79 83       	std	Y+1, r23	; 0x01
     b26:	8a 83       	std	Y+2, r24	; 0x02
     b28:	9b 83       	std	Y+3, r25	; 0x03
     b2a:	c3 58       	subi	r28, 0x83	; 131
     b2c:	d0 40       	sbci	r29, 0x00	; 0
     b2e:	dc 01       	movw	r26, r24
     b30:	cb 01       	movw	r24, r22
     b32:	88 0d       	add	r24, r8
     b34:	99 1d       	adc	r25, r9
     b36:	aa 1d       	adc	r26, r10
     b38:	bb 1d       	adc	r27, r11
     b3a:	89 83       	std	Y+1, r24	; 0x01
     b3c:	9a 83       	std	Y+2, r25	; 0x02
     b3e:	ab 83       	std	Y+3, r26	; 0x03
     b40:	bc 83       	std	Y+4, r27	; 0x04
    acc += (int32_t)W_hr[2][15] * (int32_t)h_state[15];
     b42:	25 e1       	ldi	r18, 0x15	; 21
     b44:	30 e0       	ldi	r19, 0x00	; 0
     b46:	ab 89       	ldd	r26, Y+19	; 0x13
     b48:	bc 89       	ldd	r27, Y+20	; 0x14
     b4a:	0e 94 c2 32 	call	0x6584	; 0x6584 <__usmulhisi3>
     b4e:	4b 01       	movw	r8, r22
     b50:	5c 01       	movw	r10, r24
     b52:	89 81       	ldd	r24, Y+1	; 0x01
     b54:	9a 81       	ldd	r25, Y+2	; 0x02
     b56:	ab 81       	ldd	r26, Y+3	; 0x03
     b58:	bc 81       	ldd	r27, Y+4	; 0x04
     b5a:	88 0d       	add	r24, r8
     b5c:	99 1d       	adc	r25, r9
     b5e:	aa 1d       	adc	r26, r10
     b60:	bb 1d       	adc	r27, r11
    acc >>= FRAC_BITS;
     b62:	36 e0       	ldi	r19, 0x06	; 6
     b64:	b5 95       	asr	r27
     b66:	a7 95       	ror	r26
     b68:	97 95       	ror	r25
     b6a:	87 95       	ror	r24
     b6c:	3a 95       	dec	r19
     b6e:	d1 f7       	brne	.-12     	; 0xb64 <__LOCK_REGION_LENGTH__+0x764>
static inline int16_t fp_mul(int16_t a, int16_t b) {
    return (int16_t)(((int32_t)a * (int32_t)b) >> FRAC_BITS);
}

static inline int16_t fp_sat32(int32_t v) {
    if (v > FP_MAX) return FP_MAX;
     b70:	81 15       	cp	r24, r1
     b72:	e0 e8       	ldi	r30, 0x80	; 128
     b74:	9e 07       	cpc	r25, r30
     b76:	a1 05       	cpc	r26, r1
     b78:	b1 05       	cpc	r27, r1
     b7a:	14 f0       	brlt	.+4      	; 0xb80 <__LOCK_REGION_LENGTH__+0x780>
     b7c:	0c 94 92 31 	jmp	0x6324	; 0x6324 <__stack+0x4125>
    if (v < FP_MIN) return FP_MIN;
     b80:	81 15       	cp	r24, r1
     b82:	f0 e8       	ldi	r31, 0x80	; 128
     b84:	9f 07       	cpc	r25, r31
     b86:	ff ef       	ldi	r31, 0xFF	; 255
     b88:	af 07       	cpc	r26, r31
     b8a:	bf 07       	cpc	r27, r31
     b8c:	14 f4       	brge	.+4      	; 0xb92 <__LOCK_REGION_LENGTH__+0x792>
     b8e:	0c 94 96 31 	jmp	0x632c	; 0x632c <__stack+0x412d>
    acc += (int32_t)W_hr[2][12] * (int32_t)h_state[12];
    acc += (int32_t)W_hr[2][13] * (int32_t)h_state[13];
    acc += (int32_t)W_hr[2][14] * (int32_t)h_state[14];
    acc += (int32_t)W_hr[2][15] * (int32_t)h_state[15];
    acc >>= FRAC_BITS;
    r[2] = fp_sigmoid(fp_sat32(acc));
     b92:	0e 94 b5 00 	call	0x16a	; 0x16a <_ZL10fp_sigmoidi>
     b96:	c5 58       	subi	r28, 0x85	; 133
     b98:	de 4f       	sbci	r29, 0xFE	; 254
     b9a:	99 83       	std	Y+1, r25	; 0x01
     b9c:	88 83       	st	Y, r24
     b9e:	cb 57       	subi	r28, 0x7B	; 123
     ba0:	d1 40       	sbci	r29, 0x01	; 1
    acc += (int32_t)W_ir[3][61] * (int32_t)x[61];
    acc += (int32_t)W_ir[3][62] * (int32_t)x[62];
    acc += (int32_t)W_ir[3][63] * (int32_t)x[63];
    acc >>= FRAC_BITS;
    acc += (int32_t)b_hr[3];
    acc += (int32_t)W_hr[3][0] * (int32_t)h_state[0];
     ba2:	2b 85       	ldd	r18, Y+11	; 0x0b
     ba4:	3c 85       	ldd	r19, Y+12	; 0x0c
     ba6:	a0 ef       	ldi	r26, 0xF0	; 240
     ba8:	bf ef       	ldi	r27, 0xFF	; 255
     baa:	0e 94 ab 32 	call	0x6556	; 0x6556 <__mulhisi3>
     bae:	c5 54       	subi	r28, 0x45	; 69
     bb0:	df 4f       	sbci	r29, 0xFF	; 255
     bb2:	68 83       	st	Y, r22
     bb4:	79 83       	std	Y+1, r23	; 0x01
     bb6:	8a 83       	std	Y+2, r24	; 0x02
     bb8:	9b 83       	std	Y+3, r25	; 0x03
     bba:	cb 5b       	subi	r28, 0xBB	; 187
     bbc:	d0 40       	sbci	r29, 0x00	; 0
     bbe:	9b 01       	movw	r18, r22
     bc0:	ac 01       	movw	r20, r24
     bc2:	23 52       	subi	r18, 0x23	; 35
     bc4:	3f 4f       	sbci	r19, 0xFF	; 255
     bc6:	4f 4f       	sbci	r20, 0xFF	; 255
     bc8:	5f 4f       	sbci	r21, 0xFF	; 255
     bca:	29 83       	std	Y+1, r18	; 0x01
     bcc:	3a 83       	std	Y+2, r19	; 0x02
     bce:	4b 83       	std	Y+3, r20	; 0x03
     bd0:	5c 83       	std	Y+4, r21	; 0x04
    acc += (int32_t)W_hr[3][1] * (int32_t)h_state[1];
     bd2:	2f 81       	ldd	r18, Y+7	; 0x07
     bd4:	38 85       	ldd	r19, Y+8	; 0x08
     bd6:	a4 ed       	ldi	r26, 0xD4	; 212
     bd8:	bf ef       	ldi	r27, 0xFF	; 255
     bda:	0e 94 ab 32 	call	0x6556	; 0x6556 <__mulhisi3>
     bde:	29 81       	ldd	r18, Y+1	; 0x01
     be0:	3a 81       	ldd	r19, Y+2	; 0x02
     be2:	4b 81       	ldd	r20, Y+3	; 0x03
     be4:	5c 81       	ldd	r21, Y+4	; 0x04
     be6:	26 0f       	add	r18, r22
     be8:	37 1f       	adc	r19, r23
     bea:	48 1f       	adc	r20, r24
     bec:	59 1f       	adc	r21, r25
     bee:	29 83       	std	Y+1, r18	; 0x01
     bf0:	3a 83       	std	Y+2, r19	; 0x02
     bf2:	4b 83       	std	Y+3, r20	; 0x03
     bf4:	5c 83       	std	Y+4, r21	; 0x04
    acc += (int32_t)W_hr[3][2] * (int32_t)h_state[2];
     bf6:	26 e3       	ldi	r18, 0x36	; 54
     bf8:	30 e0       	ldi	r19, 0x00	; 0
     bfa:	ad 89       	ldd	r26, Y+21	; 0x15
     bfc:	be 89       	ldd	r27, Y+22	; 0x16
     bfe:	0e 94 c2 32 	call	0x6584	; 0x6584 <__usmulhisi3>
     c02:	6f 96       	adiw	r28, 0x1f	; 31
     c04:	6c af       	std	Y+60, r22	; 0x3c
     c06:	7d af       	std	Y+61, r23	; 0x3d
     c08:	8e af       	std	Y+62, r24	; 0x3e
     c0a:	9f af       	std	Y+63, r25	; 0x3f
     c0c:	6f 97       	sbiw	r28, 0x1f	; 31
     c0e:	29 81       	ldd	r18, Y+1	; 0x01
     c10:	3a 81       	ldd	r19, Y+2	; 0x02
     c12:	4b 81       	ldd	r20, Y+3	; 0x03
     c14:	5c 81       	ldd	r21, Y+4	; 0x04
     c16:	26 0f       	add	r18, r22
     c18:	37 1f       	adc	r19, r23
     c1a:	48 1f       	adc	r20, r24
     c1c:	59 1f       	adc	r21, r25
     c1e:	29 83       	std	Y+1, r18	; 0x01
     c20:	3a 83       	std	Y+2, r19	; 0x02
     c22:	4b 83       	std	Y+3, r20	; 0x03
     c24:	5c 83       	std	Y+4, r21	; 0x04
    acc += (int32_t)W_hr[3][3] * (int32_t)h_state[3];
     c26:	91 01       	movw	r18, r2
     c28:	a9 ec       	ldi	r26, 0xC9	; 201
     c2a:	bf ef       	ldi	r27, 0xFF	; 255
     c2c:	0e 94 ab 32 	call	0x6556	; 0x6556 <__mulhisi3>
     c30:	29 81       	ldd	r18, Y+1	; 0x01
     c32:	3a 81       	ldd	r19, Y+2	; 0x02
     c34:	4b 81       	ldd	r20, Y+3	; 0x03
     c36:	5c 81       	ldd	r21, Y+4	; 0x04
     c38:	26 0f       	add	r18, r22
     c3a:	37 1f       	adc	r19, r23
     c3c:	48 1f       	adc	r20, r24
     c3e:	59 1f       	adc	r21, r25
     c40:	29 83       	std	Y+1, r18	; 0x01
     c42:	3a 83       	std	Y+2, r19	; 0x02
     c44:	4b 83       	std	Y+3, r20	; 0x03
     c46:	5c 83       	std	Y+4, r21	; 0x04
    acc += (int32_t)W_hr[3][4] * (int32_t)h_state[4];
     c48:	2a e2       	ldi	r18, 0x2A	; 42
     c4a:	30 e0       	ldi	r19, 0x00	; 0
     c4c:	ad 81       	ldd	r26, Y+5	; 0x05
     c4e:	be 81       	ldd	r27, Y+6	; 0x06
     c50:	0e 94 c2 32 	call	0x6584	; 0x6584 <__usmulhisi3>
     c54:	29 81       	ldd	r18, Y+1	; 0x01
     c56:	3a 81       	ldd	r19, Y+2	; 0x02
     c58:	4b 81       	ldd	r20, Y+3	; 0x03
     c5a:	5c 81       	ldd	r21, Y+4	; 0x04
     c5c:	26 0f       	add	r18, r22
     c5e:	37 1f       	adc	r19, r23
     c60:	48 1f       	adc	r20, r24
     c62:	59 1f       	adc	r21, r25
     c64:	29 83       	std	Y+1, r18	; 0x01
     c66:	3a 83       	std	Y+2, r19	; 0x02
     c68:	4b 83       	std	Y+3, r20	; 0x03
     c6a:	5c 83       	std	Y+4, r21	; 0x04
    acc += (int32_t)W_hr[3][5] * (int32_t)h_state[5];
     c6c:	2d 85       	ldd	r18, Y+13	; 0x0d
     c6e:	3e 85       	ldd	r19, Y+14	; 0x0e
     c70:	ac ec       	ldi	r26, 0xCC	; 204
     c72:	bf ef       	ldi	r27, 0xFF	; 255
     c74:	0e 94 ab 32 	call	0x6556	; 0x6556 <__mulhisi3>
     c78:	cd 51       	subi	r28, 0x1D	; 29
     c7a:	df 4f       	sbci	r29, 0xFF	; 255
     c7c:	68 83       	st	Y, r22
     c7e:	79 83       	std	Y+1, r23	; 0x01
     c80:	8a 83       	std	Y+2, r24	; 0x02
     c82:	9b 83       	std	Y+3, r25	; 0x03
     c84:	c3 5e       	subi	r28, 0xE3	; 227
     c86:	d0 40       	sbci	r29, 0x00	; 0
     c88:	29 81       	ldd	r18, Y+1	; 0x01
     c8a:	3a 81       	ldd	r19, Y+2	; 0x02
     c8c:	4b 81       	ldd	r20, Y+3	; 0x03
     c8e:	5c 81       	ldd	r21, Y+4	; 0x04
     c90:	26 0f       	add	r18, r22
     c92:	37 1f       	adc	r19, r23
     c94:	48 1f       	adc	r20, r24
     c96:	59 1f       	adc	r21, r25
     c98:	29 83       	std	Y+1, r18	; 0x01
     c9a:	3a 83       	std	Y+2, r19	; 0x02
     c9c:	4b 83       	std	Y+3, r20	; 0x03
     c9e:	5c 83       	std	Y+4, r21	; 0x04
    acc += (int32_t)W_hr[3][6] * (int32_t)h_state[6];
     ca0:	c9 56       	subi	r28, 0x69	; 105
     ca2:	de 4f       	sbci	r29, 0xFE	; 254
     ca4:	28 81       	ld	r18, Y
     ca6:	39 81       	ldd	r19, Y+1	; 0x01
     ca8:	c7 59       	subi	r28, 0x97	; 151
     caa:	d1 40       	sbci	r29, 0x01	; 1
     cac:	0e 94 ab 32 	call	0x6556	; 0x6556 <__mulhisi3>
     cb0:	29 81       	ldd	r18, Y+1	; 0x01
     cb2:	3a 81       	ldd	r19, Y+2	; 0x02
     cb4:	4b 81       	ldd	r20, Y+3	; 0x03
     cb6:	5c 81       	ldd	r21, Y+4	; 0x04
     cb8:	26 0f       	add	r18, r22
     cba:	37 1f       	adc	r19, r23
     cbc:	48 1f       	adc	r20, r24
     cbe:	59 1f       	adc	r21, r25
     cc0:	29 83       	std	Y+1, r18	; 0x01
     cc2:	3a 83       	std	Y+2, r19	; 0x02
     cc4:	4b 83       	std	Y+3, r20	; 0x03
     cc6:	5c 83       	std	Y+4, r21	; 0x04
    acc += (int32_t)W_hr[3][7] * (int32_t)h_state[7];
     cc8:	2f e1       	ldi	r18, 0x1F	; 31
     cca:	30 e0       	ldi	r19, 0x00	; 0
     ccc:	a9 89       	ldd	r26, Y+17	; 0x11
     cce:	ba 89       	ldd	r27, Y+18	; 0x12
     cd0:	0e 94 c2 32 	call	0x6584	; 0x6584 <__usmulhisi3>
     cd4:	c9 51       	subi	r28, 0x19	; 25
     cd6:	df 4f       	sbci	r29, 0xFF	; 255
     cd8:	68 83       	st	Y, r22
     cda:	79 83       	std	Y+1, r23	; 0x01
     cdc:	8a 83       	std	Y+2, r24	; 0x02
     cde:	9b 83       	std	Y+3, r25	; 0x03
     ce0:	c7 5e       	subi	r28, 0xE7	; 231
     ce2:	d0 40       	sbci	r29, 0x00	; 0
     ce4:	29 81       	ldd	r18, Y+1	; 0x01
     ce6:	3a 81       	ldd	r19, Y+2	; 0x02
     ce8:	4b 81       	ldd	r20, Y+3	; 0x03
     cea:	5c 81       	ldd	r21, Y+4	; 0x04
     cec:	26 0f       	add	r18, r22
     cee:	37 1f       	adc	r19, r23
     cf0:	48 1f       	adc	r20, r24
     cf2:	59 1f       	adc	r21, r25
     cf4:	29 83       	std	Y+1, r18	; 0x01
     cf6:	3a 83       	std	Y+2, r19	; 0x02
     cf8:	4b 83       	std	Y+3, r20	; 0x03
     cfa:	5c 83       	std	Y+4, r21	; 0x04
    acc += (int32_t)W_hr[3][8] * (int32_t)h_state[8];
     cfc:	28 e2       	ldi	r18, 0x28	; 40
     cfe:	30 e0       	ldi	r19, 0x00	; 0
     d00:	af 89       	ldd	r26, Y+23	; 0x17
     d02:	b8 8d       	ldd	r27, Y+24	; 0x18
     d04:	0e 94 c2 32 	call	0x6584	; 0x6584 <__usmulhisi3>
     d08:	a7 96       	adiw	r28, 0x27	; 39
     d0a:	6c af       	std	Y+60, r22	; 0x3c
     d0c:	7d af       	std	Y+61, r23	; 0x3d
     d0e:	8e af       	std	Y+62, r24	; 0x3e
     d10:	9f af       	std	Y+63, r25	; 0x3f
     d12:	a7 97       	sbiw	r28, 0x27	; 39
     d14:	29 81       	ldd	r18, Y+1	; 0x01
     d16:	3a 81       	ldd	r19, Y+2	; 0x02
     d18:	4b 81       	ldd	r20, Y+3	; 0x03
     d1a:	5c 81       	ldd	r21, Y+4	; 0x04
     d1c:	26 0f       	add	r18, r22
     d1e:	37 1f       	adc	r19, r23
     d20:	48 1f       	adc	r20, r24
     d22:	59 1f       	adc	r21, r25
     d24:	29 83       	std	Y+1, r18	; 0x01
     d26:	3a 83       	std	Y+2, r19	; 0x02
     d28:	4b 83       	std	Y+3, r20	; 0x03
     d2a:	5c 83       	std	Y+4, r21	; 0x04
    acc += (int32_t)W_hr[3][9] * (int32_t)h_state[9];
     d2c:	27 e0       	ldi	r18, 0x07	; 7
     d2e:	30 e0       	ldi	r19, 0x00	; 0
     d30:	a9 85       	ldd	r26, Y+9	; 0x09
     d32:	ba 85       	ldd	r27, Y+10	; 0x0a
     d34:	0e 94 c2 32 	call	0x6584	; 0x6584 <__usmulhisi3>
     d38:	29 81       	ldd	r18, Y+1	; 0x01
     d3a:	3a 81       	ldd	r19, Y+2	; 0x02
     d3c:	4b 81       	ldd	r20, Y+3	; 0x03
     d3e:	5c 81       	ldd	r21, Y+4	; 0x04
     d40:	26 0f       	add	r18, r22
     d42:	37 1f       	adc	r19, r23
     d44:	48 1f       	adc	r20, r24
     d46:	59 1f       	adc	r21, r25
     d48:	29 83       	std	Y+1, r18	; 0x01
     d4a:	3a 83       	std	Y+2, r19	; 0x02
     d4c:	4b 83       	std	Y+3, r20	; 0x03
     d4e:	5c 83       	std	Y+4, r21	; 0x04
    acc += (int32_t)W_hr[3][10] * (int32_t)h_state[10];
     d50:	2b e0       	ldi	r18, 0x0B	; 11
     d52:	30 e0       	ldi	r19, 0x00	; 0
     d54:	af 85       	ldd	r26, Y+15	; 0x0f
     d56:	b8 89       	ldd	r27, Y+16	; 0x10
     d58:	0e 94 c2 32 	call	0x6584	; 0x6584 <__usmulhisi3>
     d5c:	29 81       	ldd	r18, Y+1	; 0x01
     d5e:	3a 81       	ldd	r19, Y+2	; 0x02
     d60:	4b 81       	ldd	r20, Y+3	; 0x03
     d62:	5c 81       	ldd	r21, Y+4	; 0x04
     d64:	26 0f       	add	r18, r22
     d66:	37 1f       	adc	r19, r23
     d68:	48 1f       	adc	r20, r24
     d6a:	59 1f       	adc	r21, r25
    acc += (int32_t)W_hr[3][11] * (int32_t)h_state[11];
     d6c:	8f a9       	ldd	r24, Y+55	; 0x37
     d6e:	98 ad       	ldd	r25, Y+56	; 0x38
     d70:	a9 ad       	ldd	r26, Y+57	; 0x39
     d72:	ba ad       	ldd	r27, Y+58	; 0x3a
     d74:	f3 e0       	ldi	r31, 0x03	; 3
     d76:	88 0f       	add	r24, r24
     d78:	99 1f       	adc	r25, r25
     d7a:	aa 1f       	adc	r26, r26
     d7c:	bb 1f       	adc	r27, r27
     d7e:	fa 95       	dec	r31
     d80:	d1 f7       	brne	.-12     	; 0xd76 <__LOCK_REGION_LENGTH__+0x976>
     d82:	82 0f       	add	r24, r18
     d84:	93 1f       	adc	r25, r19
     d86:	a4 1f       	adc	r26, r20
     d88:	b5 1f       	adc	r27, r21
    acc += (int32_t)W_hr[3][12] * (int32_t)h_state[12];
     d8a:	48 0e       	add	r4, r24
     d8c:	59 1e       	adc	r5, r25
     d8e:	6a 1e       	adc	r6, r26
     d90:	7b 1e       	adc	r7, r27
    acc += (int32_t)W_hr[3][13] * (int32_t)h_state[13];
     d92:	2b 8d       	ldd	r18, Y+27	; 0x1b
     d94:	3c 8d       	ldd	r19, Y+28	; 0x1c
     d96:	a0 ed       	ldi	r26, 0xD0	; 208
     d98:	bf ef       	ldi	r27, 0xFF	; 255
     d9a:	0e 94 ab 32 	call	0x6556	; 0x6556 <__mulhisi3>
     d9e:	46 0e       	add	r4, r22
     da0:	57 1e       	adc	r5, r23
     da2:	68 1e       	adc	r6, r24
     da4:	79 1e       	adc	r7, r25
    acc += (int32_t)W_hr[3][14] * (int32_t)h_state[14];
     da6:	2d 8d       	ldd	r18, Y+29	; 0x1d
     da8:	3e 8d       	ldd	r19, Y+30	; 0x1e
     daa:	ad ee       	ldi	r26, 0xED	; 237
     dac:	bf ef       	ldi	r27, 0xFF	; 255
     dae:	0e 94 ab 32 	call	0x6556	; 0x6556 <__mulhisi3>
     db2:	dc 01       	movw	r26, r24
     db4:	cb 01       	movw	r24, r22
     db6:	84 0d       	add	r24, r4
     db8:	95 1d       	adc	r25, r5
     dba:	a6 1d       	adc	r26, r6
     dbc:	b7 1d       	adc	r27, r7
    acc += (int32_t)W_hr[3][15] * (int32_t)h_state[15];
     dbe:	88 0d       	add	r24, r8
     dc0:	99 1d       	adc	r25, r9
     dc2:	aa 1d       	adc	r26, r10
     dc4:	bb 1d       	adc	r27, r11
    acc >>= FRAC_BITS;
     dc6:	26 e0       	ldi	r18, 0x06	; 6
     dc8:	b5 95       	asr	r27
     dca:	a7 95       	ror	r26
     dcc:	97 95       	ror	r25
     dce:	87 95       	ror	r24
     dd0:	2a 95       	dec	r18
     dd2:	d1 f7       	brne	.-12     	; 0xdc8 <__LOCK_REGION_LENGTH__+0x9c8>
static inline int16_t fp_mul(int16_t a, int16_t b) {
    return (int16_t)(((int32_t)a * (int32_t)b) >> FRAC_BITS);
}

static inline int16_t fp_sat32(int32_t v) {
    if (v > FP_MAX) return FP_MAX;
     dd4:	81 15       	cp	r24, r1
     dd6:	30 e8       	ldi	r19, 0x80	; 128
     dd8:	93 07       	cpc	r25, r19
     dda:	a1 05       	cpc	r26, r1
     ddc:	b1 05       	cpc	r27, r1
     dde:	14 f0       	brlt	.+4      	; 0xde4 <__LOCK_REGION_LENGTH__+0x9e4>
     de0:	0c 94 9a 31 	jmp	0x6334	; 0x6334 <__stack+0x4135>
    if (v < FP_MIN) return FP_MIN;
     de4:	81 15       	cp	r24, r1
     de6:	40 e8       	ldi	r20, 0x80	; 128
     de8:	94 07       	cpc	r25, r20
     dea:	4f ef       	ldi	r20, 0xFF	; 255
     dec:	a4 07       	cpc	r26, r20
     dee:	b4 07       	cpc	r27, r20
     df0:	14 f4       	brge	.+4      	; 0xdf6 <__LOCK_REGION_LENGTH__+0x9f6>
     df2:	0c 94 9e 31 	jmp	0x633c	; 0x633c <__stack+0x413d>
    acc += (int32_t)W_hr[3][12] * (int32_t)h_state[12];
    acc += (int32_t)W_hr[3][13] * (int32_t)h_state[13];
    acc += (int32_t)W_hr[3][14] * (int32_t)h_state[14];
    acc += (int32_t)W_hr[3][15] * (int32_t)h_state[15];
    acc >>= FRAC_BITS;
    r[3] = fp_sigmoid(fp_sat32(acc));
     df6:	0e 94 b5 00 	call	0x16a	; 0x16a <_ZL10fp_sigmoidi>
     dfa:	c3 58       	subi	r28, 0x83	; 131
     dfc:	de 4f       	sbci	r29, 0xFE	; 254
     dfe:	99 83       	std	Y+1, r25	; 0x01
     e00:	88 83       	st	Y, r24
     e02:	cd 57       	subi	r28, 0x7D	; 125
     e04:	d1 40       	sbci	r29, 0x01	; 1
    acc += (int32_t)W_ir[4][61] * (int32_t)x[61];
    acc += (int32_t)W_ir[4][62] * (int32_t)x[62];
    acc += (int32_t)W_ir[4][63] * (int32_t)x[63];
    acc >>= FRAC_BITS;
    acc += (int32_t)b_hr[4];
    acc += (int32_t)W_hr[4][0] * (int32_t)h_state[0];
     e06:	8b 85       	ldd	r24, Y+11	; 0x0b
     e08:	9c 85       	ldd	r25, Y+12	; 0x0c
     e0a:	09 2e       	mov	r0, r25
     e0c:	00 0c       	add	r0, r0
     e0e:	aa 0b       	sbc	r26, r26
     e10:	bb 0b       	sbc	r27, r27
     e12:	8b ab       	std	Y+51, r24	; 0x33
     e14:	9c ab       	std	Y+52, r25	; 0x34
     e16:	ad ab       	std	Y+53, r26	; 0x35
     e18:	be ab       	std	Y+54, r27	; 0x36
     e1a:	4c 01       	movw	r8, r24
     e1c:	5d 01       	movw	r10, r26
     e1e:	75 e0       	ldi	r23, 0x05	; 5
     e20:	88 0c       	add	r8, r8
     e22:	99 1c       	adc	r9, r9
     e24:	aa 1c       	adc	r10, r10
     e26:	bb 1c       	adc	r11, r11
     e28:	7a 95       	dec	r23
     e2a:	d1 f7       	brne	.-12     	; 0xe20 <__LOCK_REGION_LENGTH__+0xa20>
     e2c:	96 e1       	ldi	r25, 0x16	; 22
     e2e:	89 0e       	add	r8, r25
     e30:	91 1c       	adc	r9, r1
     e32:	a1 1c       	adc	r10, r1
     e34:	b1 1c       	adc	r11, r1
    acc += (int32_t)W_hr[4][1] * (int32_t)h_state[1];
     e36:	2f e2       	ldi	r18, 0x2F	; 47
     e38:	30 e0       	ldi	r19, 0x00	; 0
     e3a:	af 81       	ldd	r26, Y+7	; 0x07
     e3c:	b8 85       	ldd	r27, Y+8	; 0x08
     e3e:	0e 94 c2 32 	call	0x6584	; 0x6584 <__usmulhisi3>
     e42:	a3 96       	adiw	r28, 0x23	; 35
     e44:	6c af       	std	Y+60, r22	; 0x3c
     e46:	7d af       	std	Y+61, r23	; 0x3d
     e48:	8e af       	std	Y+62, r24	; 0x3e
     e4a:	9f af       	std	Y+63, r25	; 0x3f
     e4c:	a3 97       	sbiw	r28, 0x23	; 35
     e4e:	86 0e       	add	r8, r22
     e50:	97 1e       	adc	r9, r23
     e52:	a8 1e       	adc	r10, r24
     e54:	b9 1e       	adc	r11, r25
    acc += (int32_t)W_hr[4][2] * (int32_t)h_state[2];
     e56:	2c e1       	ldi	r18, 0x1C	; 28
     e58:	30 e0       	ldi	r19, 0x00	; 0
     e5a:	ad 89       	ldd	r26, Y+21	; 0x15
     e5c:	be 89       	ldd	r27, Y+22	; 0x16
     e5e:	0e 94 c2 32 	call	0x6584	; 0x6584 <__usmulhisi3>
     e62:	86 0e       	add	r8, r22
     e64:	97 1e       	adc	r9, r23
     e66:	a8 1e       	adc	r10, r24
     e68:	b9 1e       	adc	r11, r25
    acc += (int32_t)W_hr[4][3] * (int32_t)h_state[3];
     e6a:	2c e3       	ldi	r18, 0x3C	; 60
     e6c:	30 e0       	ldi	r19, 0x00	; 0
     e6e:	d1 01       	movw	r26, r2
     e70:	0e 94 c2 32 	call	0x6584	; 0x6584 <__usmulhisi3>
     e74:	86 0e       	add	r8, r22
     e76:	97 1e       	adc	r9, r23
     e78:	a8 1e       	adc	r10, r24
     e7a:	b9 1e       	adc	r11, r25
    acc += (int32_t)W_hr[4][4] * (int32_t)h_state[4];
     e7c:	2d e0       	ldi	r18, 0x0D	; 13
     e7e:	30 e0       	ldi	r19, 0x00	; 0
     e80:	ad 81       	ldd	r26, Y+5	; 0x05
     e82:	be 81       	ldd	r27, Y+6	; 0x06
     e84:	0e 94 c2 32 	call	0x6584	; 0x6584 <__usmulhisi3>
     e88:	23 96       	adiw	r28, 0x03	; 3
     e8a:	6c af       	std	Y+60, r22	; 0x3c
     e8c:	7d af       	std	Y+61, r23	; 0x3d
     e8e:	8e af       	std	Y+62, r24	; 0x3e
     e90:	9f af       	std	Y+63, r25	; 0x3f
     e92:	23 97       	sbiw	r28, 0x03	; 3
     e94:	86 0e       	add	r8, r22
     e96:	97 1e       	adc	r9, r23
     e98:	a8 1e       	adc	r10, r24
     e9a:	b9 1e       	adc	r11, r25
    acc += (int32_t)W_hr[4][5] * (int32_t)h_state[5];
     e9c:	2d 85       	ldd	r18, Y+13	; 0x0d
     e9e:	3e 85       	ldd	r19, Y+14	; 0x0e
     ea0:	ad ee       	ldi	r26, 0xED	; 237
     ea2:	bf ef       	ldi	r27, 0xFF	; 255
     ea4:	0e 94 ab 32 	call	0x6556	; 0x6556 <__mulhisi3>
     ea8:	86 0e       	add	r8, r22
     eaa:	97 1e       	adc	r9, r23
     eac:	a8 1e       	adc	r10, r24
     eae:	b9 1e       	adc	r11, r25
    acc += (int32_t)W_hr[4][6] * (int32_t)h_state[6];
     eb0:	2a e0       	ldi	r18, 0x0A	; 10
     eb2:	30 e0       	ldi	r19, 0x00	; 0
     eb4:	c9 56       	subi	r28, 0x69	; 105
     eb6:	de 4f       	sbci	r29, 0xFE	; 254
     eb8:	a8 81       	ld	r26, Y
     eba:	b9 81       	ldd	r27, Y+1	; 0x01
     ebc:	c7 59       	subi	r28, 0x97	; 151
     ebe:	d1 40       	sbci	r29, 0x01	; 1
     ec0:	0e 94 c2 32 	call	0x6584	; 0x6584 <__usmulhisi3>
     ec4:	86 0e       	add	r8, r22
     ec6:	97 1e       	adc	r9, r23
     ec8:	a8 1e       	adc	r10, r24
     eca:	b9 1e       	adc	r11, r25
    acc += (int32_t)W_hr[4][7] * (int32_t)h_state[7];
     ecc:	29 89       	ldd	r18, Y+17	; 0x11
     ece:	3a 89       	ldd	r19, Y+18	; 0x12
     ed0:	ab ed       	ldi	r26, 0xDB	; 219
     ed2:	bf ef       	ldi	r27, 0xFF	; 255
     ed4:	0e 94 ab 32 	call	0x6556	; 0x6556 <__mulhisi3>
     ed8:	c5 51       	subi	r28, 0x15	; 21
     eda:	df 4f       	sbci	r29, 0xFF	; 255
     edc:	68 83       	st	Y, r22
     ede:	79 83       	std	Y+1, r23	; 0x01
     ee0:	8a 83       	std	Y+2, r24	; 0x02
     ee2:	9b 83       	std	Y+3, r25	; 0x03
     ee4:	cb 5e       	subi	r28, 0xEB	; 235
     ee6:	d0 40       	sbci	r29, 0x00	; 0
     ee8:	86 0e       	add	r8, r22
     eea:	97 1e       	adc	r9, r23
     eec:	a8 1e       	adc	r10, r24
     eee:	b9 1e       	adc	r11, r25
    acc += (int32_t)W_hr[4][8] * (int32_t)h_state[8];
     ef0:	24 e1       	ldi	r18, 0x14	; 20
     ef2:	30 e0       	ldi	r19, 0x00	; 0
     ef4:	af 89       	ldd	r26, Y+23	; 0x17
     ef6:	b8 8d       	ldd	r27, Y+24	; 0x18
     ef8:	0e 94 c2 32 	call	0x6584	; 0x6584 <__usmulhisi3>
     efc:	c9 57       	subi	r28, 0x79	; 121
     efe:	df 4f       	sbci	r29, 0xFF	; 255
     f00:	68 83       	st	Y, r22
     f02:	79 83       	std	Y+1, r23	; 0x01
     f04:	8a 83       	std	Y+2, r24	; 0x02
     f06:	9b 83       	std	Y+3, r25	; 0x03
     f08:	c7 58       	subi	r28, 0x87	; 135
     f0a:	d0 40       	sbci	r29, 0x00	; 0
     f0c:	86 0e       	add	r8, r22
     f0e:	97 1e       	adc	r9, r23
     f10:	a8 1e       	adc	r10, r24
     f12:	b9 1e       	adc	r11, r25
    acc += (int32_t)W_hr[4][9] * (int32_t)h_state[9];
     f14:	c8 0c       	add	r12, r8
     f16:	d9 1c       	adc	r13, r9
     f18:	ea 1c       	adc	r14, r10
     f1a:	fb 1c       	adc	r15, r11
    acc += (int32_t)W_hr[4][10] * (int32_t)h_state[10];
     f1c:	2f 85       	ldd	r18, Y+15	; 0x0f
     f1e:	38 89       	ldd	r19, Y+16	; 0x10
     f20:	ae ec       	ldi	r26, 0xCE	; 206
     f22:	bf ef       	ldi	r27, 0xFF	; 255
     f24:	0e 94 ab 32 	call	0x6556	; 0x6556 <__mulhisi3>
     f28:	c6 0e       	add	r12, r22
     f2a:	d7 1e       	adc	r13, r23
     f2c:	e8 1e       	adc	r14, r24
     f2e:	f9 1e       	adc	r15, r25
    acc += (int32_t)W_hr[4][11] * (int32_t)h_state[11];
     f30:	2c e2       	ldi	r18, 0x2C	; 44
     f32:	30 e0       	ldi	r19, 0x00	; 0
     f34:	a9 8d       	ldd	r26, Y+25	; 0x19
     f36:	ba 8d       	ldd	r27, Y+26	; 0x1a
     f38:	0e 94 c2 32 	call	0x6584	; 0x6584 <__usmulhisi3>
     f3c:	c6 0e       	add	r12, r22
     f3e:	d7 1e       	adc	r13, r23
     f40:	e8 1e       	adc	r14, r24
     f42:	f9 1e       	adc	r15, r25
    acc += (int32_t)W_hr[4][12] * (int32_t)h_state[12];
     f44:	98 01       	movw	r18, r16
     f46:	af ee       	ldi	r26, 0xEF	; 239
     f48:	bf ef       	ldi	r27, 0xFF	; 255
     f4a:	0e 94 ab 32 	call	0x6556	; 0x6556 <__mulhisi3>
     f4e:	c6 0e       	add	r12, r22
     f50:	d7 1e       	adc	r13, r23
     f52:	e8 1e       	adc	r14, r24
     f54:	f9 1e       	adc	r15, r25
    acc += (int32_t)W_hr[4][13] * (int32_t)h_state[13];
     f56:	22 e2       	ldi	r18, 0x22	; 34
     f58:	30 e0       	ldi	r19, 0x00	; 0
     f5a:	ab 8d       	ldd	r26, Y+27	; 0x1b
     f5c:	bc 8d       	ldd	r27, Y+28	; 0x1c
     f5e:	0e 94 c2 32 	call	0x6584	; 0x6584 <__usmulhisi3>
     f62:	c5 57       	subi	r28, 0x75	; 117
     f64:	df 4f       	sbci	r29, 0xFF	; 255
     f66:	68 83       	st	Y, r22
     f68:	79 83       	std	Y+1, r23	; 0x01
     f6a:	8a 83       	std	Y+2, r24	; 0x02
     f6c:	9b 83       	std	Y+3, r25	; 0x03
     f6e:	cb 58       	subi	r28, 0x8B	; 139
     f70:	d0 40       	sbci	r29, 0x00	; 0
     f72:	c6 0e       	add	r12, r22
     f74:	d7 1e       	adc	r13, r23
     f76:	e8 1e       	adc	r14, r24
     f78:	f9 1e       	adc	r15, r25
    acc += (int32_t)W_hr[4][14] * (int32_t)h_state[14];
     f7a:	29 e0       	ldi	r18, 0x09	; 9
     f7c:	30 e0       	ldi	r19, 0x00	; 0
     f7e:	ad 8d       	ldd	r26, Y+29	; 0x1d
     f80:	be 8d       	ldd	r27, Y+30	; 0x1e
     f82:	0e 94 c2 32 	call	0x6584	; 0x6584 <__usmulhisi3>
     f86:	c6 0e       	add	r12, r22
     f88:	d7 1e       	adc	r13, r23
     f8a:	e8 1e       	adc	r14, r24
     f8c:	f9 1e       	adc	r15, r25
    acc += (int32_t)W_hr[4][15] * (int32_t)h_state[15];
     f8e:	27 e2       	ldi	r18, 0x27	; 39
     f90:	30 e0       	ldi	r19, 0x00	; 0
     f92:	ab 89       	ldd	r26, Y+19	; 0x13
     f94:	bc 89       	ldd	r27, Y+20	; 0x14
     f96:	0e 94 c2 32 	call	0x6584	; 0x6584 <__usmulhisi3>
     f9a:	dc 01       	movw	r26, r24
     f9c:	cb 01       	movw	r24, r22
     f9e:	8c 0d       	add	r24, r12
     fa0:	9d 1d       	adc	r25, r13
     fa2:	ae 1d       	adc	r26, r14
     fa4:	bf 1d       	adc	r27, r15
    acc >>= FRAC_BITS;
     fa6:	e6 e0       	ldi	r30, 0x06	; 6
     fa8:	b5 95       	asr	r27
     faa:	a7 95       	ror	r26
     fac:	97 95       	ror	r25
     fae:	87 95       	ror	r24
     fb0:	ea 95       	dec	r30
     fb2:	d1 f7       	brne	.-12     	; 0xfa8 <__LOCK_REGION_LENGTH__+0xba8>
static inline int16_t fp_mul(int16_t a, int16_t b) {
    return (int16_t)(((int32_t)a * (int32_t)b) >> FRAC_BITS);
}

static inline int16_t fp_sat32(int32_t v) {
    if (v > FP_MAX) return FP_MAX;
     fb4:	81 15       	cp	r24, r1
     fb6:	e0 e8       	ldi	r30, 0x80	; 128
     fb8:	9e 07       	cpc	r25, r30
     fba:	a1 05       	cpc	r26, r1
     fbc:	b1 05       	cpc	r27, r1
     fbe:	14 f0       	brlt	.+4      	; 0xfc4 <__LOCK_REGION_LENGTH__+0xbc4>
     fc0:	0c 94 a2 31 	jmp	0x6344	; 0x6344 <__stack+0x4145>
    if (v < FP_MIN) return FP_MIN;
     fc4:	81 15       	cp	r24, r1
     fc6:	f0 e8       	ldi	r31, 0x80	; 128
     fc8:	9f 07       	cpc	r25, r31
     fca:	ff ef       	ldi	r31, 0xFF	; 255
     fcc:	af 07       	cpc	r26, r31
     fce:	bf 07       	cpc	r27, r31
     fd0:	14 f4       	brge	.+4      	; 0xfd6 <__LOCK_REGION_LENGTH__+0xbd6>
     fd2:	0c 94 a6 31 	jmp	0x634c	; 0x634c <__stack+0x414d>
    acc += (int32_t)W_hr[4][12] * (int32_t)h_state[12];
    acc += (int32_t)W_hr[4][13] * (int32_t)h_state[13];
    acc += (int32_t)W_hr[4][14] * (int32_t)h_state[14];
    acc += (int32_t)W_hr[4][15] * (int32_t)h_state[15];
    acc >>= FRAC_BITS;
    r[4] = fp_sigmoid(fp_sat32(acc));
     fd6:	0e 94 b5 00 	call	0x16a	; 0x16a <_ZL10fp_sigmoidi>
     fda:	c1 58       	subi	r28, 0x81	; 129
     fdc:	de 4f       	sbci	r29, 0xFE	; 254
     fde:	99 83       	std	Y+1, r25	; 0x01
     fe0:	88 83       	st	Y, r24
     fe2:	cf 57       	subi	r28, 0x7F	; 127
     fe4:	d1 40       	sbci	r29, 0x01	; 1
    acc += (int32_t)W_ir[5][61] * (int32_t)x[61];
    acc += (int32_t)W_ir[5][62] * (int32_t)x[62];
    acc += (int32_t)W_ir[5][63] * (int32_t)x[63];
    acc >>= FRAC_BITS;
    acc += (int32_t)b_hr[5];
    acc += (int32_t)W_hr[5][0] * (int32_t)h_state[0];
     fe6:	2c e2       	ldi	r18, 0x2C	; 44
     fe8:	30 e0       	ldi	r19, 0x00	; 0
     fea:	ab 85       	ldd	r26, Y+11	; 0x0b
     fec:	bc 85       	ldd	r27, Y+12	; 0x0c
     fee:	0e 94 c2 32 	call	0x6584	; 0x6584 <__usmulhisi3>
     ff2:	6b 01       	movw	r12, r22
     ff4:	7c 01       	movw	r14, r24
     ff6:	4b 01       	movw	r8, r22
     ff8:	5c 01       	movw	r10, r24
     ffa:	2b e3       	ldi	r18, 0x3B	; 59
     ffc:	82 0e       	add	r8, r18
     ffe:	91 1c       	adc	r9, r1
    1000:	a1 1c       	adc	r10, r1
    1002:	b1 1c       	adc	r11, r1
    acc += (int32_t)W_hr[5][1] * (int32_t)h_state[1];
    1004:	2d e3       	ldi	r18, 0x3D	; 61
    1006:	30 e0       	ldi	r19, 0x00	; 0
    1008:	af 81       	ldd	r26, Y+7	; 0x07
    100a:	b8 85       	ldd	r27, Y+8	; 0x08
    100c:	0e 94 c2 32 	call	0x6584	; 0x6584 <__usmulhisi3>
    1010:	86 0e       	add	r8, r22
    1012:	97 1e       	adc	r9, r23
    1014:	a8 1e       	adc	r10, r24
    1016:	b9 1e       	adc	r11, r25
    acc += (int32_t)W_hr[5][2] * (int32_t)h_state[2];
    1018:	29 e2       	ldi	r18, 0x29	; 41
    101a:	30 e0       	ldi	r19, 0x00	; 0
    101c:	ad 89       	ldd	r26, Y+21	; 0x15
    101e:	be 89       	ldd	r27, Y+22	; 0x16
    1020:	0e 94 c2 32 	call	0x6584	; 0x6584 <__usmulhisi3>
    1024:	c1 57       	subi	r28, 0x71	; 113
    1026:	df 4f       	sbci	r29, 0xFF	; 255
    1028:	68 83       	st	Y, r22
    102a:	79 83       	std	Y+1, r23	; 0x01
    102c:	8a 83       	std	Y+2, r24	; 0x02
    102e:	9b 83       	std	Y+3, r25	; 0x03
    1030:	cf 58       	subi	r28, 0x8F	; 143
    1032:	d0 40       	sbci	r29, 0x00	; 0
    1034:	86 0e       	add	r8, r22
    1036:	97 1e       	adc	r9, r23
    1038:	a8 1e       	adc	r10, r24
    103a:	b9 1e       	adc	r11, r25
    acc += (int32_t)W_hr[5][3] * (int32_t)h_state[3];
    103c:	2f e0       	ldi	r18, 0x0F	; 15
    103e:	30 e0       	ldi	r19, 0x00	; 0
    1040:	d1 01       	movw	r26, r2
    1042:	0e 94 c2 32 	call	0x6584	; 0x6584 <__usmulhisi3>
    1046:	c1 54       	subi	r28, 0x41	; 65
    1048:	df 4f       	sbci	r29, 0xFF	; 255
    104a:	68 83       	st	Y, r22
    104c:	79 83       	std	Y+1, r23	; 0x01
    104e:	8a 83       	std	Y+2, r24	; 0x02
    1050:	9b 83       	std	Y+3, r25	; 0x03
    1052:	cf 5b       	subi	r28, 0xBF	; 191
    1054:	d0 40       	sbci	r29, 0x00	; 0
    1056:	86 0e       	add	r8, r22
    1058:	97 1e       	adc	r9, r23
    105a:	a8 1e       	adc	r10, r24
    105c:	b9 1e       	adc	r11, r25
    acc += (int32_t)W_hr[5][4] * (int32_t)h_state[4];
    105e:	22 e1       	ldi	r18, 0x12	; 18
    1060:	30 e0       	ldi	r19, 0x00	; 0
    1062:	ad 81       	ldd	r26, Y+5	; 0x05
    1064:	be 81       	ldd	r27, Y+6	; 0x06
    1066:	0e 94 c2 32 	call	0x6584	; 0x6584 <__usmulhisi3>
    106a:	86 0e       	add	r8, r22
    106c:	97 1e       	adc	r9, r23
    106e:	a8 1e       	adc	r10, r24
    1070:	b9 1e       	adc	r11, r25
    acc += (int32_t)W_hr[5][5] * (int32_t)h_state[5];
    1072:	2d 85       	ldd	r18, Y+13	; 0x0d
    1074:	3e 85       	ldd	r19, Y+14	; 0x0e
    1076:	a3 ec       	ldi	r26, 0xC3	; 195
    1078:	bf ef       	ldi	r27, 0xFF	; 255
    107a:	0e 94 ab 32 	call	0x6556	; 0x6556 <__mulhisi3>
    107e:	86 0e       	add	r8, r22
    1080:	97 1e       	adc	r9, r23
    1082:	a8 1e       	adc	r10, r24
    1084:	b9 1e       	adc	r11, r25
    acc += (int32_t)W_hr[5][6] * (int32_t)h_state[6];
    1086:	27 e3       	ldi	r18, 0x37	; 55
    1088:	30 e0       	ldi	r19, 0x00	; 0
    108a:	c9 56       	subi	r28, 0x69	; 105
    108c:	de 4f       	sbci	r29, 0xFE	; 254
    108e:	a8 81       	ld	r26, Y
    1090:	b9 81       	ldd	r27, Y+1	; 0x01
    1092:	c7 59       	subi	r28, 0x97	; 151
    1094:	d1 40       	sbci	r29, 0x01	; 1
    1096:	0e 94 c2 32 	call	0x6584	; 0x6584 <__usmulhisi3>
    109a:	cd 56       	subi	r28, 0x6D	; 109
    109c:	df 4f       	sbci	r29, 0xFF	; 255
    109e:	68 83       	st	Y, r22
    10a0:	79 83       	std	Y+1, r23	; 0x01
    10a2:	8a 83       	std	Y+2, r24	; 0x02
    10a4:	9b 83       	std	Y+3, r25	; 0x03
    10a6:	c3 59       	subi	r28, 0x93	; 147
    10a8:	d0 40       	sbci	r29, 0x00	; 0
    10aa:	86 0e       	add	r8, r22
    10ac:	97 1e       	adc	r9, r23
    10ae:	a8 1e       	adc	r10, r24
    10b0:	b9 1e       	adc	r11, r25
    acc += (int32_t)W_hr[5][7] * (int32_t)h_state[7];
    10b2:	2a e2       	ldi	r18, 0x2A	; 42
    10b4:	30 e0       	ldi	r19, 0x00	; 0
    10b6:	a9 89       	ldd	r26, Y+17	; 0x11
    10b8:	ba 89       	ldd	r27, Y+18	; 0x12
    10ba:	0e 94 c2 32 	call	0x6584	; 0x6584 <__usmulhisi3>
    10be:	86 0e       	add	r8, r22
    10c0:	97 1e       	adc	r9, r23
    10c2:	a8 1e       	adc	r10, r24
    10c4:	b9 1e       	adc	r11, r25
    acc += (int32_t)W_hr[5][8] * (int32_t)h_state[8];
    10c6:	2f 89       	ldd	r18, Y+23	; 0x17
    10c8:	38 8d       	ldd	r19, Y+24	; 0x18
    10ca:	a2 ee       	ldi	r26, 0xE2	; 226
    10cc:	bf ef       	ldi	r27, 0xFF	; 255
    10ce:	0e 94 ab 32 	call	0x6556	; 0x6556 <__mulhisi3>
    10d2:	c9 56       	subi	r28, 0x69	; 105
    10d4:	df 4f       	sbci	r29, 0xFF	; 255
    10d6:	68 83       	st	Y, r22
    10d8:	79 83       	std	Y+1, r23	; 0x01
    10da:	8a 83       	std	Y+2, r24	; 0x02
    10dc:	9b 83       	std	Y+3, r25	; 0x03
    10de:	c7 59       	subi	r28, 0x97	; 151
    10e0:	d0 40       	sbci	r29, 0x00	; 0
    10e2:	86 0e       	add	r8, r22
    10e4:	97 1e       	adc	r9, r23
    10e6:	a8 1e       	adc	r10, r24
    10e8:	b9 1e       	adc	r11, r25
    acc += (int32_t)W_hr[5][9] * (int32_t)h_state[9];
    10ea:	29 85       	ldd	r18, Y+9	; 0x09
    10ec:	3a 85       	ldd	r19, Y+10	; 0x0a
    10ee:	a7 ed       	ldi	r26, 0xD7	; 215
    10f0:	bf ef       	ldi	r27, 0xFF	; 255
    10f2:	0e 94 ab 32 	call	0x6556	; 0x6556 <__mulhisi3>
    10f6:	86 0e       	add	r8, r22
    10f8:	97 1e       	adc	r9, r23
    10fa:	a8 1e       	adc	r10, r24
    10fc:	b9 1e       	adc	r11, r25
    acc += (int32_t)W_hr[5][10] * (int32_t)h_state[10];
    10fe:	2a e1       	ldi	r18, 0x1A	; 26
    1100:	30 e0       	ldi	r19, 0x00	; 0
    1102:	af 85       	ldd	r26, Y+15	; 0x0f
    1104:	b8 89       	ldd	r27, Y+16	; 0x10
    1106:	0e 94 c2 32 	call	0x6584	; 0x6584 <__usmulhisi3>
    110a:	2b 01       	movw	r4, r22
    110c:	3c 01       	movw	r6, r24
    110e:	84 0c       	add	r8, r4
    1110:	95 1c       	adc	r9, r5
    1112:	a6 1c       	adc	r10, r6
    1114:	b7 1c       	adc	r11, r7
    acc += (int32_t)W_hr[5][11] * (int32_t)h_state[11];
    1116:	29 8d       	ldd	r18, Y+25	; 0x19
    1118:	3a 8d       	ldd	r19, Y+26	; 0x1a
    111a:	a8 ee       	ldi	r26, 0xE8	; 232
    111c:	bf ef       	ldi	r27, 0xFF	; 255
    111e:	0e 94 ab 32 	call	0x6556	; 0x6556 <__mulhisi3>
    1122:	86 0e       	add	r8, r22
    1124:	97 1e       	adc	r9, r23
    1126:	a8 1e       	adc	r10, r24
    1128:	b9 1e       	adc	r11, r25
    acc += (int32_t)W_hr[5][12] * (int32_t)h_state[12];
    112a:	98 01       	movw	r18, r16
    112c:	ab ee       	ldi	r26, 0xEB	; 235
    112e:	bf ef       	ldi	r27, 0xFF	; 255
    1130:	0e 94 ab 32 	call	0x6556	; 0x6556 <__mulhisi3>
    1134:	27 96       	adiw	r28, 0x07	; 7
    1136:	6c af       	std	Y+60, r22	; 0x3c
    1138:	7d af       	std	Y+61, r23	; 0x3d
    113a:	8e af       	std	Y+62, r24	; 0x3e
    113c:	9f af       	std	Y+63, r25	; 0x3f
    113e:	27 97       	sbiw	r28, 0x07	; 7
    1140:	86 0e       	add	r8, r22
    1142:	97 1e       	adc	r9, r23
    1144:	a8 1e       	adc	r10, r24
    1146:	b9 1e       	adc	r11, r25
    acc += (int32_t)W_hr[5][13] * (int32_t)h_state[13];
    1148:	2b 8d       	ldd	r18, Y+27	; 0x1b
    114a:	3c 8d       	ldd	r19, Y+28	; 0x1c
    114c:	a1 ec       	ldi	r26, 0xC1	; 193
    114e:	bf ef       	ldi	r27, 0xFF	; 255
    1150:	0e 94 ab 32 	call	0x6556	; 0x6556 <__mulhisi3>
    1154:	86 0e       	add	r8, r22
    1156:	97 1e       	adc	r9, r23
    1158:	a8 1e       	adc	r10, r24
    115a:	b9 1e       	adc	r11, r25
    acc += (int32_t)W_hr[5][14] * (int32_t)h_state[14];
    115c:	2f e2       	ldi	r18, 0x2F	; 47
    115e:	30 e0       	ldi	r19, 0x00	; 0
    1160:	ad 8d       	ldd	r26, Y+29	; 0x1d
    1162:	be 8d       	ldd	r27, Y+30	; 0x1e
    1164:	0e 94 c2 32 	call	0x6584	; 0x6584 <__usmulhisi3>
    1168:	c5 56       	subi	r28, 0x65	; 101
    116a:	df 4f       	sbci	r29, 0xFF	; 255
    116c:	68 83       	st	Y, r22
    116e:	79 83       	std	Y+1, r23	; 0x01
    1170:	8a 83       	std	Y+2, r24	; 0x02
    1172:	9b 83       	std	Y+3, r25	; 0x03
    1174:	cb 59       	subi	r28, 0x9B	; 155
    1176:	d0 40       	sbci	r29, 0x00	; 0
    1178:	86 0e       	add	r8, r22
    117a:	97 1e       	adc	r9, r23
    117c:	a8 1e       	adc	r10, r24
    117e:	b9 1e       	adc	r11, r25
    acc += (int32_t)W_hr[5][15] * (int32_t)h_state[15];
    1180:	67 96       	adiw	r28, 0x17	; 23
    1182:	8c ad       	ldd	r24, Y+60	; 0x3c
    1184:	9d ad       	ldd	r25, Y+61	; 0x3d
    1186:	ae ad       	ldd	r26, Y+62	; 0x3e
    1188:	bf ad       	ldd	r27, Y+63	; 0x3f
    118a:	67 97       	sbiw	r28, 0x17	; 23
    118c:	53 e0       	ldi	r21, 0x03	; 3
    118e:	88 0f       	add	r24, r24
    1190:	99 1f       	adc	r25, r25
    1192:	aa 1f       	adc	r26, r26
    1194:	bb 1f       	adc	r27, r27
    1196:	5a 95       	dec	r21
    1198:	d1 f7       	brne	.-12     	; 0x118e <__LOCK_REGION_LENGTH__+0xd8e>
    119a:	88 0d       	add	r24, r8
    119c:	99 1d       	adc	r25, r9
    119e:	aa 1d       	adc	r26, r10
    11a0:	bb 1d       	adc	r27, r11
    acc >>= FRAC_BITS;
    11a2:	66 e0       	ldi	r22, 0x06	; 6
    11a4:	b5 95       	asr	r27
    11a6:	a7 95       	ror	r26
    11a8:	97 95       	ror	r25
    11aa:	87 95       	ror	r24
    11ac:	6a 95       	dec	r22
    11ae:	d1 f7       	brne	.-12     	; 0x11a4 <__LOCK_REGION_LENGTH__+0xda4>
static inline int16_t fp_mul(int16_t a, int16_t b) {
    return (int16_t)(((int32_t)a * (int32_t)b) >> FRAC_BITS);
}

static inline int16_t fp_sat32(int32_t v) {
    if (v > FP_MAX) return FP_MAX;
    11b0:	81 15       	cp	r24, r1
    11b2:	30 e8       	ldi	r19, 0x80	; 128
    11b4:	93 07       	cpc	r25, r19
    11b6:	a1 05       	cpc	r26, r1
    11b8:	b1 05       	cpc	r27, r1
    11ba:	14 f0       	brlt	.+4      	; 0x11c0 <__LOCK_REGION_LENGTH__+0xdc0>
    11bc:	0c 94 aa 31 	jmp	0x6354	; 0x6354 <__stack+0x4155>
    if (v < FP_MIN) return FP_MIN;
    11c0:	81 15       	cp	r24, r1
    11c2:	40 e8       	ldi	r20, 0x80	; 128
    11c4:	94 07       	cpc	r25, r20
    11c6:	4f ef       	ldi	r20, 0xFF	; 255
    11c8:	a4 07       	cpc	r26, r20
    11ca:	b4 07       	cpc	r27, r20
    11cc:	14 f4       	brge	.+4      	; 0x11d2 <__LOCK_REGION_LENGTH__+0xdd2>
    11ce:	0c 94 ae 31 	jmp	0x635c	; 0x635c <__stack+0x415d>
    acc += (int32_t)W_hr[5][12] * (int32_t)h_state[12];
    acc += (int32_t)W_hr[5][13] * (int32_t)h_state[13];
    acc += (int32_t)W_hr[5][14] * (int32_t)h_state[14];
    acc += (int32_t)W_hr[5][15] * (int32_t)h_state[15];
    acc >>= FRAC_BITS;
    r[5] = fp_sigmoid(fp_sat32(acc));
    11d2:	0e 94 b5 00 	call	0x16a	; 0x16a <_ZL10fp_sigmoidi>
    11d6:	cf 57       	subi	r28, 0x7F	; 127
    11d8:	de 4f       	sbci	r29, 0xFE	; 254
    11da:	99 83       	std	Y+1, r25	; 0x01
    11dc:	88 83       	st	Y, r24
    11de:	c1 58       	subi	r28, 0x81	; 129
    11e0:	d1 40       	sbci	r29, 0x01	; 1
    acc += (int32_t)W_ir[6][61] * (int32_t)x[61];
    acc += (int32_t)W_ir[6][62] * (int32_t)x[62];
    acc += (int32_t)W_ir[6][63] * (int32_t)x[63];
    acc >>= FRAC_BITS;
    acc += (int32_t)b_hr[6];
    acc += (int32_t)W_hr[6][0] * (int32_t)h_state[0];
    11e2:	2b 85       	ldd	r18, Y+11	; 0x0b
    11e4:	3c 85       	ldd	r19, Y+12	; 0x0c
    11e6:	a3 ef       	ldi	r26, 0xF3	; 243
    11e8:	bf ef       	ldi	r27, 0xFF	; 255
    11ea:	0e 94 ab 32 	call	0x6556	; 0x6556 <__mulhisi3>
    11ee:	4b 01       	movw	r8, r22
    11f0:	5c 01       	movw	r10, r24
    11f2:	50 e2       	ldi	r21, 0x20	; 32
    11f4:	85 0e       	add	r8, r21
    11f6:	91 1c       	adc	r9, r1
    11f8:	a1 1c       	adc	r10, r1
    11fa:	b1 1c       	adc	r11, r1
    acc += (int32_t)W_hr[6][1] * (int32_t)h_state[1];
    11fc:	2f 81       	ldd	r18, Y+7	; 0x07
    11fe:	38 85       	ldd	r19, Y+8	; 0x08
    1200:	a2 ed       	ldi	r26, 0xD2	; 210
    1202:	bf ef       	ldi	r27, 0xFF	; 255
    1204:	0e 94 ab 32 	call	0x6556	; 0x6556 <__mulhisi3>
    1208:	86 0e       	add	r8, r22
    120a:	97 1e       	adc	r9, r23
    120c:	a8 1e       	adc	r10, r24
    120e:	b9 1e       	adc	r11, r25
    acc += (int32_t)W_hr[6][2] * (int32_t)h_state[2];
    1210:	21 e1       	ldi	r18, 0x11	; 17
    1212:	30 e0       	ldi	r19, 0x00	; 0
    1214:	ad 89       	ldd	r26, Y+21	; 0x15
    1216:	be 89       	ldd	r27, Y+22	; 0x16
    1218:	0e 94 c2 32 	call	0x6584	; 0x6584 <__usmulhisi3>
    121c:	86 0e       	add	r8, r22
    121e:	97 1e       	adc	r9, r23
    1220:	a8 1e       	adc	r10, r24
    1222:	b9 1e       	adc	r11, r25
    acc += (int32_t)W_hr[6][3] * (int32_t)h_state[3];
    1224:	91 01       	movw	r18, r2
    1226:	a4 ec       	ldi	r26, 0xC4	; 196
    1228:	bf ef       	ldi	r27, 0xFF	; 255
    122a:	0e 94 ab 32 	call	0x6556	; 0x6556 <__mulhisi3>
    122e:	86 0e       	add	r8, r22
    1230:	97 1e       	adc	r9, r23
    1232:	a8 1e       	adc	r10, r24
    1234:	b9 1e       	adc	r11, r25
    acc += (int32_t)W_hr[6][4] * (int32_t)h_state[4];
    1236:	63 96       	adiw	r28, 0x13	; 19
    1238:	8c ad       	ldd	r24, Y+60	; 0x3c
    123a:	9d ad       	ldd	r25, Y+61	; 0x3d
    123c:	ae ad       	ldd	r26, Y+62	; 0x3e
    123e:	bf ad       	ldd	r27, Y+63	; 0x3f
    1240:	63 97       	sbiw	r28, 0x13	; 19
    1242:	35 e0       	ldi	r19, 0x05	; 5
    1244:	88 0f       	add	r24, r24
    1246:	99 1f       	adc	r25, r25
    1248:	aa 1f       	adc	r26, r26
    124a:	bb 1f       	adc	r27, r27
    124c:	3a 95       	dec	r19
    124e:	d1 f7       	brne	.-12     	; 0x1244 <__LOCK_REGION_LENGTH__+0xe44>
    1250:	88 0e       	add	r8, r24
    1252:	99 1e       	adc	r9, r25
    1254:	aa 1e       	adc	r10, r26
    1256:	bb 1e       	adc	r11, r27
    acc += (int32_t)W_hr[6][5] * (int32_t)h_state[5];
    1258:	2d 85       	ldd	r18, Y+13	; 0x0d
    125a:	3e 85       	ldd	r19, Y+14	; 0x0e
    125c:	ac ed       	ldi	r26, 0xDC	; 220
    125e:	bf ef       	ldi	r27, 0xFF	; 255
    1260:	0e 94 ab 32 	call	0x6556	; 0x6556 <__mulhisi3>
    1264:	6b af       	std	Y+59, r22	; 0x3b
    1266:	7c af       	std	Y+60, r23	; 0x3c
    1268:	8d af       	std	Y+61, r24	; 0x3d
    126a:	9e af       	std	Y+62, r25	; 0x3e
    126c:	86 0e       	add	r8, r22
    126e:	97 1e       	adc	r9, r23
    1270:	a8 1e       	adc	r10, r24
    1272:	b9 1e       	adc	r11, r25
    acc += (int32_t)W_hr[6][6] * (int32_t)h_state[6];
    1274:	c9 56       	subi	r28, 0x69	; 105
    1276:	de 4f       	sbci	r29, 0xFE	; 254
    1278:	28 81       	ld	r18, Y
    127a:	39 81       	ldd	r19, Y+1	; 0x01
    127c:	c7 59       	subi	r28, 0x97	; 151
    127e:	d1 40       	sbci	r29, 0x01	; 1
    1280:	a6 ef       	ldi	r26, 0xF6	; 246
    1282:	bf ef       	ldi	r27, 0xFF	; 255
    1284:	0e 94 ab 32 	call	0x6556	; 0x6556 <__mulhisi3>
    1288:	86 0e       	add	r8, r22
    128a:	97 1e       	adc	r9, r23
    128c:	a8 1e       	adc	r10, r24
    128e:	b9 1e       	adc	r11, r25
    acc += (int32_t)W_hr[6][7] * (int32_t)h_state[7];
    1290:	29 89       	ldd	r18, Y+17	; 0x11
    1292:	3a 89       	ldd	r19, Y+18	; 0x12
    1294:	ac ee       	ldi	r26, 0xEC	; 236
    1296:	bf ef       	ldi	r27, 0xFF	; 255
    1298:	0e 94 ab 32 	call	0x6556	; 0x6556 <__mulhisi3>
    129c:	86 0e       	add	r8, r22
    129e:	97 1e       	adc	r9, r23
    12a0:	a8 1e       	adc	r10, r24
    12a2:	b9 1e       	adc	r11, r25
    acc += (int32_t)W_hr[6][8] * (int32_t)h_state[8];
    12a4:	2f 89       	ldd	r18, Y+23	; 0x17
    12a6:	38 8d       	ldd	r19, Y+24	; 0x18
    12a8:	af ee       	ldi	r26, 0xEF	; 239
    12aa:	bf ef       	ldi	r27, 0xFF	; 255
    12ac:	0e 94 ab 32 	call	0x6556	; 0x6556 <__mulhisi3>
    12b0:	86 0e       	add	r8, r22
    12b2:	97 1e       	adc	r9, r23
    12b4:	a8 1e       	adc	r10, r24
    12b6:	b9 1e       	adc	r11, r25
    acc += (int32_t)W_hr[6][9] * (int32_t)h_state[9];
    12b8:	2c e1       	ldi	r18, 0x1C	; 28
    12ba:	30 e0       	ldi	r19, 0x00	; 0
    12bc:	a9 85       	ldd	r26, Y+9	; 0x09
    12be:	ba 85       	ldd	r27, Y+10	; 0x0a
    12c0:	0e 94 c2 32 	call	0x6584	; 0x6584 <__usmulhisi3>
    12c4:	86 0e       	add	r8, r22
    12c6:	97 1e       	adc	r9, r23
    12c8:	a8 1e       	adc	r10, r24
    12ca:	b9 1e       	adc	r11, r25
    acc += (int32_t)W_hr[6][10] * (int32_t)h_state[10];
    12cc:	23 e2       	ldi	r18, 0x23	; 35
    12ce:	30 e0       	ldi	r19, 0x00	; 0
    12d0:	af 85       	ldd	r26, Y+15	; 0x0f
    12d2:	b8 89       	ldd	r27, Y+16	; 0x10
    12d4:	0e 94 c2 32 	call	0x6584	; 0x6584 <__usmulhisi3>
    12d8:	86 0e       	add	r8, r22
    12da:	97 1e       	adc	r9, r23
    12dc:	a8 1e       	adc	r10, r24
    12de:	b9 1e       	adc	r11, r25
    acc += (int32_t)W_hr[6][11] * (int32_t)h_state[11];
    12e0:	29 e0       	ldi	r18, 0x09	; 9
    12e2:	30 e0       	ldi	r19, 0x00	; 0
    12e4:	a9 8d       	ldd	r26, Y+25	; 0x19
    12e6:	ba 8d       	ldd	r27, Y+26	; 0x1a
    12e8:	0e 94 c2 32 	call	0x6584	; 0x6584 <__usmulhisi3>
    12ec:	c1 51       	subi	r28, 0x11	; 17
    12ee:	df 4f       	sbci	r29, 0xFF	; 255
    12f0:	68 83       	st	Y, r22
    12f2:	79 83       	std	Y+1, r23	; 0x01
    12f4:	8a 83       	std	Y+2, r24	; 0x02
    12f6:	9b 83       	std	Y+3, r25	; 0x03
    12f8:	cf 5e       	subi	r28, 0xEF	; 239
    12fa:	d0 40       	sbci	r29, 0x00	; 0
    12fc:	86 0e       	add	r8, r22
    12fe:	97 1e       	adc	r9, r23
    1300:	a8 1e       	adc	r10, r24
    1302:	b9 1e       	adc	r11, r25
    acc += (int32_t)W_hr[6][12] * (int32_t)h_state[12];
    1304:	98 01       	movw	r18, r16
    1306:	ab ec       	ldi	r26, 0xCB	; 203
    1308:	bf ef       	ldi	r27, 0xFF	; 255
    130a:	0e 94 ab 32 	call	0x6556	; 0x6556 <__mulhisi3>
    130e:	cd 50       	subi	r28, 0x0D	; 13
    1310:	df 4f       	sbci	r29, 0xFF	; 255
    1312:	68 83       	st	Y, r22
    1314:	79 83       	std	Y+1, r23	; 0x01
    1316:	8a 83       	std	Y+2, r24	; 0x02
    1318:	9b 83       	std	Y+3, r25	; 0x03
    131a:	c3 5f       	subi	r28, 0xF3	; 243
    131c:	d0 40       	sbci	r29, 0x00	; 0
    131e:	86 0e       	add	r8, r22
    1320:	97 1e       	adc	r9, r23
    1322:	a8 1e       	adc	r10, r24
    1324:	b9 1e       	adc	r11, r25
    acc += (int32_t)W_hr[6][13] * (int32_t)h_state[13];
    1326:	2b 8d       	ldd	r18, Y+27	; 0x1b
    1328:	3c 8d       	ldd	r19, Y+28	; 0x1c
    132a:	a7 ec       	ldi	r26, 0xC7	; 199
    132c:	bf ef       	ldi	r27, 0xFF	; 255
    132e:	0e 94 ab 32 	call	0x6556	; 0x6556 <__mulhisi3>
    1332:	c9 50       	subi	r28, 0x09	; 9
    1334:	df 4f       	sbci	r29, 0xFF	; 255
    1336:	68 83       	st	Y, r22
    1338:	79 83       	std	Y+1, r23	; 0x01
    133a:	8a 83       	std	Y+2, r24	; 0x02
    133c:	9b 83       	std	Y+3, r25	; 0x03
    133e:	c7 5f       	subi	r28, 0xF7	; 247
    1340:	d0 40       	sbci	r29, 0x00	; 0
    1342:	86 0e       	add	r8, r22
    1344:	97 1e       	adc	r9, r23
    1346:	a8 1e       	adc	r10, r24
    1348:	b9 1e       	adc	r11, r25
    acc += (int32_t)W_hr[6][14] * (int32_t)h_state[14];
    134a:	2d 8d       	ldd	r18, Y+29	; 0x1d
    134c:	3e 8d       	ldd	r19, Y+30	; 0x1e
    134e:	a4 ed       	ldi	r26, 0xD4	; 212
    1350:	bf ef       	ldi	r27, 0xFF	; 255
    1352:	0e 94 ab 32 	call	0x6556	; 0x6556 <__mulhisi3>
    1356:	86 0e       	add	r8, r22
    1358:	97 1e       	adc	r9, r23
    135a:	a8 1e       	adc	r10, r24
    135c:	b9 1e       	adc	r11, r25
    acc += (int32_t)W_hr[6][15] * (int32_t)h_state[15];
    135e:	2f e0       	ldi	r18, 0x0F	; 15
    1360:	30 e0       	ldi	r19, 0x00	; 0
    1362:	ab 89       	ldd	r26, Y+19	; 0x13
    1364:	bc 89       	ldd	r27, Y+20	; 0x14
    1366:	0e 94 c2 32 	call	0x6584	; 0x6584 <__usmulhisi3>
    136a:	c1 56       	subi	r28, 0x61	; 97
    136c:	df 4f       	sbci	r29, 0xFF	; 255
    136e:	68 83       	st	Y, r22
    1370:	79 83       	std	Y+1, r23	; 0x01
    1372:	8a 83       	std	Y+2, r24	; 0x02
    1374:	9b 83       	std	Y+3, r25	; 0x03
    1376:	cf 59       	subi	r28, 0x9F	; 159
    1378:	d0 40       	sbci	r29, 0x00	; 0
    137a:	dc 01       	movw	r26, r24
    137c:	cb 01       	movw	r24, r22
    137e:	88 0d       	add	r24, r8
    1380:	99 1d       	adc	r25, r9
    1382:	aa 1d       	adc	r26, r10
    1384:	bb 1d       	adc	r27, r11
    acc >>= FRAC_BITS;
    1386:	46 e0       	ldi	r20, 0x06	; 6
    1388:	b5 95       	asr	r27
    138a:	a7 95       	ror	r26
    138c:	97 95       	ror	r25
    138e:	87 95       	ror	r24
    1390:	4a 95       	dec	r20
    1392:	d1 f7       	brne	.-12     	; 0x1388 <__LOCK_REGION_LENGTH__+0xf88>
static inline int16_t fp_mul(int16_t a, int16_t b) {
    return (int16_t)(((int32_t)a * (int32_t)b) >> FRAC_BITS);
}

static inline int16_t fp_sat32(int32_t v) {
    if (v > FP_MAX) return FP_MAX;
    1394:	81 15       	cp	r24, r1
    1396:	e0 e8       	ldi	r30, 0x80	; 128
    1398:	9e 07       	cpc	r25, r30
    139a:	a1 05       	cpc	r26, r1
    139c:	b1 05       	cpc	r27, r1
    139e:	14 f0       	brlt	.+4      	; 0x13a4 <__LOCK_REGION_LENGTH__+0xfa4>
    13a0:	0c 94 b2 31 	jmp	0x6364	; 0x6364 <__stack+0x4165>
    if (v < FP_MIN) return FP_MIN;
    13a4:	81 15       	cp	r24, r1
    13a6:	f0 e8       	ldi	r31, 0x80	; 128
    13a8:	9f 07       	cpc	r25, r31
    13aa:	ff ef       	ldi	r31, 0xFF	; 255
    13ac:	af 07       	cpc	r26, r31
    13ae:	bf 07       	cpc	r27, r31
    13b0:	14 f4       	brge	.+4      	; 0x13b6 <__LOCK_REGION_LENGTH__+0xfb6>
    13b2:	0c 94 b6 31 	jmp	0x636c	; 0x636c <__stack+0x416d>
    acc += (int32_t)W_hr[6][12] * (int32_t)h_state[12];
    acc += (int32_t)W_hr[6][13] * (int32_t)h_state[13];
    acc += (int32_t)W_hr[6][14] * (int32_t)h_state[14];
    acc += (int32_t)W_hr[6][15] * (int32_t)h_state[15];
    acc >>= FRAC_BITS;
    r[6] = fp_sigmoid(fp_sat32(acc));
    13b6:	0e 94 b5 00 	call	0x16a	; 0x16a <_ZL10fp_sigmoidi>
    13ba:	cd 57       	subi	r28, 0x7D	; 125
    13bc:	de 4f       	sbci	r29, 0xFE	; 254
    13be:	99 83       	std	Y+1, r25	; 0x01
    13c0:	88 83       	st	Y, r24
    13c2:	c3 58       	subi	r28, 0x83	; 131
    13c4:	d1 40       	sbci	r29, 0x01	; 1
    acc += (int32_t)W_ir[7][61] * (int32_t)x[61];
    acc += (int32_t)W_ir[7][62] * (int32_t)x[62];
    acc += (int32_t)W_ir[7][63] * (int32_t)x[63];
    acc >>= FRAC_BITS;
    acc += (int32_t)b_hr[7];
    acc += (int32_t)W_hr[7][0] * (int32_t)h_state[0];
    13c6:	26 e1       	ldi	r18, 0x16	; 22
    13c8:	30 e0       	ldi	r19, 0x00	; 0
    13ca:	ab 85       	ldd	r26, Y+11	; 0x0b
    13cc:	bc 85       	ldd	r27, Y+12	; 0x0c
    13ce:	0e 94 c2 32 	call	0x6584	; 0x6584 <__usmulhisi3>
    13d2:	4b 01       	movw	r8, r22
    13d4:	5c 01       	movw	r10, r24
    13d6:	23 e4       	ldi	r18, 0x43	; 67
    13d8:	82 1a       	sub	r8, r18
    13da:	91 08       	sbc	r9, r1
    13dc:	a1 08       	sbc	r10, r1
    13de:	b1 08       	sbc	r11, r1
    acc += (int32_t)W_hr[7][1] * (int32_t)h_state[1];
    13e0:	2f 81       	ldd	r18, Y+7	; 0x07
    13e2:	38 85       	ldd	r19, Y+8	; 0x08
    13e4:	a3 ee       	ldi	r26, 0xE3	; 227
    13e6:	bf ef       	ldi	r27, 0xFF	; 255
    13e8:	0e 94 ab 32 	call	0x6556	; 0x6556 <__mulhisi3>
    13ec:	86 0e       	add	r8, r22
    13ee:	97 1e       	adc	r9, r23
    13f0:	a8 1e       	adc	r10, r24
    13f2:	b9 1e       	adc	r11, r25
    acc += (int32_t)W_hr[7][2] * (int32_t)h_state[2];
    13f4:	25 e1       	ldi	r18, 0x15	; 21
    13f6:	30 e0       	ldi	r19, 0x00	; 0
    13f8:	ad 89       	ldd	r26, Y+21	; 0x15
    13fa:	be 89       	ldd	r27, Y+22	; 0x16
    13fc:	0e 94 c2 32 	call	0x6584	; 0x6584 <__usmulhisi3>
    1400:	86 0e       	add	r8, r22
    1402:	97 1e       	adc	r9, r23
    1404:	a8 1e       	adc	r10, r24
    1406:	b9 1e       	adc	r11, r25
    acc += (int32_t)W_hr[7][3] * (int32_t)h_state[3];
    1408:	91 01       	movw	r18, r2
    140a:	ae ef       	ldi	r26, 0xFE	; 254
    140c:	bf ef       	ldi	r27, 0xFF	; 255
    140e:	0e 94 ab 32 	call	0x6556	; 0x6556 <__mulhisi3>
    1412:	86 0e       	add	r8, r22
    1414:	97 1e       	adc	r9, r23
    1416:	a8 1e       	adc	r10, r24
    1418:	b9 1e       	adc	r11, r25
    acc += (int32_t)W_hr[7][4] * (int32_t)h_state[4];
    141a:	2d 81       	ldd	r18, Y+5	; 0x05
    141c:	3e 81       	ldd	r19, Y+6	; 0x06
    141e:	a9 ef       	ldi	r26, 0xF9	; 249
    1420:	bf ef       	ldi	r27, 0xFF	; 255
    1422:	0e 94 ab 32 	call	0x6556	; 0x6556 <__mulhisi3>
    1426:	86 0e       	add	r8, r22
    1428:	97 1e       	adc	r9, r23
    142a:	a8 1e       	adc	r10, r24
    142c:	b9 1e       	adc	r11, r25
    acc += (int32_t)W_hr[7][5] * (int32_t)h_state[5];
    142e:	2d 85       	ldd	r18, Y+13	; 0x0d
    1430:	3e 85       	ldd	r19, Y+14	; 0x0e
    1432:	a3 ee       	ldi	r26, 0xE3	; 227
    1434:	bf ef       	ldi	r27, 0xFF	; 255
    1436:	0e 94 ab 32 	call	0x6556	; 0x6556 <__mulhisi3>
    143a:	86 0e       	add	r8, r22
    143c:	97 1e       	adc	r9, r23
    143e:	a8 1e       	adc	r10, r24
    1440:	b9 1e       	adc	r11, r25
    acc += (int32_t)W_hr[7][6] * (int32_t)h_state[6];
    1442:	21 e2       	ldi	r18, 0x21	; 33
    1444:	30 e0       	ldi	r19, 0x00	; 0
    1446:	c9 56       	subi	r28, 0x69	; 105
    1448:	de 4f       	sbci	r29, 0xFE	; 254
    144a:	a8 81       	ld	r26, Y
    144c:	b9 81       	ldd	r27, Y+1	; 0x01
    144e:	c7 59       	subi	r28, 0x97	; 151
    1450:	d1 40       	sbci	r29, 0x01	; 1
    1452:	0e 94 c2 32 	call	0x6584	; 0x6584 <__usmulhisi3>
    1456:	cd 55       	subi	r28, 0x5D	; 93
    1458:	df 4f       	sbci	r29, 0xFF	; 255
    145a:	68 83       	st	Y, r22
    145c:	79 83       	std	Y+1, r23	; 0x01
    145e:	8a 83       	std	Y+2, r24	; 0x02
    1460:	9b 83       	std	Y+3, r25	; 0x03
    1462:	c3 5a       	subi	r28, 0xA3	; 163
    1464:	d0 40       	sbci	r29, 0x00	; 0
    1466:	86 0e       	add	r8, r22
    1468:	97 1e       	adc	r9, r23
    146a:	a8 1e       	adc	r10, r24
    146c:	b9 1e       	adc	r11, r25
    acc += (int32_t)W_hr[7][7] * (int32_t)h_state[7];
    146e:	29 89       	ldd	r18, Y+17	; 0x11
    1470:	3a 89       	ldd	r19, Y+18	; 0x12
    1472:	af ec       	ldi	r26, 0xCF	; 207
    1474:	bf ef       	ldi	r27, 0xFF	; 255
    1476:	0e 94 ab 32 	call	0x6556	; 0x6556 <__mulhisi3>
    147a:	c9 55       	subi	r28, 0x59	; 89
    147c:	df 4f       	sbci	r29, 0xFF	; 255
    147e:	68 83       	st	Y, r22
    1480:	79 83       	std	Y+1, r23	; 0x01
    1482:	8a 83       	std	Y+2, r24	; 0x02
    1484:	9b 83       	std	Y+3, r25	; 0x03
    1486:	c7 5a       	subi	r28, 0xA7	; 167
    1488:	d0 40       	sbci	r29, 0x00	; 0
    148a:	86 0e       	add	r8, r22
    148c:	97 1e       	adc	r9, r23
    148e:	a8 1e       	adc	r10, r24
    1490:	b9 1e       	adc	r11, r25
    acc += (int32_t)W_hr[7][8] * (int32_t)h_state[8];
    1492:	2f 89       	ldd	r18, Y+23	; 0x17
    1494:	38 8d       	ldd	r19, Y+24	; 0x18
    1496:	a7 ef       	ldi	r26, 0xF7	; 247
    1498:	bf ef       	ldi	r27, 0xFF	; 255
    149a:	0e 94 ab 32 	call	0x6556	; 0x6556 <__mulhisi3>
    149e:	86 0e       	add	r8, r22
    14a0:	97 1e       	adc	r9, r23
    14a2:	a8 1e       	adc	r10, r24
    14a4:	b9 1e       	adc	r11, r25
    acc += (int32_t)W_hr[7][9] * (int32_t)h_state[9];
    14a6:	29 85       	ldd	r18, Y+9	; 0x09
    14a8:	3a 85       	ldd	r19, Y+10	; 0x0a
    14aa:	a4 ee       	ldi	r26, 0xE4	; 228
    14ac:	bf ef       	ldi	r27, 0xFF	; 255
    14ae:	0e 94 ab 32 	call	0x6556	; 0x6556 <__mulhisi3>
    14b2:	86 0e       	add	r8, r22
    14b4:	97 1e       	adc	r9, r23
    14b6:	a8 1e       	adc	r10, r24
    14b8:	b9 1e       	adc	r11, r25
    acc += (int32_t)W_hr[7][10] * (int32_t)h_state[10];
    14ba:	27 e1       	ldi	r18, 0x17	; 23
    14bc:	30 e0       	ldi	r19, 0x00	; 0
    14be:	af 85       	ldd	r26, Y+15	; 0x0f
    14c0:	b8 89       	ldd	r27, Y+16	; 0x10
    14c2:	0e 94 c2 32 	call	0x6584	; 0x6584 <__usmulhisi3>
    14c6:	c5 55       	subi	r28, 0x55	; 85
    14c8:	df 4f       	sbci	r29, 0xFF	; 255
    14ca:	68 83       	st	Y, r22
    14cc:	79 83       	std	Y+1, r23	; 0x01
    14ce:	8a 83       	std	Y+2, r24	; 0x02
    14d0:	9b 83       	std	Y+3, r25	; 0x03
    14d2:	cb 5a       	subi	r28, 0xAB	; 171
    14d4:	d0 40       	sbci	r29, 0x00	; 0
    14d6:	86 0e       	add	r8, r22
    14d8:	97 1e       	adc	r9, r23
    14da:	a8 1e       	adc	r10, r24
    14dc:	b9 1e       	adc	r11, r25
    acc += (int32_t)W_hr[7][11] * (int32_t)h_state[11];
    14de:	29 8d       	ldd	r18, Y+25	; 0x19
    14e0:	3a 8d       	ldd	r19, Y+26	; 0x1a
    14e2:	ae ef       	ldi	r26, 0xFE	; 254
    14e4:	bf ef       	ldi	r27, 0xFF	; 255
    14e6:	0e 94 ab 32 	call	0x6556	; 0x6556 <__mulhisi3>
    14ea:	86 0e       	add	r8, r22
    14ec:	97 1e       	adc	r9, r23
    14ee:	a8 1e       	adc	r10, r24
    14f0:	b9 1e       	adc	r11, r25
    acc += (int32_t)W_hr[7][12] * (int32_t)h_state[12];
    14f2:	25 e1       	ldi	r18, 0x15	; 21
    14f4:	30 e0       	ldi	r19, 0x00	; 0
    14f6:	d8 01       	movw	r26, r16
    14f8:	0e 94 c2 32 	call	0x6584	; 0x6584 <__usmulhisi3>
    14fc:	86 0e       	add	r8, r22
    14fe:	97 1e       	adc	r9, r23
    1500:	a8 1e       	adc	r10, r24
    1502:	b9 1e       	adc	r11, r25
    acc += (int32_t)W_hr[7][13] * (int32_t)h_state[13];
    1504:	2b 8d       	ldd	r18, Y+27	; 0x1b
    1506:	3c 8d       	ldd	r19, Y+28	; 0x1c
    1508:	a6 ec       	ldi	r26, 0xC6	; 198
    150a:	bf ef       	ldi	r27, 0xFF	; 255
    150c:	0e 94 ab 32 	call	0x6556	; 0x6556 <__mulhisi3>
    1510:	86 0e       	add	r8, r22
    1512:	97 1e       	adc	r9, r23
    1514:	a8 1e       	adc	r10, r24
    1516:	b9 1e       	adc	r11, r25
    acc += (int32_t)W_hr[7][14] * (int32_t)h_state[14];
    1518:	2d 8d       	ldd	r18, Y+29	; 0x1d
    151a:	3e 8d       	ldd	r19, Y+30	; 0x1e
    151c:	a3 ef       	ldi	r26, 0xF3	; 243
    151e:	bf ef       	ldi	r27, 0xFF	; 255
    1520:	0e 94 ab 32 	call	0x6556	; 0x6556 <__mulhisi3>
    1524:	c5 50       	subi	r28, 0x05	; 5
    1526:	df 4f       	sbci	r29, 0xFF	; 255
    1528:	68 83       	st	Y, r22
    152a:	79 83       	std	Y+1, r23	; 0x01
    152c:	8a 83       	std	Y+2, r24	; 0x02
    152e:	9b 83       	std	Y+3, r25	; 0x03
    1530:	cb 5f       	subi	r28, 0xFB	; 251
    1532:	d0 40       	sbci	r29, 0x00	; 0
    1534:	86 0e       	add	r8, r22
    1536:	97 1e       	adc	r9, r23
    1538:	a8 1e       	adc	r10, r24
    153a:	b9 1e       	adc	r11, r25
    acc += (int32_t)W_hr[7][15] * (int32_t)h_state[15];
    153c:	2d e0       	ldi	r18, 0x0D	; 13
    153e:	30 e0       	ldi	r19, 0x00	; 0
    1540:	ab 89       	ldd	r26, Y+19	; 0x13
    1542:	bc 89       	ldd	r27, Y+20	; 0x14
    1544:	0e 94 c2 32 	call	0x6584	; 0x6584 <__usmulhisi3>
    1548:	c1 50       	subi	r28, 0x01	; 1
    154a:	df 4f       	sbci	r29, 0xFF	; 255
    154c:	68 83       	st	Y, r22
    154e:	79 83       	std	Y+1, r23	; 0x01
    1550:	8a 83       	std	Y+2, r24	; 0x02
    1552:	9b 83       	std	Y+3, r25	; 0x03
    1554:	cf 5f       	subi	r28, 0xFF	; 255
    1556:	d0 40       	sbci	r29, 0x00	; 0
    1558:	dc 01       	movw	r26, r24
    155a:	cb 01       	movw	r24, r22
    155c:	88 0d       	add	r24, r8
    155e:	99 1d       	adc	r25, r9
    1560:	aa 1d       	adc	r26, r10
    1562:	bb 1d       	adc	r27, r11
    acc >>= FRAC_BITS;
    1564:	26 e0       	ldi	r18, 0x06	; 6
    1566:	b5 95       	asr	r27
    1568:	a7 95       	ror	r26
    156a:	97 95       	ror	r25
    156c:	87 95       	ror	r24
    156e:	2a 95       	dec	r18
    1570:	d1 f7       	brne	.-12     	; 0x1566 <__LOCK_REGION_LENGTH__+0x1166>
static inline int16_t fp_mul(int16_t a, int16_t b) {
    return (int16_t)(((int32_t)a * (int32_t)b) >> FRAC_BITS);
}

static inline int16_t fp_sat32(int32_t v) {
    if (v > FP_MAX) return FP_MAX;
    1572:	81 15       	cp	r24, r1
    1574:	30 e8       	ldi	r19, 0x80	; 128
    1576:	93 07       	cpc	r25, r19
    1578:	a1 05       	cpc	r26, r1
    157a:	b1 05       	cpc	r27, r1
    157c:	14 f0       	brlt	.+4      	; 0x1582 <__LOCK_REGION_LENGTH__+0x1182>
    157e:	0c 94 ba 31 	jmp	0x6374	; 0x6374 <__stack+0x4175>
    if (v < FP_MIN) return FP_MIN;
    1582:	81 15       	cp	r24, r1
    1584:	40 e8       	ldi	r20, 0x80	; 128
    1586:	94 07       	cpc	r25, r20
    1588:	4f ef       	ldi	r20, 0xFF	; 255
    158a:	a4 07       	cpc	r26, r20
    158c:	b4 07       	cpc	r27, r20
    158e:	14 f4       	brge	.+4      	; 0x1594 <__LOCK_REGION_LENGTH__+0x1194>
    1590:	0c 94 be 31 	jmp	0x637c	; 0x637c <__stack+0x417d>
    acc += (int32_t)W_hr[7][12] * (int32_t)h_state[12];
    acc += (int32_t)W_hr[7][13] * (int32_t)h_state[13];
    acc += (int32_t)W_hr[7][14] * (int32_t)h_state[14];
    acc += (int32_t)W_hr[7][15] * (int32_t)h_state[15];
    acc >>= FRAC_BITS;
    r[7] = fp_sigmoid(fp_sat32(acc));
    1594:	0e 94 b5 00 	call	0x16a	; 0x16a <_ZL10fp_sigmoidi>
    1598:	cb 57       	subi	r28, 0x7B	; 123
    159a:	de 4f       	sbci	r29, 0xFE	; 254
    159c:	99 83       	std	Y+1, r25	; 0x01
    159e:	88 83       	st	Y, r24
    15a0:	c5 58       	subi	r28, 0x85	; 133
    15a2:	d1 40       	sbci	r29, 0x01	; 1
    acc += (int32_t)W_ir[8][61] * (int32_t)x[61];
    acc += (int32_t)W_ir[8][62] * (int32_t)x[62];
    acc += (int32_t)W_ir[8][63] * (int32_t)x[63];
    acc >>= FRAC_BITS;
    acc += (int32_t)b_hr[8];
    acc += (int32_t)W_hr[8][0] * (int32_t)h_state[0];
    15a4:	2b 85       	ldd	r18, Y+11	; 0x0b
    15a6:	3c 85       	ldd	r19, Y+12	; 0x0c
    15a8:	a1 ec       	ldi	r26, 0xC1	; 193
    15aa:	bf ef       	ldi	r27, 0xFF	; 255
    15ac:	0e 94 ab 32 	call	0x6556	; 0x6556 <__mulhisi3>
    15b0:	cd 5f       	subi	r28, 0xFD	; 253
    15b2:	de 4f       	sbci	r29, 0xFE	; 254
    15b4:	68 83       	st	Y, r22
    15b6:	79 83       	std	Y+1, r23	; 0x01
    15b8:	8a 83       	std	Y+2, r24	; 0x02
    15ba:	9b 83       	std	Y+3, r25	; 0x03
    15bc:	c3 50       	subi	r28, 0x03	; 3
    15be:	d1 40       	sbci	r29, 0x01	; 1
    15c0:	4b 01       	movw	r8, r22
    15c2:	5c 01       	movw	r10, r24
    15c4:	59 e0       	ldi	r21, 0x09	; 9
    15c6:	85 1a       	sub	r8, r21
    15c8:	91 08       	sbc	r9, r1
    15ca:	a1 08       	sbc	r10, r1
    15cc:	b1 08       	sbc	r11, r1
    acc += (int32_t)W_hr[8][1] * (int32_t)h_state[1];
    15ce:	2f 81       	ldd	r18, Y+7	; 0x07
    15d0:	38 85       	ldd	r19, Y+8	; 0x08
    15d2:	a7 ee       	ldi	r26, 0xE7	; 231
    15d4:	bf ef       	ldi	r27, 0xFF	; 255
    15d6:	0e 94 ab 32 	call	0x6556	; 0x6556 <__mulhisi3>
    15da:	86 0e       	add	r8, r22
    15dc:	97 1e       	adc	r9, r23
    15de:	a8 1e       	adc	r10, r24
    15e0:	b9 1e       	adc	r11, r25
    acc += (int32_t)W_hr[8][2] * (int32_t)h_state[2];
    15e2:	2d 89       	ldd	r18, Y+21	; 0x15
    15e4:	3e 89       	ldd	r19, Y+22	; 0x16
    15e6:	ab ed       	ldi	r26, 0xDB	; 219
    15e8:	bf ef       	ldi	r27, 0xFF	; 255
    15ea:	0e 94 ab 32 	call	0x6556	; 0x6556 <__mulhisi3>
    15ee:	86 0e       	add	r8, r22
    15f0:	97 1e       	adc	r9, r23
    15f2:	a8 1e       	adc	r10, r24
    15f4:	b9 1e       	adc	r11, r25
    acc += (int32_t)W_hr[8][3] * (int32_t)h_state[3];
    15f6:	91 01       	movw	r18, r2
    15f8:	a2 ed       	ldi	r26, 0xD2	; 210
    15fa:	bf ef       	ldi	r27, 0xFF	; 255
    15fc:	0e 94 ab 32 	call	0x6556	; 0x6556 <__mulhisi3>
    1600:	86 0e       	add	r8, r22
    1602:	97 1e       	adc	r9, r23
    1604:	a8 1e       	adc	r10, r24
    1606:	b9 1e       	adc	r11, r25
    acc += (int32_t)W_hr[8][4] * (int32_t)h_state[4];
    1608:	2d 81       	ldd	r18, Y+5	; 0x05
    160a:	3e 81       	ldd	r19, Y+6	; 0x06
    160c:	a1 ee       	ldi	r26, 0xE1	; 225
    160e:	bf ef       	ldi	r27, 0xFF	; 255
    1610:	0e 94 ab 32 	call	0x6556	; 0x6556 <__mulhisi3>
    1614:	86 0e       	add	r8, r22
    1616:	97 1e       	adc	r9, r23
    1618:	a8 1e       	adc	r10, r24
    161a:	b9 1e       	adc	r11, r25
    acc += (int32_t)W_hr[8][5] * (int32_t)h_state[5];
    161c:	2d 85       	ldd	r18, Y+13	; 0x0d
    161e:	3e 85       	ldd	r19, Y+14	; 0x0e
    1620:	aa ee       	ldi	r26, 0xEA	; 234
    1622:	bf ef       	ldi	r27, 0xFF	; 255
    1624:	0e 94 ab 32 	call	0x6556	; 0x6556 <__mulhisi3>
    1628:	c9 5f       	subi	r28, 0xF9	; 249
    162a:	de 4f       	sbci	r29, 0xFE	; 254
    162c:	68 83       	st	Y, r22
    162e:	79 83       	std	Y+1, r23	; 0x01
    1630:	8a 83       	std	Y+2, r24	; 0x02
    1632:	9b 83       	std	Y+3, r25	; 0x03
    1634:	c7 50       	subi	r28, 0x07	; 7
    1636:	d1 40       	sbci	r29, 0x01	; 1
    1638:	86 0e       	add	r8, r22
    163a:	97 1e       	adc	r9, r23
    163c:	a8 1e       	adc	r10, r24
    163e:	b9 1e       	adc	r11, r25
    acc += (int32_t)W_hr[8][6] * (int32_t)h_state[6];
    1640:	c9 56       	subi	r28, 0x69	; 105
    1642:	de 4f       	sbci	r29, 0xFE	; 254
    1644:	28 81       	ld	r18, Y
    1646:	39 81       	ldd	r19, Y+1	; 0x01
    1648:	c7 59       	subi	r28, 0x97	; 151
    164a:	d1 40       	sbci	r29, 0x01	; 1
    164c:	a1 ec       	ldi	r26, 0xC1	; 193
    164e:	bf ef       	ldi	r27, 0xFF	; 255
    1650:	0e 94 ab 32 	call	0x6556	; 0x6556 <__mulhisi3>
    1654:	86 0e       	add	r8, r22
    1656:	97 1e       	adc	r9, r23
    1658:	a8 1e       	adc	r10, r24
    165a:	b9 1e       	adc	r11, r25
    acc += (int32_t)W_hr[8][7] * (int32_t)h_state[7];
    165c:	a9 89       	ldd	r26, Y+17	; 0x11
    165e:	ba 89       	ldd	r27, Y+18	; 0x12
    1660:	bd 01       	movw	r22, r26
    1662:	bb 0f       	add	r27, r27
    1664:	88 0b       	sbc	r24, r24
    1666:	99 0b       	sbc	r25, r25
    1668:	e5 e0       	ldi	r30, 0x05	; 5
    166a:	66 0f       	add	r22, r22
    166c:	77 1f       	adc	r23, r23
    166e:	88 1f       	adc	r24, r24
    1670:	99 1f       	adc	r25, r25
    1672:	ea 95       	dec	r30
    1674:	d1 f7       	brne	.-12     	; 0x166a <__LOCK_REGION_LENGTH__+0x126a>
    1676:	9b 01       	movw	r18, r22
    1678:	ac 01       	movw	r20, r24
    167a:	28 0d       	add	r18, r8
    167c:	39 1d       	adc	r19, r9
    167e:	4a 1d       	adc	r20, r10
    1680:	5b 1d       	adc	r21, r11
    1682:	29 83       	std	Y+1, r18	; 0x01
    1684:	3a 83       	std	Y+2, r19	; 0x02
    1686:	4b 83       	std	Y+3, r20	; 0x03
    1688:	5c 83       	std	Y+4, r21	; 0x04
    acc += (int32_t)W_hr[8][8] * (int32_t)h_state[8];
    168a:	2f 89       	ldd	r18, Y+23	; 0x17
    168c:	38 8d       	ldd	r19, Y+24	; 0x18
    168e:	a6 ed       	ldi	r26, 0xD6	; 214
    1690:	bf ef       	ldi	r27, 0xFF	; 255
    1692:	0e 94 ab 32 	call	0x6556	; 0x6556 <__mulhisi3>
    1696:	4b 01       	movw	r8, r22
    1698:	5c 01       	movw	r10, r24
    169a:	89 81       	ldd	r24, Y+1	; 0x01
    169c:	9a 81       	ldd	r25, Y+2	; 0x02
    169e:	ab 81       	ldd	r26, Y+3	; 0x03
    16a0:	bc 81       	ldd	r27, Y+4	; 0x04
    16a2:	88 0d       	add	r24, r8
    16a4:	99 1d       	adc	r25, r9
    16a6:	aa 1d       	adc	r26, r10
    16a8:	bb 1d       	adc	r27, r11
    16aa:	89 83       	std	Y+1, r24	; 0x01
    16ac:	9a 83       	std	Y+2, r25	; 0x02
    16ae:	ab 83       	std	Y+3, r26	; 0x03
    16b0:	bc 83       	std	Y+4, r27	; 0x04
    acc += (int32_t)W_hr[8][9] * (int32_t)h_state[9];
    16b2:	29 85       	ldd	r18, Y+9	; 0x09
    16b4:	3a 85       	ldd	r19, Y+10	; 0x0a
    16b6:	a1 ef       	ldi	r26, 0xF1	; 241
    16b8:	bf ef       	ldi	r27, 0xFF	; 255
    16ba:	0e 94 ab 32 	call	0x6556	; 0x6556 <__mulhisi3>
    16be:	29 81       	ldd	r18, Y+1	; 0x01
    16c0:	3a 81       	ldd	r19, Y+2	; 0x02
    16c2:	4b 81       	ldd	r20, Y+3	; 0x03
    16c4:	5c 81       	ldd	r21, Y+4	; 0x04
    16c6:	62 0f       	add	r22, r18
    16c8:	73 1f       	adc	r23, r19
    16ca:	84 1f       	adc	r24, r20
    16cc:	95 1f       	adc	r25, r21
    acc += (int32_t)W_hr[8][10] * (int32_t)h_state[10];
    16ce:	46 0e       	add	r4, r22
    16d0:	57 1e       	adc	r5, r23
    16d2:	68 1e       	adc	r6, r24
    16d4:	79 1e       	adc	r7, r25
    acc += (int32_t)W_hr[8][11] * (int32_t)h_state[11];
    acc += (int32_t)W_hr[8][12] * (int32_t)h_state[12];
    16d6:	2b e2       	ldi	r18, 0x2B	; 43
    16d8:	30 e0       	ldi	r19, 0x00	; 0
    16da:	d8 01       	movw	r26, r16
    16dc:	0e 94 c2 32 	call	0x6584	; 0x6584 <__usmulhisi3>
    16e0:	46 0e       	add	r4, r22
    16e2:	57 1e       	adc	r5, r23
    16e4:	68 1e       	adc	r6, r24
    16e6:	79 1e       	adc	r7, r25
    acc += (int32_t)W_hr[8][13] * (int32_t)h_state[13];
    16e8:	27 e2       	ldi	r18, 0x27	; 39
    16ea:	30 e0       	ldi	r19, 0x00	; 0
    16ec:	ab 8d       	ldd	r26, Y+27	; 0x1b
    16ee:	bc 8d       	ldd	r27, Y+28	; 0x1c
    16f0:	0e 94 c2 32 	call	0x6584	; 0x6584 <__usmulhisi3>
    16f4:	46 0e       	add	r4, r22
    16f6:	57 1e       	adc	r5, r23
    16f8:	68 1e       	adc	r6, r24
    16fa:	79 1e       	adc	r7, r25
    acc += (int32_t)W_hr[8][14] * (int32_t)h_state[14];
    16fc:	2d 8d       	ldd	r18, Y+29	; 0x1d
    16fe:	3e 8d       	ldd	r19, Y+30	; 0x1e
    1700:	a9 ec       	ldi	r26, 0xC9	; 201
    1702:	bf ef       	ldi	r27, 0xFF	; 255
    1704:	0e 94 ab 32 	call	0x6556	; 0x6556 <__mulhisi3>
    1708:	e3 96       	adiw	r28, 0x33	; 51
    170a:	6c af       	std	Y+60, r22	; 0x3c
    170c:	7d af       	std	Y+61, r23	; 0x3d
    170e:	8e af       	std	Y+62, r24	; 0x3e
    1710:	9f af       	std	Y+63, r25	; 0x3f
    1712:	e3 97       	sbiw	r28, 0x33	; 51
    1714:	46 0e       	add	r4, r22
    1716:	57 1e       	adc	r5, r23
    1718:	68 1e       	adc	r6, r24
    171a:	79 1e       	adc	r7, r25
    acc += (int32_t)W_hr[8][15] * (int32_t)h_state[15];
    171c:	2e e2       	ldi	r18, 0x2E	; 46
    171e:	30 e0       	ldi	r19, 0x00	; 0
    1720:	ab 89       	ldd	r26, Y+19	; 0x13
    1722:	bc 89       	ldd	r27, Y+20	; 0x14
    1724:	0e 94 c2 32 	call	0x6584	; 0x6584 <__usmulhisi3>
    1728:	dc 01       	movw	r26, r24
    172a:	cb 01       	movw	r24, r22
    172c:	84 0d       	add	r24, r4
    172e:	95 1d       	adc	r25, r5
    1730:	a6 1d       	adc	r26, r6
    1732:	b7 1d       	adc	r27, r7
    acc >>= FRAC_BITS;
    1734:	f6 e0       	ldi	r31, 0x06	; 6
    1736:	b5 95       	asr	r27
    1738:	a7 95       	ror	r26
    173a:	97 95       	ror	r25
    173c:	87 95       	ror	r24
    173e:	fa 95       	dec	r31
    1740:	d1 f7       	brne	.-12     	; 0x1736 <__LOCK_REGION_LENGTH__+0x1336>
static inline int16_t fp_mul(int16_t a, int16_t b) {
    return (int16_t)(((int32_t)a * (int32_t)b) >> FRAC_BITS);
}

static inline int16_t fp_sat32(int32_t v) {
    if (v > FP_MAX) return FP_MAX;
    1742:	81 15       	cp	r24, r1
    1744:	30 e8       	ldi	r19, 0x80	; 128
    1746:	93 07       	cpc	r25, r19
    1748:	a1 05       	cpc	r26, r1
    174a:	b1 05       	cpc	r27, r1
    174c:	14 f0       	brlt	.+4      	; 0x1752 <__LOCK_REGION_LENGTH__+0x1352>
    174e:	0c 94 c2 31 	jmp	0x6384	; 0x6384 <__stack+0x4185>
    if (v < FP_MIN) return FP_MIN;
    1752:	81 15       	cp	r24, r1
    1754:	40 e8       	ldi	r20, 0x80	; 128
    1756:	94 07       	cpc	r25, r20
    1758:	4f ef       	ldi	r20, 0xFF	; 255
    175a:	a4 07       	cpc	r26, r20
    175c:	b4 07       	cpc	r27, r20
    175e:	14 f4       	brge	.+4      	; 0x1764 <__LOCK_REGION_LENGTH__+0x1364>
    1760:	0c 94 c6 31 	jmp	0x638c	; 0x638c <__stack+0x418d>
    acc += (int32_t)W_hr[8][12] * (int32_t)h_state[12];
    acc += (int32_t)W_hr[8][13] * (int32_t)h_state[13];
    acc += (int32_t)W_hr[8][14] * (int32_t)h_state[14];
    acc += (int32_t)W_hr[8][15] * (int32_t)h_state[15];
    acc >>= FRAC_BITS;
    r[8] = fp_sigmoid(fp_sat32(acc));
    1764:	0e 94 b5 00 	call	0x16a	; 0x16a <_ZL10fp_sigmoidi>
    1768:	c9 57       	subi	r28, 0x79	; 121
    176a:	de 4f       	sbci	r29, 0xFE	; 254
    176c:	99 83       	std	Y+1, r25	; 0x01
    176e:	88 83       	st	Y, r24
    1770:	c7 58       	subi	r28, 0x87	; 135
    1772:	d1 40       	sbci	r29, 0x01	; 1
    acc += (int32_t)W_ir[9][61] * (int32_t)x[61];
    acc += (int32_t)W_ir[9][62] * (int32_t)x[62];
    acc += (int32_t)W_ir[9][63] * (int32_t)x[63];
    acc >>= FRAC_BITS;
    acc += (int32_t)b_hr[9];
    acc += (int32_t)W_hr[9][0] * (int32_t)h_state[0];
    1774:	2b 85       	ldd	r18, Y+11	; 0x0b
    1776:	3c 85       	ldd	r19, Y+12	; 0x0c
    1778:	a5 ec       	ldi	r26, 0xC5	; 197
    177a:	bf ef       	ldi	r27, 0xFF	; 255
    177c:	0e 94 ab 32 	call	0x6556	; 0x6556 <__mulhisi3>
    1780:	2b 01       	movw	r4, r22
    1782:	3c 01       	movw	r6, r24
    1784:	5a e5       	ldi	r21, 0x5A	; 90
    1786:	45 1a       	sub	r4, r21
    1788:	51 08       	sbc	r5, r1
    178a:	61 08       	sbc	r6, r1
    178c:	71 08       	sbc	r7, r1
    acc += (int32_t)W_hr[9][1] * (int32_t)h_state[1];
    178e:	2f 81       	ldd	r18, Y+7	; 0x07
    1790:	38 85       	ldd	r19, Y+8	; 0x08
    1792:	a2 ec       	ldi	r26, 0xC2	; 194
    1794:	bf ef       	ldi	r27, 0xFF	; 255
    1796:	0e 94 ab 32 	call	0x6556	; 0x6556 <__mulhisi3>
    179a:	46 0e       	add	r4, r22
    179c:	57 1e       	adc	r5, r23
    179e:	68 1e       	adc	r6, r24
    17a0:	79 1e       	adc	r7, r25
    acc += (int32_t)W_hr[9][2] * (int32_t)h_state[2];
    17a2:	6f 96       	adiw	r28, 0x1f	; 31
    17a4:	8c ad       	ldd	r24, Y+60	; 0x3c
    17a6:	9d ad       	ldd	r25, Y+61	; 0x3d
    17a8:	ae ad       	ldd	r26, Y+62	; 0x3e
    17aa:	bf ad       	ldd	r27, Y+63	; 0x3f
    17ac:	6f 97       	sbiw	r28, 0x1f	; 31
    17ae:	48 0e       	add	r4, r24
    17b0:	59 1e       	adc	r5, r25
    17b2:	6a 1e       	adc	r6, r26
    17b4:	7b 1e       	adc	r7, r27
    acc += (int32_t)W_hr[9][3] * (int32_t)h_state[3];
    17b6:	2e e2       	ldi	r18, 0x2E	; 46
    17b8:	30 e0       	ldi	r19, 0x00	; 0
    17ba:	d1 01       	movw	r26, r2
    17bc:	0e 94 c2 32 	call	0x6584	; 0x6584 <__usmulhisi3>
    17c0:	c5 5f       	subi	r28, 0xF5	; 245
    17c2:	de 4f       	sbci	r29, 0xFE	; 254
    17c4:	68 83       	st	Y, r22
    17c6:	79 83       	std	Y+1, r23	; 0x01
    17c8:	8a 83       	std	Y+2, r24	; 0x02
    17ca:	9b 83       	std	Y+3, r25	; 0x03
    17cc:	cb 50       	subi	r28, 0x0B	; 11
    17ce:	d1 40       	sbci	r29, 0x01	; 1
    17d0:	46 0e       	add	r4, r22
    17d2:	57 1e       	adc	r5, r23
    17d4:	68 1e       	adc	r6, r24
    17d6:	79 1e       	adc	r7, r25
    acc += (int32_t)W_hr[9][4] * (int32_t)h_state[4];
    17d8:	2a e0       	ldi	r18, 0x0A	; 10
    17da:	30 e0       	ldi	r19, 0x00	; 0
    17dc:	ad 81       	ldd	r26, Y+5	; 0x05
    17de:	be 81       	ldd	r27, Y+6	; 0x06
    17e0:	0e 94 c2 32 	call	0x6584	; 0x6584 <__usmulhisi3>
    17e4:	46 0e       	add	r4, r22
    17e6:	57 1e       	adc	r5, r23
    17e8:	68 1e       	adc	r6, r24
    17ea:	79 1e       	adc	r7, r25
    acc += (int32_t)W_hr[9][5] * (int32_t)h_state[5];
    17ec:	29 e0       	ldi	r18, 0x09	; 9
    17ee:	30 e0       	ldi	r19, 0x00	; 0
    17f0:	ad 85       	ldd	r26, Y+13	; 0x0d
    17f2:	be 85       	ldd	r27, Y+14	; 0x0e
    17f4:	0e 94 c2 32 	call	0x6584	; 0x6584 <__usmulhisi3>
    17f8:	46 0e       	add	r4, r22
    17fa:	57 1e       	adc	r5, r23
    17fc:	68 1e       	adc	r6, r24
    17fe:	79 1e       	adc	r7, r25
    acc += (int32_t)W_hr[9][6] * (int32_t)h_state[6];
    1800:	2b e1       	ldi	r18, 0x1B	; 27
    1802:	30 e0       	ldi	r19, 0x00	; 0
    1804:	c9 56       	subi	r28, 0x69	; 105
    1806:	de 4f       	sbci	r29, 0xFE	; 254
    1808:	a8 81       	ld	r26, Y
    180a:	b9 81       	ldd	r27, Y+1	; 0x01
    180c:	c7 59       	subi	r28, 0x97	; 151
    180e:	d1 40       	sbci	r29, 0x01	; 1
    1810:	0e 94 c2 32 	call	0x6584	; 0x6584 <__usmulhisi3>
    1814:	46 0e       	add	r4, r22
    1816:	57 1e       	adc	r5, r23
    1818:	68 1e       	adc	r6, r24
    181a:	79 1e       	adc	r7, r25
    acc += (int32_t)W_hr[9][7] * (int32_t)h_state[7];
    181c:	29 89       	ldd	r18, Y+17	; 0x11
    181e:	3a 89       	ldd	r19, Y+18	; 0x12
    1820:	a5 ef       	ldi	r26, 0xF5	; 245
    1822:	bf ef       	ldi	r27, 0xFF	; 255
    1824:	0e 94 ab 32 	call	0x6556	; 0x6556 <__mulhisi3>
    1828:	46 0e       	add	r4, r22
    182a:	57 1e       	adc	r5, r23
    182c:	68 1e       	adc	r6, r24
    182e:	79 1e       	adc	r7, r25
    acc += (int32_t)W_hr[9][8] * (int32_t)h_state[8];
    1830:	2f 89       	ldd	r18, Y+23	; 0x17
    1832:	38 8d       	ldd	r19, Y+24	; 0x18
    1834:	af ec       	ldi	r26, 0xCF	; 207
    1836:	bf ef       	ldi	r27, 0xFF	; 255
    1838:	0e 94 ab 32 	call	0x6556	; 0x6556 <__mulhisi3>
    183c:	46 0e       	add	r4, r22
    183e:	57 1e       	adc	r5, r23
    1840:	68 1e       	adc	r6, r24
    1842:	79 1e       	adc	r7, r25
    acc += (int32_t)W_hr[9][9] * (int32_t)h_state[9];
    1844:	29 85       	ldd	r18, Y+9	; 0x09
    1846:	3a 85       	ldd	r19, Y+10	; 0x0a
    1848:	a3 ec       	ldi	r26, 0xC3	; 195
    184a:	bf ef       	ldi	r27, 0xFF	; 255
    184c:	0e 94 ab 32 	call	0x6556	; 0x6556 <__mulhisi3>
    1850:	46 0e       	add	r4, r22
    1852:	57 1e       	adc	r5, r23
    1854:	68 1e       	adc	r6, r24
    1856:	79 1e       	adc	r7, r25
    acc += (int32_t)W_hr[9][10] * (int32_t)h_state[10];
    1858:	2f 85       	ldd	r18, Y+15	; 0x0f
    185a:	38 89       	ldd	r19, Y+16	; 0x10
    185c:	aa ee       	ldi	r26, 0xEA	; 234
    185e:	bf ef       	ldi	r27, 0xFF	; 255
    1860:	0e 94 ab 32 	call	0x6556	; 0x6556 <__mulhisi3>
    1864:	46 0e       	add	r4, r22
    1866:	57 1e       	adc	r5, r23
    1868:	68 1e       	adc	r6, r24
    186a:	79 1e       	adc	r7, r25
    acc += (int32_t)W_hr[9][11] * (int32_t)h_state[11];
    186c:	27 e2       	ldi	r18, 0x27	; 39
    186e:	30 e0       	ldi	r19, 0x00	; 0
    1870:	a9 8d       	ldd	r26, Y+25	; 0x19
    1872:	ba 8d       	ldd	r27, Y+26	; 0x1a
    1874:	0e 94 c2 32 	call	0x6584	; 0x6584 <__usmulhisi3>
    1878:	46 0e       	add	r4, r22
    187a:	57 1e       	adc	r5, r23
    187c:	68 1e       	adc	r6, r24
    187e:	79 1e       	adc	r7, r25
    acc += (int32_t)W_hr[9][12] * (int32_t)h_state[12];
    1880:	2f e0       	ldi	r18, 0x0F	; 15
    1882:	30 e0       	ldi	r19, 0x00	; 0
    1884:	d8 01       	movw	r26, r16
    1886:	0e 94 c2 32 	call	0x6584	; 0x6584 <__usmulhisi3>
    188a:	46 0e       	add	r4, r22
    188c:	57 1e       	adc	r5, r23
    188e:	68 1e       	adc	r6, r24
    1890:	79 1e       	adc	r7, r25
    acc += (int32_t)W_hr[9][13] * (int32_t)h_state[13];
    1892:	2a e2       	ldi	r18, 0x2A	; 42
    1894:	30 e0       	ldi	r19, 0x00	; 0
    1896:	ab 8d       	ldd	r26, Y+27	; 0x1b
    1898:	bc 8d       	ldd	r27, Y+28	; 0x1c
    189a:	0e 94 c2 32 	call	0x6584	; 0x6584 <__usmulhisi3>
    189e:	6f 96       	adiw	r28, 0x1f	; 31
    18a0:	6c af       	std	Y+60, r22	; 0x3c
    18a2:	7d af       	std	Y+61, r23	; 0x3d
    18a4:	8e af       	std	Y+62, r24	; 0x3e
    18a6:	9f af       	std	Y+63, r25	; 0x3f
    18a8:	6f 97       	sbiw	r28, 0x1f	; 31
    18aa:	46 0e       	add	r4, r22
    18ac:	57 1e       	adc	r5, r23
    18ae:	68 1e       	adc	r6, r24
    18b0:	79 1e       	adc	r7, r25
    acc += (int32_t)W_hr[9][14] * (int32_t)h_state[14];
    18b2:	26 e3       	ldi	r18, 0x36	; 54
    18b4:	30 e0       	ldi	r19, 0x00	; 0
    18b6:	ad 8d       	ldd	r26, Y+29	; 0x1d
    18b8:	be 8d       	ldd	r27, Y+30	; 0x1e
    18ba:	0e 94 c2 32 	call	0x6584	; 0x6584 <__usmulhisi3>
    18be:	46 0e       	add	r4, r22
    18c0:	57 1e       	adc	r5, r23
    18c2:	68 1e       	adc	r6, r24
    18c4:	79 1e       	adc	r7, r25
    acc += (int32_t)W_hr[9][15] * (int32_t)h_state[15];
    18c6:	2b 89       	ldd	r18, Y+19	; 0x13
    18c8:	3c 89       	ldd	r19, Y+20	; 0x14
    18ca:	ab ec       	ldi	r26, 0xCB	; 203
    18cc:	bf ef       	ldi	r27, 0xFF	; 255
    18ce:	0e 94 ab 32 	call	0x6556	; 0x6556 <__mulhisi3>
    18d2:	dc 01       	movw	r26, r24
    18d4:	cb 01       	movw	r24, r22
    18d6:	84 0d       	add	r24, r4
    18d8:	95 1d       	adc	r25, r5
    18da:	a6 1d       	adc	r26, r6
    18dc:	b7 1d       	adc	r27, r7
    acc >>= FRAC_BITS;
    18de:	56 e0       	ldi	r21, 0x06	; 6
    18e0:	b5 95       	asr	r27
    18e2:	a7 95       	ror	r26
    18e4:	97 95       	ror	r25
    18e6:	87 95       	ror	r24
    18e8:	5a 95       	dec	r21
    18ea:	d1 f7       	brne	.-12     	; 0x18e0 <__LOCK_REGION_LENGTH__+0x14e0>
static inline int16_t fp_mul(int16_t a, int16_t b) {
    return (int16_t)(((int32_t)a * (int32_t)b) >> FRAC_BITS);
}

static inline int16_t fp_sat32(int32_t v) {
    if (v > FP_MAX) return FP_MAX;
    18ec:	81 15       	cp	r24, r1
    18ee:	e0 e8       	ldi	r30, 0x80	; 128
    18f0:	9e 07       	cpc	r25, r30
    18f2:	a1 05       	cpc	r26, r1
    18f4:	b1 05       	cpc	r27, r1
    18f6:	14 f0       	brlt	.+4      	; 0x18fc <__LOCK_REGION_LENGTH__+0x14fc>
    18f8:	0c 94 ca 31 	jmp	0x6394	; 0x6394 <__stack+0x4195>
    if (v < FP_MIN) return FP_MIN;
    18fc:	81 15       	cp	r24, r1
    18fe:	f0 e8       	ldi	r31, 0x80	; 128
    1900:	9f 07       	cpc	r25, r31
    1902:	ff ef       	ldi	r31, 0xFF	; 255
    1904:	af 07       	cpc	r26, r31
    1906:	bf 07       	cpc	r27, r31
    1908:	14 f4       	brge	.+4      	; 0x190e <__LOCK_REGION_LENGTH__+0x150e>
    190a:	0c 94 ce 31 	jmp	0x639c	; 0x639c <__stack+0x419d>
    acc += (int32_t)W_hr[9][12] * (int32_t)h_state[12];
    acc += (int32_t)W_hr[9][13] * (int32_t)h_state[13];
    acc += (int32_t)W_hr[9][14] * (int32_t)h_state[14];
    acc += (int32_t)W_hr[9][15] * (int32_t)h_state[15];
    acc >>= FRAC_BITS;
    r[9] = fp_sigmoid(fp_sat32(acc));
    190e:	0e 94 b5 00 	call	0x16a	; 0x16a <_ZL10fp_sigmoidi>
    1912:	c7 57       	subi	r28, 0x77	; 119
    1914:	de 4f       	sbci	r29, 0xFE	; 254
    1916:	99 83       	std	Y+1, r25	; 0x01
    1918:	88 83       	st	Y, r24
    191a:	c9 58       	subi	r28, 0x89	; 137
    191c:	d1 40       	sbci	r29, 0x01	; 1
    acc += (int32_t)W_ir[10][61] * (int32_t)x[61];
    acc += (int32_t)W_ir[10][62] * (int32_t)x[62];
    acc += (int32_t)W_ir[10][63] * (int32_t)x[63];
    acc >>= FRAC_BITS;
    acc += (int32_t)b_hr[10];
    acc += (int32_t)W_hr[10][0] * (int32_t)h_state[0];
    191e:	2c e3       	ldi	r18, 0x3C	; 60
    1920:	c2 0e       	add	r12, r18
    1922:	d1 1c       	adc	r13, r1
    1924:	e1 1c       	adc	r14, r1
    1926:	f1 1c       	adc	r15, r1
    acc += (int32_t)W_hr[10][1] * (int32_t)h_state[1];
    1928:	2f 81       	ldd	r18, Y+7	; 0x07
    192a:	38 85       	ldd	r19, Y+8	; 0x08
    192c:	af ed       	ldi	r26, 0xDF	; 223
    192e:	bf ef       	ldi	r27, 0xFF	; 255
    1930:	0e 94 ab 32 	call	0x6556	; 0x6556 <__mulhisi3>
    1934:	c6 0e       	add	r12, r22
    1936:	d7 1e       	adc	r13, r23
    1938:	e8 1e       	adc	r14, r24
    193a:	f9 1e       	adc	r15, r25
    acc += (int32_t)W_hr[10][2] * (int32_t)h_state[2];
    193c:	2b e0       	ldi	r18, 0x0B	; 11
    193e:	30 e0       	ldi	r19, 0x00	; 0
    1940:	ad 89       	ldd	r26, Y+21	; 0x15
    1942:	be 89       	ldd	r27, Y+22	; 0x16
    1944:	0e 94 c2 32 	call	0x6584	; 0x6584 <__usmulhisi3>
    1948:	c6 0e       	add	r12, r22
    194a:	d7 1e       	adc	r13, r23
    194c:	e8 1e       	adc	r14, r24
    194e:	f9 1e       	adc	r15, r25
    acc += (int32_t)W_hr[10][3] * (int32_t)h_state[3];
    1950:	23 e0       	ldi	r18, 0x03	; 3
    1952:	30 e0       	ldi	r19, 0x00	; 0
    1954:	d1 01       	movw	r26, r2
    1956:	0e 94 c2 32 	call	0x6584	; 0x6584 <__usmulhisi3>
    195a:	c6 0e       	add	r12, r22
    195c:	d7 1e       	adc	r13, r23
    195e:	e8 1e       	adc	r14, r24
    1960:	f9 1e       	adc	r15, r25
    acc += (int32_t)W_hr[10][4] * (int32_t)h_state[4];
    1962:	2d 81       	ldd	r18, Y+5	; 0x05
    1964:	3e 81       	ldd	r19, Y+6	; 0x06
    1966:	a3 ef       	ldi	r26, 0xF3	; 243
    1968:	bf ef       	ldi	r27, 0xFF	; 255
    196a:	0e 94 ab 32 	call	0x6556	; 0x6556 <__mulhisi3>
    196e:	c6 0e       	add	r12, r22
    1970:	d7 1e       	adc	r13, r23
    1972:	e8 1e       	adc	r14, r24
    1974:	f9 1e       	adc	r15, r25
    acc += (int32_t)W_hr[10][5] * (int32_t)h_state[5];
    1976:	2d 85       	ldd	r18, Y+13	; 0x0d
    1978:	3e 85       	ldd	r19, Y+14	; 0x0e
    197a:	a8 ee       	ldi	r26, 0xE8	; 232
    197c:	bf ef       	ldi	r27, 0xFF	; 255
    197e:	0e 94 ab 32 	call	0x6556	; 0x6556 <__mulhisi3>
    1982:	c6 0e       	add	r12, r22
    1984:	d7 1e       	adc	r13, r23
    1986:	e8 1e       	adc	r14, r24
    1988:	f9 1e       	adc	r15, r25
    acc += (int32_t)W_hr[10][6] * (int32_t)h_state[6];
    198a:	c9 56       	subi	r28, 0x69	; 105
    198c:	de 4f       	sbci	r29, 0xFE	; 254
    198e:	28 81       	ld	r18, Y
    1990:	39 81       	ldd	r19, Y+1	; 0x01
    1992:	c7 59       	subi	r28, 0x97	; 151
    1994:	d1 40       	sbci	r29, 0x01	; 1
    1996:	ab ee       	ldi	r26, 0xEB	; 235
    1998:	bf ef       	ldi	r27, 0xFF	; 255
    199a:	0e 94 ab 32 	call	0x6556	; 0x6556 <__mulhisi3>
    199e:	c6 0e       	add	r12, r22
    19a0:	d7 1e       	adc	r13, r23
    19a2:	e8 1e       	adc	r14, r24
    19a4:	f9 1e       	adc	r15, r25
    acc += (int32_t)W_hr[10][7] * (int32_t)h_state[7];
    19a6:	29 89       	ldd	r18, Y+17	; 0x11
    19a8:	3a 89       	ldd	r19, Y+18	; 0x12
    19aa:	0e 94 ab 32 	call	0x6556	; 0x6556 <__mulhisi3>
    19ae:	c6 0e       	add	r12, r22
    19b0:	d7 1e       	adc	r13, r23
    19b2:	e8 1e       	adc	r14, r24
    19b4:	f9 1e       	adc	r15, r25
    acc += (int32_t)W_hr[10][8] * (int32_t)h_state[8];
    19b6:	8c 0c       	add	r8, r12
    19b8:	9d 1c       	adc	r9, r13
    19ba:	ae 1c       	adc	r10, r14
    19bc:	bf 1c       	adc	r11, r15
    acc += (int32_t)W_hr[10][9] * (int32_t)h_state[9];
    19be:	8f 8d       	ldd	r24, Y+31	; 0x1f
    19c0:	98 a1       	ldd	r25, Y+32	; 0x20
    19c2:	a9 a1       	ldd	r26, Y+33	; 0x21
    19c4:	ba a1       	ldd	r27, Y+34	; 0x22
    19c6:	88 0e       	add	r8, r24
    19c8:	99 1e       	adc	r9, r25
    19ca:	aa 1e       	adc	r10, r26
    19cc:	bb 1e       	adc	r11, r27
    acc += (int32_t)W_hr[10][10] * (int32_t)h_state[10];
    19ce:	2f 85       	ldd	r18, Y+15	; 0x0f
    19d0:	38 89       	ldd	r19, Y+16	; 0x10
    19d2:	af ec       	ldi	r26, 0xCF	; 207
    19d4:	bf ef       	ldi	r27, 0xFF	; 255
    19d6:	0e 94 ab 32 	call	0x6556	; 0x6556 <__mulhisi3>
    19da:	86 0e       	add	r8, r22
    19dc:	97 1e       	adc	r9, r23
    19de:	a8 1e       	adc	r10, r24
    19e0:	b9 1e       	adc	r11, r25
    acc += (int32_t)W_hr[10][11] * (int32_t)h_state[11];
    19e2:	2f a9       	ldd	r18, Y+55	; 0x37
    19e4:	38 ad       	ldd	r19, Y+56	; 0x38
    19e6:	49 ad       	ldd	r20, Y+57	; 0x39
    19e8:	5a ad       	ldd	r21, Y+58	; 0x3a
    19ea:	82 0e       	add	r8, r18
    19ec:	93 1e       	adc	r9, r19
    19ee:	a4 1e       	adc	r10, r20
    19f0:	b5 1e       	adc	r11, r21
    acc += (int32_t)W_hr[10][12] * (int32_t)h_state[12];
    19f2:	24 e3       	ldi	r18, 0x34	; 52
    19f4:	30 e0       	ldi	r19, 0x00	; 0
    19f6:	d8 01       	movw	r26, r16
    19f8:	0e 94 c2 32 	call	0x6584	; 0x6584 <__usmulhisi3>
    19fc:	86 0e       	add	r8, r22
    19fe:	97 1e       	adc	r9, r23
    1a00:	a8 1e       	adc	r10, r24
    1a02:	b9 1e       	adc	r11, r25
    acc += (int32_t)W_hr[10][13] * (int32_t)h_state[13];
    1a04:	2b 8d       	ldd	r18, Y+27	; 0x1b
    1a06:	3c 8d       	ldd	r19, Y+28	; 0x1c
    1a08:	ad ee       	ldi	r26, 0xED	; 237
    1a0a:	bf ef       	ldi	r27, 0xFF	; 255
    1a0c:	0e 94 ab 32 	call	0x6556	; 0x6556 <__mulhisi3>
    1a10:	6b 01       	movw	r12, r22
    1a12:	7c 01       	movw	r14, r24
    1a14:	8c 0c       	add	r8, r12
    1a16:	9d 1c       	adc	r9, r13
    1a18:	ae 1c       	adc	r10, r14
    1a1a:	bf 1c       	adc	r11, r15
    acc += (int32_t)W_hr[10][14] * (int32_t)h_state[14];
    1a1c:	2d e1       	ldi	r18, 0x1D	; 29
    1a1e:	30 e0       	ldi	r19, 0x00	; 0
    1a20:	ad 8d       	ldd	r26, Y+29	; 0x1d
    1a22:	be 8d       	ldd	r27, Y+30	; 0x1e
    1a24:	0e 94 c2 32 	call	0x6584	; 0x6584 <__usmulhisi3>
    1a28:	86 0e       	add	r8, r22
    1a2a:	97 1e       	adc	r9, r23
    1a2c:	a8 1e       	adc	r10, r24
    1a2e:	b9 1e       	adc	r11, r25
    acc += (int32_t)W_hr[10][15] * (int32_t)h_state[15];
    1a30:	29 e2       	ldi	r18, 0x29	; 41
    1a32:	30 e0       	ldi	r19, 0x00	; 0
    1a34:	ab 89       	ldd	r26, Y+19	; 0x13
    1a36:	bc 89       	ldd	r27, Y+20	; 0x14
    1a38:	0e 94 c2 32 	call	0x6584	; 0x6584 <__usmulhisi3>
    1a3c:	c1 5f       	subi	r28, 0xF1	; 241
    1a3e:	de 4f       	sbci	r29, 0xFE	; 254
    1a40:	68 83       	st	Y, r22
    1a42:	79 83       	std	Y+1, r23	; 0x01
    1a44:	8a 83       	std	Y+2, r24	; 0x02
    1a46:	9b 83       	std	Y+3, r25	; 0x03
    1a48:	cf 50       	subi	r28, 0x0F	; 15
    1a4a:	d1 40       	sbci	r29, 0x01	; 1
    1a4c:	dc 01       	movw	r26, r24
    1a4e:	cb 01       	movw	r24, r22
    1a50:	88 0d       	add	r24, r8
    1a52:	99 1d       	adc	r25, r9
    1a54:	aa 1d       	adc	r26, r10
    1a56:	bb 1d       	adc	r27, r11
    acc >>= FRAC_BITS;
    1a58:	46 e0       	ldi	r20, 0x06	; 6
    1a5a:	b5 95       	asr	r27
    1a5c:	a7 95       	ror	r26
    1a5e:	97 95       	ror	r25
    1a60:	87 95       	ror	r24
    1a62:	4a 95       	dec	r20
    1a64:	d1 f7       	brne	.-12     	; 0x1a5a <__LOCK_REGION_LENGTH__+0x165a>
static inline int16_t fp_mul(int16_t a, int16_t b) {
    return (int16_t)(((int32_t)a * (int32_t)b) >> FRAC_BITS);
}

static inline int16_t fp_sat32(int32_t v) {
    if (v > FP_MAX) return FP_MAX;
    1a66:	81 15       	cp	r24, r1
    1a68:	30 e8       	ldi	r19, 0x80	; 128
    1a6a:	93 07       	cpc	r25, r19
    1a6c:	a1 05       	cpc	r26, r1
    1a6e:	b1 05       	cpc	r27, r1
    1a70:	14 f0       	brlt	.+4      	; 0x1a76 <__LOCK_REGION_LENGTH__+0x1676>
    1a72:	0c 94 d2 31 	jmp	0x63a4	; 0x63a4 <__stack+0x41a5>
    if (v < FP_MIN) return FP_MIN;
    1a76:	81 15       	cp	r24, r1
    1a78:	40 e8       	ldi	r20, 0x80	; 128
    1a7a:	94 07       	cpc	r25, r20
    1a7c:	4f ef       	ldi	r20, 0xFF	; 255
    1a7e:	a4 07       	cpc	r26, r20
    1a80:	b4 07       	cpc	r27, r20
    1a82:	14 f4       	brge	.+4      	; 0x1a88 <__LOCK_REGION_LENGTH__+0x1688>
    1a84:	0c 94 d6 31 	jmp	0x63ac	; 0x63ac <__stack+0x41ad>
    acc += (int32_t)W_hr[10][12] * (int32_t)h_state[12];
    acc += (int32_t)W_hr[10][13] * (int32_t)h_state[13];
    acc += (int32_t)W_hr[10][14] * (int32_t)h_state[14];
    acc += (int32_t)W_hr[10][15] * (int32_t)h_state[15];
    acc >>= FRAC_BITS;
    r[10] = fp_sigmoid(fp_sat32(acc));
    1a88:	0e 94 b5 00 	call	0x16a	; 0x16a <_ZL10fp_sigmoidi>
    1a8c:	c5 57       	subi	r28, 0x75	; 117
    1a8e:	de 4f       	sbci	r29, 0xFE	; 254
    1a90:	99 83       	std	Y+1, r25	; 0x01
    1a92:	88 83       	st	Y, r24
    1a94:	cb 58       	subi	r28, 0x8B	; 139
    1a96:	d1 40       	sbci	r29, 0x01	; 1
    acc += (int32_t)W_ir[11][61] * (int32_t)x[61];
    acc += (int32_t)W_ir[11][62] * (int32_t)x[62];
    acc += (int32_t)W_ir[11][63] * (int32_t)x[63];
    acc >>= FRAC_BITS;
    acc += (int32_t)b_hr[11];
    acc += (int32_t)W_hr[11][0] * (int32_t)h_state[0];
    1a98:	28 e2       	ldi	r18, 0x28	; 40
    1a9a:	30 e0       	ldi	r19, 0x00	; 0
    1a9c:	ab 85       	ldd	r26, Y+11	; 0x0b
    1a9e:	bc 85       	ldd	r27, Y+12	; 0x0c
    1aa0:	0e 94 c2 32 	call	0x6584	; 0x6584 <__usmulhisi3>
    1aa4:	69 83       	std	Y+1, r22	; 0x01
    1aa6:	7a 83       	std	Y+2, r23	; 0x02
    1aa8:	8b 83       	std	Y+3, r24	; 0x03
    1aaa:	9c 83       	std	Y+4, r25	; 0x04
    1aac:	4b 01       	movw	r8, r22
    1aae:	5c 01       	movw	r10, r24
    1ab0:	5a e1       	ldi	r21, 0x1A	; 26
    1ab2:	85 0e       	add	r8, r21
    1ab4:	91 1c       	adc	r9, r1
    1ab6:	a1 1c       	adc	r10, r1
    1ab8:	b1 1c       	adc	r11, r1
    acc += (int32_t)W_hr[11][1] * (int32_t)h_state[1];
    1aba:	2f 81       	ldd	r18, Y+7	; 0x07
    1abc:	38 85       	ldd	r19, Y+8	; 0x08
    1abe:	ae ed       	ldi	r26, 0xDE	; 222
    1ac0:	bf ef       	ldi	r27, 0xFF	; 255
    1ac2:	0e 94 ab 32 	call	0x6556	; 0x6556 <__mulhisi3>
    1ac6:	86 0e       	add	r8, r22
    1ac8:	97 1e       	adc	r9, r23
    1aca:	a8 1e       	adc	r10, r24
    1acc:	b9 1e       	adc	r11, r25
    acc += (int32_t)W_hr[11][2] * (int32_t)h_state[2];
    1ace:	2d 89       	ldd	r18, Y+21	; 0x15
    1ad0:	3e 89       	ldd	r19, Y+22	; 0x16
    1ad2:	a3 ed       	ldi	r26, 0xD3	; 211
    1ad4:	bf ef       	ldi	r27, 0xFF	; 255
    1ad6:	0e 94 ab 32 	call	0x6556	; 0x6556 <__mulhisi3>
    1ada:	86 0e       	add	r8, r22
    1adc:	97 1e       	adc	r9, r23
    1ade:	a8 1e       	adc	r10, r24
    1ae0:	b9 1e       	adc	r11, r25
    acc += (int32_t)W_hr[11][3] * (int32_t)h_state[3];
    1ae2:	91 01       	movw	r18, r2
    1ae4:	a9 ed       	ldi	r26, 0xD9	; 217
    1ae6:	bf ef       	ldi	r27, 0xFF	; 255
    1ae8:	0e 94 ab 32 	call	0x6556	; 0x6556 <__mulhisi3>
    1aec:	86 0e       	add	r8, r22
    1aee:	97 1e       	adc	r9, r23
    1af0:	a8 1e       	adc	r10, r24
    1af2:	b9 1e       	adc	r11, r25
    acc += (int32_t)W_hr[11][4] * (int32_t)h_state[4];
    1af4:	23 96       	adiw	r28, 0x03	; 3
    1af6:	8c ad       	ldd	r24, Y+60	; 0x3c
    1af8:	9d ad       	ldd	r25, Y+61	; 0x3d
    1afa:	ae ad       	ldd	r26, Y+62	; 0x3e
    1afc:	bf ad       	ldd	r27, Y+63	; 0x3f
    1afe:	23 97       	sbiw	r28, 0x03	; 3
    1b00:	88 0e       	add	r8, r24
    1b02:	99 1e       	adc	r9, r25
    1b04:	aa 1e       	adc	r10, r26
    1b06:	bb 1e       	adc	r11, r27
    acc += (int32_t)W_hr[11][5] * (int32_t)h_state[5];
    1b08:	21 e2       	ldi	r18, 0x21	; 33
    1b0a:	30 e0       	ldi	r19, 0x00	; 0
    1b0c:	ad 85       	ldd	r26, Y+13	; 0x0d
    1b0e:	be 85       	ldd	r27, Y+14	; 0x0e
    1b10:	0e 94 c2 32 	call	0x6584	; 0x6584 <__usmulhisi3>
    1b14:	86 0e       	add	r8, r22
    1b16:	97 1e       	adc	r9, r23
    1b18:	a8 1e       	adc	r10, r24
    1b1a:	b9 1e       	adc	r11, r25
    acc += (int32_t)W_hr[11][6] * (int32_t)h_state[6];
    1b1c:	24 e1       	ldi	r18, 0x14	; 20
    1b1e:	30 e0       	ldi	r19, 0x00	; 0
    1b20:	c9 56       	subi	r28, 0x69	; 105
    1b22:	de 4f       	sbci	r29, 0xFE	; 254
    1b24:	a8 81       	ld	r26, Y
    1b26:	b9 81       	ldd	r27, Y+1	; 0x01
    1b28:	c7 59       	subi	r28, 0x97	; 151
    1b2a:	d1 40       	sbci	r29, 0x01	; 1
    1b2c:	0e 94 c2 32 	call	0x6584	; 0x6584 <__usmulhisi3>
    1b30:	86 0e       	add	r8, r22
    1b32:	97 1e       	adc	r9, r23
    1b34:	a8 1e       	adc	r10, r24
    1b36:	b9 1e       	adc	r11, r25
    acc += (int32_t)W_hr[11][7] * (int32_t)h_state[7];
    1b38:	29 89       	ldd	r18, Y+17	; 0x11
    1b3a:	3a 89       	ldd	r19, Y+18	; 0x12
    1b3c:	a7 ed       	ldi	r26, 0xD7	; 215
    1b3e:	bf ef       	ldi	r27, 0xFF	; 255
    1b40:	0e 94 ab 32 	call	0x6556	; 0x6556 <__mulhisi3>
    1b44:	cd 5e       	subi	r28, 0xED	; 237
    1b46:	de 4f       	sbci	r29, 0xFE	; 254
    1b48:	68 83       	st	Y, r22
    1b4a:	79 83       	std	Y+1, r23	; 0x01
    1b4c:	8a 83       	std	Y+2, r24	; 0x02
    1b4e:	9b 83       	std	Y+3, r25	; 0x03
    1b50:	c3 51       	subi	r28, 0x13	; 19
    1b52:	d1 40       	sbci	r29, 0x01	; 1
    1b54:	86 0e       	add	r8, r22
    1b56:	97 1e       	adc	r9, r23
    1b58:	a8 1e       	adc	r10, r24
    1b5a:	b9 1e       	adc	r11, r25
    acc += (int32_t)W_hr[11][8] * (int32_t)h_state[8];
    1b5c:	23 e2       	ldi	r18, 0x23	; 35
    1b5e:	30 e0       	ldi	r19, 0x00	; 0
    1b60:	af 89       	ldd	r26, Y+23	; 0x17
    1b62:	b8 8d       	ldd	r27, Y+24	; 0x18
    1b64:	0e 94 c2 32 	call	0x6584	; 0x6584 <__usmulhisi3>
    1b68:	86 0e       	add	r8, r22
    1b6a:	97 1e       	adc	r9, r23
    1b6c:	a8 1e       	adc	r10, r24
    1b6e:	b9 1e       	adc	r11, r25
    1b70:	2f 8d       	ldd	r18, Y+31	; 0x1f
    1b72:	38 a1       	ldd	r19, Y+32	; 0x20
    1b74:	49 a1       	ldd	r20, Y+33	; 0x21
    1b76:	5a a1       	ldd	r21, Y+34	; 0x22
    1b78:	82 1a       	sub	r8, r18
    1b7a:	93 0a       	sbc	r9, r19
    1b7c:	a4 0a       	sbc	r10, r20
    1b7e:	b5 0a       	sbc	r11, r21
    acc += (int32_t)W_hr[11][9] * (int32_t)h_state[9];
    acc += (int32_t)W_hr[11][10] * (int32_t)h_state[10];
    1b80:	21 e2       	ldi	r18, 0x21	; 33
    1b82:	30 e0       	ldi	r19, 0x00	; 0
    1b84:	af 85       	ldd	r26, Y+15	; 0x0f
    1b86:	b8 89       	ldd	r27, Y+16	; 0x10
    1b88:	0e 94 c2 32 	call	0x6584	; 0x6584 <__usmulhisi3>
    1b8c:	86 0e       	add	r8, r22
    1b8e:	97 1e       	adc	r9, r23
    1b90:	a8 1e       	adc	r10, r24
    1b92:	b9 1e       	adc	r11, r25
    acc += (int32_t)W_hr[11][11] * (int32_t)h_state[11];
    1b94:	a9 8d       	ldd	r26, Y+25	; 0x19
    1b96:	ba 8d       	ldd	r27, Y+26	; 0x1a
    1b98:	0e 94 c2 32 	call	0x6584	; 0x6584 <__usmulhisi3>
    1b9c:	c9 5e       	subi	r28, 0xE9	; 233
    1b9e:	de 4f       	sbci	r29, 0xFE	; 254
    1ba0:	68 83       	st	Y, r22
    1ba2:	79 83       	std	Y+1, r23	; 0x01
    1ba4:	8a 83       	std	Y+2, r24	; 0x02
    1ba6:	9b 83       	std	Y+3, r25	; 0x03
    1ba8:	c7 51       	subi	r28, 0x17	; 23
    1baa:	d1 40       	sbci	r29, 0x01	; 1
    1bac:	86 0e       	add	r8, r22
    1bae:	97 1e       	adc	r9, r23
    1bb0:	a8 1e       	adc	r10, r24
    1bb2:	b9 1e       	adc	r11, r25
    acc += (int32_t)W_hr[11][12] * (int32_t)h_state[12];
    1bb4:	98 01       	movw	r18, r16
    1bb6:	a9 ef       	ldi	r26, 0xF9	; 249
    1bb8:	bf ef       	ldi	r27, 0xFF	; 255
    1bba:	0e 94 ab 32 	call	0x6556	; 0x6556 <__mulhisi3>
    1bbe:	86 0e       	add	r8, r22
    1bc0:	97 1e       	adc	r9, r23
    1bc2:	a8 1e       	adc	r10, r24
    1bc4:	b9 1e       	adc	r11, r25
    acc += (int32_t)W_hr[11][13] * (int32_t)h_state[13];
    1bc6:	26 e3       	ldi	r18, 0x36	; 54
    1bc8:	30 e0       	ldi	r19, 0x00	; 0
    1bca:	ab 8d       	ldd	r26, Y+27	; 0x1b
    1bcc:	bc 8d       	ldd	r27, Y+28	; 0x1c
    1bce:	0e 94 c2 32 	call	0x6584	; 0x6584 <__usmulhisi3>
    1bd2:	86 0e       	add	r8, r22
    1bd4:	97 1e       	adc	r9, r23
    1bd6:	a8 1e       	adc	r10, r24
    1bd8:	b9 1e       	adc	r11, r25
    acc += (int32_t)W_hr[11][14] * (int32_t)h_state[14];
    1bda:	8b a1       	ldd	r24, Y+35	; 0x23
    1bdc:	9c a1       	ldd	r25, Y+36	; 0x24
    1bde:	ad a1       	ldd	r26, Y+37	; 0x25
    1be0:	be a1       	ldd	r27, Y+38	; 0x26
    1be2:	23 e0       	ldi	r18, 0x03	; 3
    1be4:	88 0f       	add	r24, r24
    1be6:	99 1f       	adc	r25, r25
    1be8:	aa 1f       	adc	r26, r26
    1bea:	bb 1f       	adc	r27, r27
    1bec:	2a 95       	dec	r18
    1bee:	d1 f7       	brne	.-12     	; 0x1be4 <__LOCK_REGION_LENGTH__+0x17e4>
    1bf0:	88 0e       	add	r8, r24
    1bf2:	99 1e       	adc	r9, r25
    1bf4:	aa 1e       	adc	r10, r26
    1bf6:	bb 1e       	adc	r11, r27
    acc += (int32_t)W_hr[11][15] * (int32_t)h_state[15];
    1bf8:	21 e1       	ldi	r18, 0x11	; 17
    1bfa:	30 e0       	ldi	r19, 0x00	; 0
    1bfc:	ab 89       	ldd	r26, Y+19	; 0x13
    1bfe:	bc 89       	ldd	r27, Y+20	; 0x14
    1c00:	0e 94 c2 32 	call	0x6584	; 0x6584 <__usmulhisi3>
    1c04:	c1 55       	subi	r28, 0x51	; 81
    1c06:	df 4f       	sbci	r29, 0xFF	; 255
    1c08:	68 83       	st	Y, r22
    1c0a:	79 83       	std	Y+1, r23	; 0x01
    1c0c:	8a 83       	std	Y+2, r24	; 0x02
    1c0e:	9b 83       	std	Y+3, r25	; 0x03
    1c10:	cf 5a       	subi	r28, 0xAF	; 175
    1c12:	d0 40       	sbci	r29, 0x00	; 0
    1c14:	dc 01       	movw	r26, r24
    1c16:	cb 01       	movw	r24, r22
    1c18:	88 0d       	add	r24, r8
    1c1a:	99 1d       	adc	r25, r9
    1c1c:	aa 1d       	adc	r26, r10
    1c1e:	bb 1d       	adc	r27, r11
    acc >>= FRAC_BITS;
    1c20:	36 e0       	ldi	r19, 0x06	; 6
    1c22:	b5 95       	asr	r27
    1c24:	a7 95       	ror	r26
    1c26:	97 95       	ror	r25
    1c28:	87 95       	ror	r24
    1c2a:	3a 95       	dec	r19
    1c2c:	d1 f7       	brne	.-12     	; 0x1c22 <__LOCK_REGION_LENGTH__+0x1822>
static inline int16_t fp_mul(int16_t a, int16_t b) {
    return (int16_t)(((int32_t)a * (int32_t)b) >> FRAC_BITS);
}

static inline int16_t fp_sat32(int32_t v) {
    if (v > FP_MAX) return FP_MAX;
    1c2e:	81 15       	cp	r24, r1
    1c30:	30 e8       	ldi	r19, 0x80	; 128
    1c32:	93 07       	cpc	r25, r19
    1c34:	a1 05       	cpc	r26, r1
    1c36:	b1 05       	cpc	r27, r1
    1c38:	14 f0       	brlt	.+4      	; 0x1c3e <__LOCK_REGION_LENGTH__+0x183e>
    1c3a:	0c 94 da 31 	jmp	0x63b4	; 0x63b4 <__stack+0x41b5>
    if (v < FP_MIN) return FP_MIN;
    1c3e:	81 15       	cp	r24, r1
    1c40:	40 e8       	ldi	r20, 0x80	; 128
    1c42:	94 07       	cpc	r25, r20
    1c44:	4f ef       	ldi	r20, 0xFF	; 255
    1c46:	a4 07       	cpc	r26, r20
    1c48:	b4 07       	cpc	r27, r20
    1c4a:	14 f4       	brge	.+4      	; 0x1c50 <__LOCK_REGION_LENGTH__+0x1850>
    1c4c:	0c 94 de 31 	jmp	0x63bc	; 0x63bc <__stack+0x41bd>
    acc += (int32_t)W_hr[11][12] * (int32_t)h_state[12];
    acc += (int32_t)W_hr[11][13] * (int32_t)h_state[13];
    acc += (int32_t)W_hr[11][14] * (int32_t)h_state[14];
    acc += (int32_t)W_hr[11][15] * (int32_t)h_state[15];
    acc >>= FRAC_BITS;
    r[11] = fp_sigmoid(fp_sat32(acc));
    1c50:	0e 94 b5 00 	call	0x16a	; 0x16a <_ZL10fp_sigmoidi>
    1c54:	c3 57       	subi	r28, 0x73	; 115
    1c56:	de 4f       	sbci	r29, 0xFE	; 254
    1c58:	99 83       	std	Y+1, r25	; 0x01
    1c5a:	88 83       	st	Y, r24
    1c5c:	cd 58       	subi	r28, 0x8D	; 141
    1c5e:	d1 40       	sbci	r29, 0x01	; 1
    acc += (int32_t)W_ir[12][61] * (int32_t)x[61];
    acc += (int32_t)W_ir[12][62] * (int32_t)x[62];
    acc += (int32_t)W_ir[12][63] * (int32_t)x[63];
    acc >>= FRAC_BITS;
    acc += (int32_t)b_hr[12];
    acc += (int32_t)W_hr[12][0] * (int32_t)h_state[0];
    1c60:	8b a8       	ldd	r8, Y+51	; 0x33
    1c62:	9c a8       	ldd	r9, Y+52	; 0x34
    1c64:	ad a8       	ldd	r10, Y+53	; 0x35
    1c66:	be a8       	ldd	r11, Y+54	; 0x36
    1c68:	74 e0       	ldi	r23, 0x04	; 4
    1c6a:	88 0c       	add	r8, r8
    1c6c:	99 1c       	adc	r9, r9
    1c6e:	aa 1c       	adc	r10, r10
    1c70:	bb 1c       	adc	r11, r11
    1c72:	7a 95       	dec	r23
    1c74:	d1 f7       	brne	.-12     	; 0x1c6a <__LOCK_REGION_LENGTH__+0x186a>
    1c76:	55 e5       	ldi	r21, 0x55	; 85
    1c78:	85 1a       	sub	r8, r21
    1c7a:	91 08       	sbc	r9, r1
    1c7c:	a1 08       	sbc	r10, r1
    1c7e:	b1 08       	sbc	r11, r1
    acc += (int32_t)W_hr[12][1] * (int32_t)h_state[1];
    1c80:	a3 96       	adiw	r28, 0x23	; 35
    1c82:	8c ad       	ldd	r24, Y+60	; 0x3c
    1c84:	9d ad       	ldd	r25, Y+61	; 0x3d
    1c86:	ae ad       	ldd	r26, Y+62	; 0x3e
    1c88:	bf ad       	ldd	r27, Y+63	; 0x3f
    1c8a:	a3 97       	sbiw	r28, 0x23	; 35
    1c8c:	88 0e       	add	r8, r24
    1c8e:	99 1e       	adc	r9, r25
    1c90:	aa 1e       	adc	r10, r26
    1c92:	bb 1e       	adc	r11, r27
    acc += (int32_t)W_hr[12][2] * (int32_t)h_state[2];
    1c94:	8b a5       	ldd	r24, Y+43	; 0x2b
    1c96:	9c a5       	ldd	r25, Y+44	; 0x2c
    1c98:	ad a5       	ldd	r26, Y+45	; 0x2d
    1c9a:	be a5       	ldd	r27, Y+46	; 0x2e
    1c9c:	e4 e0       	ldi	r30, 0x04	; 4
    1c9e:	88 0f       	add	r24, r24
    1ca0:	99 1f       	adc	r25, r25
    1ca2:	aa 1f       	adc	r26, r26
    1ca4:	bb 1f       	adc	r27, r27
    1ca6:	ea 95       	dec	r30
    1ca8:	d1 f7       	brne	.-12     	; 0x1c9e <__LOCK_REGION_LENGTH__+0x189e>
    1caa:	88 0e       	add	r8, r24
    1cac:	99 1e       	adc	r9, r25
    1cae:	aa 1e       	adc	r10, r26
    1cb0:	bb 1e       	adc	r11, r27
    acc += (int32_t)W_hr[12][3] * (int32_t)h_state[3];
    1cb2:	91 01       	movw	r18, r2
    1cb4:	a3 ed       	ldi	r26, 0xD3	; 211
    1cb6:	bf ef       	ldi	r27, 0xFF	; 255
    1cb8:	0e 94 ab 32 	call	0x6556	; 0x6556 <__mulhisi3>
    1cbc:	86 0e       	add	r8, r22
    1cbe:	97 1e       	adc	r9, r23
    1cc0:	a8 1e       	adc	r10, r24
    1cc2:	b9 1e       	adc	r11, r25
    acc += (int32_t)W_hr[12][4] * (int32_t)h_state[4];
    1cc4:	2d 81       	ldd	r18, Y+5	; 0x05
    1cc6:	3e 81       	ldd	r19, Y+6	; 0x06
    1cc8:	a9 ec       	ldi	r26, 0xC9	; 201
    1cca:	bf ef       	ldi	r27, 0xFF	; 255
    1ccc:	0e 94 ab 32 	call	0x6556	; 0x6556 <__mulhisi3>
    1cd0:	86 0e       	add	r8, r22
    1cd2:	97 1e       	adc	r9, r23
    1cd4:	a8 1e       	adc	r10, r24
    1cd6:	b9 1e       	adc	r11, r25
    acc += (int32_t)W_hr[12][5] * (int32_t)h_state[5];
    1cd8:	2d 85       	ldd	r18, Y+13	; 0x0d
    1cda:	3e 85       	ldd	r19, Y+14	; 0x0e
    1cdc:	a9 ef       	ldi	r26, 0xF9	; 249
    1cde:	bf ef       	ldi	r27, 0xFF	; 255
    1ce0:	0e 94 ab 32 	call	0x6556	; 0x6556 <__mulhisi3>
    1ce4:	86 0e       	add	r8, r22
    1ce6:	97 1e       	adc	r9, r23
    1ce8:	a8 1e       	adc	r10, r24
    1cea:	b9 1e       	adc	r11, r25
    acc += (int32_t)W_hr[12][6] * (int32_t)h_state[6];
    1cec:	c9 56       	subi	r28, 0x69	; 105
    1cee:	de 4f       	sbci	r29, 0xFE	; 254
    1cf0:	28 81       	ld	r18, Y
    1cf2:	39 81       	ldd	r19, Y+1	; 0x01
    1cf4:	c7 59       	subi	r28, 0x97	; 151
    1cf6:	d1 40       	sbci	r29, 0x01	; 1
    1cf8:	a7 ee       	ldi	r26, 0xE7	; 231
    1cfa:	bf ef       	ldi	r27, 0xFF	; 255
    1cfc:	0e 94 ab 32 	call	0x6556	; 0x6556 <__mulhisi3>
    1d00:	86 0e       	add	r8, r22
    1d02:	97 1e       	adc	r9, r23
    1d04:	a8 1e       	adc	r10, r24
    1d06:	b9 1e       	adc	r11, r25
    acc += (int32_t)W_hr[12][7] * (int32_t)h_state[7];
    1d08:	29 89       	ldd	r18, Y+17	; 0x11
    1d0a:	3a 89       	ldd	r19, Y+18	; 0x12
    1d0c:	a3 ee       	ldi	r26, 0xE3	; 227
    1d0e:	bf ef       	ldi	r27, 0xFF	; 255
    1d10:	0e 94 ab 32 	call	0x6556	; 0x6556 <__mulhisi3>
    1d14:	c5 5e       	subi	r28, 0xE5	; 229
    1d16:	de 4f       	sbci	r29, 0xFE	; 254
    1d18:	68 83       	st	Y, r22
    1d1a:	79 83       	std	Y+1, r23	; 0x01
    1d1c:	8a 83       	std	Y+2, r24	; 0x02
    1d1e:	9b 83       	std	Y+3, r25	; 0x03
    1d20:	cb 51       	subi	r28, 0x1B	; 27
    1d22:	d1 40       	sbci	r29, 0x01	; 1
    1d24:	86 0e       	add	r8, r22
    1d26:	97 1e       	adc	r9, r23
    1d28:	a8 1e       	adc	r10, r24
    1d2a:	b9 1e       	adc	r11, r25
    acc += (int32_t)W_hr[12][8] * (int32_t)h_state[8];
    1d2c:	2f 89       	ldd	r18, Y+23	; 0x17
    1d2e:	38 8d       	ldd	r19, Y+24	; 0x18
    1d30:	a7 ec       	ldi	r26, 0xC7	; 199
    1d32:	bf ef       	ldi	r27, 0xFF	; 255
    1d34:	0e 94 ab 32 	call	0x6556	; 0x6556 <__mulhisi3>
    1d38:	cd 54       	subi	r28, 0x4D	; 77
    1d3a:	df 4f       	sbci	r29, 0xFF	; 255
    1d3c:	68 83       	st	Y, r22
    1d3e:	79 83       	std	Y+1, r23	; 0x01
    1d40:	8a 83       	std	Y+2, r24	; 0x02
    1d42:	9b 83       	std	Y+3, r25	; 0x03
    1d44:	c3 5b       	subi	r28, 0xB3	; 179
    1d46:	d0 40       	sbci	r29, 0x00	; 0
    1d48:	86 0e       	add	r8, r22
    1d4a:	97 1e       	adc	r9, r23
    1d4c:	a8 1e       	adc	r10, r24
    1d4e:	b9 1e       	adc	r11, r25
    acc += (int32_t)W_hr[12][9] * (int32_t)h_state[9];
    1d50:	2f 8d       	ldd	r18, Y+31	; 0x1f
    1d52:	38 a1       	ldd	r19, Y+32	; 0x20
    1d54:	49 a1       	ldd	r20, Y+33	; 0x21
    1d56:	5a a1       	ldd	r21, Y+34	; 0x22
    1d58:	82 0e       	add	r8, r18
    1d5a:	93 1e       	adc	r9, r19
    1d5c:	a4 1e       	adc	r10, r20
    1d5e:	b5 1e       	adc	r11, r21
    acc += (int32_t)W_hr[12][10] * (int32_t)h_state[10];
    1d60:	2f 85       	ldd	r18, Y+15	; 0x0f
    1d62:	38 89       	ldd	r19, Y+16	; 0x10
    1d64:	a8 ee       	ldi	r26, 0xE8	; 232
    1d66:	bf ef       	ldi	r27, 0xFF	; 255
    1d68:	0e 94 ab 32 	call	0x6556	; 0x6556 <__mulhisi3>
    1d6c:	c1 5e       	subi	r28, 0xE1	; 225
    1d6e:	de 4f       	sbci	r29, 0xFE	; 254
    1d70:	68 83       	st	Y, r22
    1d72:	79 83       	std	Y+1, r23	; 0x01
    1d74:	8a 83       	std	Y+2, r24	; 0x02
    1d76:	9b 83       	std	Y+3, r25	; 0x03
    1d78:	cf 51       	subi	r28, 0x1F	; 31
    1d7a:	d1 40       	sbci	r29, 0x01	; 1
    1d7c:	86 0e       	add	r8, r22
    1d7e:	97 1e       	adc	r9, r23
    1d80:	a8 1e       	adc	r10, r24
    1d82:	b9 1e       	adc	r11, r25
    acc += (int32_t)W_hr[12][11] * (int32_t)h_state[11];
    1d84:	8f a1       	ldd	r24, Y+39	; 0x27
    1d86:	98 a5       	ldd	r25, Y+40	; 0x28
    1d88:	a9 a5       	ldd	r26, Y+41	; 0x29
    1d8a:	ba a5       	ldd	r27, Y+42	; 0x2a
    1d8c:	88 0e       	add	r8, r24
    1d8e:	99 1e       	adc	r9, r25
    1d90:	aa 1e       	adc	r10, r26
    1d92:	bb 1e       	adc	r11, r27
    acc += (int32_t)W_hr[12][12] * (int32_t)h_state[12];
    1d94:	98 01       	movw	r18, r16
    1d96:	a7 ec       	ldi	r26, 0xC7	; 199
    1d98:	bf ef       	ldi	r27, 0xFF	; 255
    1d9a:	0e 94 ab 32 	call	0x6556	; 0x6556 <__mulhisi3>
    1d9e:	86 0e       	add	r8, r22
    1da0:	97 1e       	adc	r9, r23
    1da2:	a8 1e       	adc	r10, r24
    1da4:	b9 1e       	adc	r11, r25
    acc += (int32_t)W_hr[12][13] * (int32_t)h_state[13];
    1da6:	6f 96       	adiw	r28, 0x1f	; 31
    1da8:	2c ad       	ldd	r18, Y+60	; 0x3c
    1daa:	3d ad       	ldd	r19, Y+61	; 0x3d
    1dac:	4e ad       	ldd	r20, Y+62	; 0x3e
    1dae:	5f ad       	ldd	r21, Y+63	; 0x3f
    1db0:	6f 97       	sbiw	r28, 0x1f	; 31
    1db2:	82 0e       	add	r8, r18
    1db4:	93 1e       	adc	r9, r19
    1db6:	a4 1e       	adc	r10, r20
    1db8:	b5 1e       	adc	r11, r21
    acc += (int32_t)W_hr[12][14] * (int32_t)h_state[14];
    1dba:	2d 8d       	ldd	r18, Y+29	; 0x1d
    1dbc:	3e 8d       	ldd	r19, Y+30	; 0x1e
    1dbe:	aa ec       	ldi	r26, 0xCA	; 202
    1dc0:	bf ef       	ldi	r27, 0xFF	; 255
    1dc2:	0e 94 ab 32 	call	0x6556	; 0x6556 <__mulhisi3>
    1dc6:	86 0e       	add	r8, r22
    1dc8:	97 1e       	adc	r9, r23
    1dca:	a8 1e       	adc	r10, r24
    1dcc:	b9 1e       	adc	r11, r25
    acc += (int32_t)W_hr[12][15] * (int32_t)h_state[15];
    1dce:	2f e2       	ldi	r18, 0x2F	; 47
    1dd0:	30 e0       	ldi	r19, 0x00	; 0
    1dd2:	ab 89       	ldd	r26, Y+19	; 0x13
    1dd4:	bc 89       	ldd	r27, Y+20	; 0x14
    1dd6:	0e 94 c2 32 	call	0x6584	; 0x6584 <__usmulhisi3>
    1dda:	cd 5d       	subi	r28, 0xDD	; 221
    1ddc:	de 4f       	sbci	r29, 0xFE	; 254
    1dde:	68 83       	st	Y, r22
    1de0:	79 83       	std	Y+1, r23	; 0x01
    1de2:	8a 83       	std	Y+2, r24	; 0x02
    1de4:	9b 83       	std	Y+3, r25	; 0x03
    1de6:	c3 52       	subi	r28, 0x23	; 35
    1de8:	d1 40       	sbci	r29, 0x01	; 1
    1dea:	dc 01       	movw	r26, r24
    1dec:	cb 01       	movw	r24, r22
    1dee:	88 0d       	add	r24, r8
    1df0:	99 1d       	adc	r25, r9
    1df2:	aa 1d       	adc	r26, r10
    1df4:	bb 1d       	adc	r27, r11
    acc >>= FRAC_BITS;
    1df6:	f6 e0       	ldi	r31, 0x06	; 6
    1df8:	b5 95       	asr	r27
    1dfa:	a7 95       	ror	r26
    1dfc:	97 95       	ror	r25
    1dfe:	87 95       	ror	r24
    1e00:	fa 95       	dec	r31
    1e02:	d1 f7       	brne	.-12     	; 0x1df8 <__LOCK_REGION_LENGTH__+0x19f8>
static inline int16_t fp_mul(int16_t a, int16_t b) {
    return (int16_t)(((int32_t)a * (int32_t)b) >> FRAC_BITS);
}

static inline int16_t fp_sat32(int32_t v) {
    if (v > FP_MAX) return FP_MAX;
    1e04:	81 15       	cp	r24, r1
    1e06:	30 e8       	ldi	r19, 0x80	; 128
    1e08:	93 07       	cpc	r25, r19
    1e0a:	a1 05       	cpc	r26, r1
    1e0c:	b1 05       	cpc	r27, r1
    1e0e:	14 f0       	brlt	.+4      	; 0x1e14 <__LOCK_REGION_LENGTH__+0x1a14>
    1e10:	0c 94 e2 31 	jmp	0x63c4	; 0x63c4 <__stack+0x41c5>
    if (v < FP_MIN) return FP_MIN;
    1e14:	81 15       	cp	r24, r1
    1e16:	40 e8       	ldi	r20, 0x80	; 128
    1e18:	94 07       	cpc	r25, r20
    1e1a:	4f ef       	ldi	r20, 0xFF	; 255
    1e1c:	a4 07       	cpc	r26, r20
    1e1e:	b4 07       	cpc	r27, r20
    1e20:	14 f4       	brge	.+4      	; 0x1e26 <__LOCK_REGION_LENGTH__+0x1a26>
    1e22:	0c 94 e6 31 	jmp	0x63cc	; 0x63cc <__stack+0x41cd>
    acc += (int32_t)W_hr[12][12] * (int32_t)h_state[12];
    acc += (int32_t)W_hr[12][13] * (int32_t)h_state[13];
    acc += (int32_t)W_hr[12][14] * (int32_t)h_state[14];
    acc += (int32_t)W_hr[12][15] * (int32_t)h_state[15];
    acc >>= FRAC_BITS;
    r[12] = fp_sigmoid(fp_sat32(acc));
    1e26:	0e 94 b5 00 	call	0x16a	; 0x16a <_ZL10fp_sigmoidi>
    1e2a:	c1 57       	subi	r28, 0x71	; 113
    1e2c:	de 4f       	sbci	r29, 0xFE	; 254
    1e2e:	99 83       	std	Y+1, r25	; 0x01
    1e30:	88 83       	st	Y, r24
    1e32:	cf 58       	subi	r28, 0x8F	; 143
    1e34:	d1 40       	sbci	r29, 0x01	; 1
    acc += (int32_t)W_ir[13][61] * (int32_t)x[61];
    acc += (int32_t)W_ir[13][62] * (int32_t)x[62];
    acc += (int32_t)W_ir[13][63] * (int32_t)x[63];
    acc >>= FRAC_BITS;
    acc += (int32_t)b_hr[13];
    acc += (int32_t)W_hr[13][0] * (int32_t)h_state[0];
    1e36:	2d e2       	ldi	r18, 0x2D	; 45
    1e38:	30 e0       	ldi	r19, 0x00	; 0
    1e3a:	ab 85       	ldd	r26, Y+11	; 0x0b
    1e3c:	bc 85       	ldd	r27, Y+12	; 0x0c
    1e3e:	0e 94 c2 32 	call	0x6584	; 0x6584 <__usmulhisi3>
    1e42:	2b 01       	movw	r4, r22
    1e44:	3c 01       	movw	r6, r24
    1e46:	5e ed       	ldi	r21, 0xDE	; 222
    1e48:	45 1a       	sub	r4, r21
    1e4a:	51 08       	sbc	r5, r1
    1e4c:	61 08       	sbc	r6, r1
    1e4e:	71 08       	sbc	r7, r1
    acc += (int32_t)W_hr[13][1] * (int32_t)h_state[1];
    1e50:	2f e0       	ldi	r18, 0x0F	; 15
    1e52:	30 e0       	ldi	r19, 0x00	; 0
    1e54:	af 81       	ldd	r26, Y+7	; 0x07
    1e56:	b8 85       	ldd	r27, Y+8	; 0x08
    1e58:	0e 94 c2 32 	call	0x6584	; 0x6584 <__usmulhisi3>
    1e5c:	46 0e       	add	r4, r22
    1e5e:	57 1e       	adc	r5, r23
    1e60:	68 1e       	adc	r6, r24
    1e62:	79 1e       	adc	r7, r25
    acc += (int32_t)W_hr[13][2] * (int32_t)h_state[2];
    1e64:	8b a5       	ldd	r24, Y+43	; 0x2b
    1e66:	9c a5       	ldd	r25, Y+44	; 0x2c
    1e68:	ad a5       	ldd	r26, Y+45	; 0x2d
    1e6a:	be a5       	ldd	r27, Y+46	; 0x2e
    1e6c:	48 0e       	add	r4, r24
    1e6e:	59 1e       	adc	r5, r25
    1e70:	6a 1e       	adc	r6, r26
    1e72:	7b 1e       	adc	r7, r27
    acc += (int32_t)W_hr[13][3] * (int32_t)h_state[3];
    1e74:	91 01       	movw	r18, r2
    1e76:	ab ef       	ldi	r26, 0xFB	; 251
    1e78:	bf ef       	ldi	r27, 0xFF	; 255
    1e7a:	0e 94 ab 32 	call	0x6556	; 0x6556 <__mulhisi3>
    1e7e:	46 0e       	add	r4, r22
    1e80:	57 1e       	adc	r5, r23
    1e82:	68 1e       	adc	r6, r24
    1e84:	79 1e       	adc	r7, r25
    acc += (int32_t)W_hr[13][4] * (int32_t)h_state[4];
    1e86:	27 e0       	ldi	r18, 0x07	; 7
    1e88:	30 e0       	ldi	r19, 0x00	; 0
    1e8a:	ad 81       	ldd	r26, Y+5	; 0x05
    1e8c:	be 81       	ldd	r27, Y+6	; 0x06
    1e8e:	0e 94 c2 32 	call	0x6584	; 0x6584 <__usmulhisi3>
    1e92:	46 0e       	add	r4, r22
    1e94:	57 1e       	adc	r5, r23
    1e96:	68 1e       	adc	r6, r24
    1e98:	79 1e       	adc	r7, r25
    acc += (int32_t)W_hr[13][5] * (int32_t)h_state[5];
    1e9a:	25 e2       	ldi	r18, 0x25	; 37
    1e9c:	30 e0       	ldi	r19, 0x00	; 0
    1e9e:	ad 85       	ldd	r26, Y+13	; 0x0d
    1ea0:	be 85       	ldd	r27, Y+14	; 0x0e
    1ea2:	0e 94 c2 32 	call	0x6584	; 0x6584 <__usmulhisi3>
    1ea6:	46 0e       	add	r4, r22
    1ea8:	57 1e       	adc	r5, r23
    1eaa:	68 1e       	adc	r6, r24
    1eac:	79 1e       	adc	r7, r25
    acc += (int32_t)W_hr[13][6] * (int32_t)h_state[6];
    1eae:	23 e3       	ldi	r18, 0x33	; 51
    1eb0:	30 e0       	ldi	r19, 0x00	; 0
    1eb2:	c9 56       	subi	r28, 0x69	; 105
    1eb4:	de 4f       	sbci	r29, 0xFE	; 254
    1eb6:	a8 81       	ld	r26, Y
    1eb8:	b9 81       	ldd	r27, Y+1	; 0x01
    1eba:	c7 59       	subi	r28, 0x97	; 151
    1ebc:	d1 40       	sbci	r29, 0x01	; 1
    1ebe:	0e 94 c2 32 	call	0x6584	; 0x6584 <__usmulhisi3>
    1ec2:	46 0e       	add	r4, r22
    1ec4:	57 1e       	adc	r5, r23
    1ec6:	68 1e       	adc	r6, r24
    1ec8:	79 1e       	adc	r7, r25
    acc += (int32_t)W_hr[13][7] * (int32_t)h_state[7];
    1eca:	29 89       	ldd	r18, Y+17	; 0x11
    1ecc:	3a 89       	ldd	r19, Y+18	; 0x12
    1ece:	aa ef       	ldi	r26, 0xFA	; 250
    1ed0:	bf ef       	ldi	r27, 0xFF	; 255
    1ed2:	0e 94 ab 32 	call	0x6556	; 0x6556 <__mulhisi3>
    1ed6:	a3 96       	adiw	r28, 0x23	; 35
    1ed8:	6c af       	std	Y+60, r22	; 0x3c
    1eda:	7d af       	std	Y+61, r23	; 0x3d
    1edc:	8e af       	std	Y+62, r24	; 0x3e
    1ede:	9f af       	std	Y+63, r25	; 0x3f
    1ee0:	a3 97       	sbiw	r28, 0x23	; 35
    1ee2:	46 0e       	add	r4, r22
    1ee4:	57 1e       	adc	r5, r23
    1ee6:	68 1e       	adc	r6, r24
    1ee8:	79 1e       	adc	r7, r25
    acc += (int32_t)W_hr[13][8] * (int32_t)h_state[8];
    1eea:	a7 96       	adiw	r28, 0x27	; 39
    1eec:	2c ad       	ldd	r18, Y+60	; 0x3c
    1eee:	3d ad       	ldd	r19, Y+61	; 0x3d
    1ef0:	4e ad       	ldd	r20, Y+62	; 0x3e
    1ef2:	5f ad       	ldd	r21, Y+63	; 0x3f
    1ef4:	a7 97       	sbiw	r28, 0x27	; 39
    1ef6:	42 0e       	add	r4, r18
    1ef8:	53 1e       	adc	r5, r19
    1efa:	64 1e       	adc	r6, r20
    1efc:	75 1e       	adc	r7, r21
    acc += (int32_t)W_hr[13][9] * (int32_t)h_state[9];
    1efe:	23 e1       	ldi	r18, 0x13	; 19
    1f00:	30 e0       	ldi	r19, 0x00	; 0
    1f02:	a9 85       	ldd	r26, Y+9	; 0x09
    1f04:	ba 85       	ldd	r27, Y+10	; 0x0a
    1f06:	0e 94 c2 32 	call	0x6584	; 0x6584 <__usmulhisi3>
    1f0a:	4b 01       	movw	r8, r22
    1f0c:	5c 01       	movw	r10, r24
    1f0e:	48 0c       	add	r4, r8
    1f10:	59 1c       	adc	r5, r9
    1f12:	6a 1c       	adc	r6, r10
    1f14:	7b 1c       	adc	r7, r11
    acc += (int32_t)W_hr[13][10] * (int32_t)h_state[10];
    1f16:	2f 85       	ldd	r18, Y+15	; 0x0f
    1f18:	38 89       	ldd	r19, Y+16	; 0x10
    1f1a:	a9 ee       	ldi	r26, 0xE9	; 233
    1f1c:	bf ef       	ldi	r27, 0xFF	; 255
    1f1e:	0e 94 ab 32 	call	0x6556	; 0x6556 <__mulhisi3>
    1f22:	c9 5d       	subi	r28, 0xD9	; 217
    1f24:	de 4f       	sbci	r29, 0xFE	; 254
    1f26:	68 83       	st	Y, r22
    1f28:	79 83       	std	Y+1, r23	; 0x01
    1f2a:	8a 83       	std	Y+2, r24	; 0x02
    1f2c:	9b 83       	std	Y+3, r25	; 0x03
    1f2e:	c7 52       	subi	r28, 0x27	; 39
    1f30:	d1 40       	sbci	r29, 0x01	; 1
    1f32:	46 0e       	add	r4, r22
    1f34:	57 1e       	adc	r5, r23
    1f36:	68 1e       	adc	r6, r24
    1f38:	79 1e       	adc	r7, r25
    acc += (int32_t)W_hr[13][11] * (int32_t)h_state[11];
    1f3a:	29 8d       	ldd	r18, Y+25	; 0x19
    1f3c:	3a 8d       	ldd	r19, Y+26	; 0x1a
    1f3e:	ad ef       	ldi	r26, 0xFD	; 253
    1f40:	bf ef       	ldi	r27, 0xFF	; 255
    1f42:	0e 94 ab 32 	call	0x6556	; 0x6556 <__mulhisi3>
    1f46:	46 0e       	add	r4, r22
    1f48:	57 1e       	adc	r5, r23
    1f4a:	68 1e       	adc	r6, r24
    1f4c:	79 1e       	adc	r7, r25
    acc += (int32_t)W_hr[13][12] * (int32_t)h_state[12];
    1f4e:	98 01       	movw	r18, r16
    1f50:	a3 ed       	ldi	r26, 0xD3	; 211
    1f52:	bf ef       	ldi	r27, 0xFF	; 255
    1f54:	0e 94 ab 32 	call	0x6556	; 0x6556 <__mulhisi3>
    1f58:	46 0e       	add	r4, r22
    1f5a:	57 1e       	adc	r5, r23
    1f5c:	68 1e       	adc	r6, r24
    1f5e:	79 1e       	adc	r7, r25
    acc += (int32_t)W_hr[13][13] * (int32_t)h_state[13];
    1f60:	2b 8d       	ldd	r18, Y+27	; 0x1b
    1f62:	3c 8d       	ldd	r19, Y+28	; 0x1c
    1f64:	a8 ec       	ldi	r26, 0xC8	; 200
    1f66:	bf ef       	ldi	r27, 0xFF	; 255
    1f68:	0e 94 ab 32 	call	0x6556	; 0x6556 <__mulhisi3>
    1f6c:	46 0e       	add	r4, r22
    1f6e:	57 1e       	adc	r5, r23
    1f70:	68 1e       	adc	r6, r24
    1f72:	79 1e       	adc	r7, r25
    acc += (int32_t)W_hr[13][14] * (int32_t)h_state[14];
    1f74:	2d 8d       	ldd	r18, Y+29	; 0x1d
    1f76:	3e 8d       	ldd	r19, Y+30	; 0x1e
    1f78:	ad ec       	ldi	r26, 0xCD	; 205
    1f7a:	bf ef       	ldi	r27, 0xFF	; 255
    1f7c:	0e 94 ab 32 	call	0x6556	; 0x6556 <__mulhisi3>
    1f80:	46 0e       	add	r4, r22
    1f82:	57 1e       	adc	r5, r23
    1f84:	68 1e       	adc	r6, r24
    1f86:	79 1e       	adc	r7, r25
    acc += (int32_t)W_hr[13][15] * (int32_t)h_state[15];
    1f88:	23 e3       	ldi	r18, 0x33	; 51
    1f8a:	30 e0       	ldi	r19, 0x00	; 0
    1f8c:	ab 89       	ldd	r26, Y+19	; 0x13
    1f8e:	bc 89       	ldd	r27, Y+20	; 0x14
    1f90:	0e 94 c2 32 	call	0x6584	; 0x6584 <__usmulhisi3>
    1f94:	dc 01       	movw	r26, r24
    1f96:	cb 01       	movw	r24, r22
    1f98:	84 0d       	add	r24, r4
    1f9a:	95 1d       	adc	r25, r5
    1f9c:	a6 1d       	adc	r26, r6
    1f9e:	b7 1d       	adc	r27, r7
    acc >>= FRAC_BITS;
    1fa0:	66 e0       	ldi	r22, 0x06	; 6
    1fa2:	b5 95       	asr	r27
    1fa4:	a7 95       	ror	r26
    1fa6:	97 95       	ror	r25
    1fa8:	87 95       	ror	r24
    1faa:	6a 95       	dec	r22
    1fac:	d1 f7       	brne	.-12     	; 0x1fa2 <__LOCK_REGION_LENGTH__+0x1ba2>
static inline int16_t fp_mul(int16_t a, int16_t b) {
    return (int16_t)(((int32_t)a * (int32_t)b) >> FRAC_BITS);
}

static inline int16_t fp_sat32(int32_t v) {
    if (v > FP_MAX) return FP_MAX;
    1fae:	81 15       	cp	r24, r1
    1fb0:	30 e8       	ldi	r19, 0x80	; 128
    1fb2:	93 07       	cpc	r25, r19
    1fb4:	a1 05       	cpc	r26, r1
    1fb6:	b1 05       	cpc	r27, r1
    1fb8:	14 f0       	brlt	.+4      	; 0x1fbe <__LOCK_REGION_LENGTH__+0x1bbe>
    1fba:	0c 94 ea 31 	jmp	0x63d4	; 0x63d4 <__stack+0x41d5>
    if (v < FP_MIN) return FP_MIN;
    1fbe:	81 15       	cp	r24, r1
    1fc0:	40 e8       	ldi	r20, 0x80	; 128
    1fc2:	94 07       	cpc	r25, r20
    1fc4:	4f ef       	ldi	r20, 0xFF	; 255
    1fc6:	a4 07       	cpc	r26, r20
    1fc8:	b4 07       	cpc	r27, r20
    1fca:	14 f4       	brge	.+4      	; 0x1fd0 <__LOCK_REGION_LENGTH__+0x1bd0>
    1fcc:	0c 94 ee 31 	jmp	0x63dc	; 0x63dc <__stack+0x41dd>
    acc += (int32_t)W_hr[13][12] * (int32_t)h_state[12];
    acc += (int32_t)W_hr[13][13] * (int32_t)h_state[13];
    acc += (int32_t)W_hr[13][14] * (int32_t)h_state[14];
    acc += (int32_t)W_hr[13][15] * (int32_t)h_state[15];
    acc >>= FRAC_BITS;
    r[13] = fp_sigmoid(fp_sat32(acc));
    1fd0:	0e 94 b5 00 	call	0x16a	; 0x16a <_ZL10fp_sigmoidi>
    1fd4:	cf 56       	subi	r28, 0x6F	; 111
    1fd6:	de 4f       	sbci	r29, 0xFE	; 254
    1fd8:	99 83       	std	Y+1, r25	; 0x01
    1fda:	88 83       	st	Y, r24
    1fdc:	c1 59       	subi	r28, 0x91	; 145
    1fde:	d1 40       	sbci	r29, 0x01	; 1
    acc += (int32_t)W_ir[14][61] * (int32_t)x[61];
    acc += (int32_t)W_ir[14][62] * (int32_t)x[62];
    acc += (int32_t)W_ir[14][63] * (int32_t)x[63];
    acc >>= FRAC_BITS;
    acc += (int32_t)b_hr[14];
    acc += (int32_t)W_hr[14][0] * (int32_t)h_state[0];
    1fe0:	2b 85       	ldd	r18, Y+11	; 0x0b
    1fe2:	3c 85       	ldd	r19, Y+12	; 0x0c
    1fe4:	ac ee       	ldi	r26, 0xEC	; 236
    1fe6:	bf ef       	ldi	r27, 0xFF	; 255
    1fe8:	0e 94 ab 32 	call	0x6556	; 0x6556 <__mulhisi3>
    1fec:	c5 5d       	subi	r28, 0xD5	; 213
    1fee:	de 4f       	sbci	r29, 0xFE	; 254
    1ff0:	68 83       	st	Y, r22
    1ff2:	79 83       	std	Y+1, r23	; 0x01
    1ff4:	8a 83       	std	Y+2, r24	; 0x02
    1ff6:	9b 83       	std	Y+3, r25	; 0x03
    1ff8:	cb 52       	subi	r28, 0x2B	; 43
    1ffa:	d1 40       	sbci	r29, 0x01	; 1
    1ffc:	2b 01       	movw	r4, r22
    1ffe:	3c 01       	movw	r6, r24
    2000:	5b e0       	ldi	r21, 0x0B	; 11
    2002:	45 0e       	add	r4, r21
    2004:	51 1c       	adc	r5, r1
    2006:	61 1c       	adc	r6, r1
    2008:	71 1c       	adc	r7, r1
    acc += (int32_t)W_hr[14][1] * (int32_t)h_state[1];
    200a:	2b e1       	ldi	r18, 0x1B	; 27
    200c:	30 e0       	ldi	r19, 0x00	; 0
    200e:	af 81       	ldd	r26, Y+7	; 0x07
    2010:	b8 85       	ldd	r27, Y+8	; 0x08
    2012:	0e 94 c2 32 	call	0x6584	; 0x6584 <__usmulhisi3>
    2016:	46 0e       	add	r4, r22
    2018:	57 1e       	adc	r5, r23
    201a:	68 1e       	adc	r6, r24
    201c:	79 1e       	adc	r7, r25
    acc += (int32_t)W_hr[14][2] * (int32_t)h_state[2];
    201e:	8b a5       	ldd	r24, Y+43	; 0x2b
    2020:	9c a5       	ldd	r25, Y+44	; 0x2c
    2022:	ad a5       	ldd	r26, Y+45	; 0x2d
    2024:	be a5       	ldd	r27, Y+46	; 0x2e
    2026:	48 0e       	add	r4, r24
    2028:	59 1e       	adc	r5, r25
    202a:	6a 1e       	adc	r6, r26
    202c:	7b 1e       	adc	r7, r27
    acc += (int32_t)W_hr[14][3] * (int32_t)h_state[3];
    202e:	91 01       	movw	r18, r2
    2030:	a6 ed       	ldi	r26, 0xD6	; 214
    2032:	bf ef       	ldi	r27, 0xFF	; 255
    2034:	0e 94 ab 32 	call	0x6556	; 0x6556 <__mulhisi3>
    2038:	46 0e       	add	r4, r22
    203a:	57 1e       	adc	r5, r23
    203c:	68 1e       	adc	r6, r24
    203e:	79 1e       	adc	r7, r25
    acc += (int32_t)W_hr[14][4] * (int32_t)h_state[4];
    2040:	2d 81       	ldd	r18, Y+5	; 0x05
    2042:	3e 81       	ldd	r19, Y+6	; 0x06
    2044:	a0 ee       	ldi	r26, 0xE0	; 224
    2046:	bf ef       	ldi	r27, 0xFF	; 255
    2048:	0e 94 ab 32 	call	0x6556	; 0x6556 <__mulhisi3>
    204c:	46 0e       	add	r4, r22
    204e:	57 1e       	adc	r5, r23
    2050:	68 1e       	adc	r6, r24
    2052:	79 1e       	adc	r7, r25
    acc += (int32_t)W_hr[14][5] * (int32_t)h_state[5];
    2054:	2d 85       	ldd	r18, Y+13	; 0x0d
    2056:	3e 85       	ldd	r19, Y+14	; 0x0e
    2058:	a8 ef       	ldi	r26, 0xF8	; 248
    205a:	bf ef       	ldi	r27, 0xFF	; 255
    205c:	0e 94 ab 32 	call	0x6556	; 0x6556 <__mulhisi3>
    2060:	c1 5d       	subi	r28, 0xD1	; 209
    2062:	de 4f       	sbci	r29, 0xFE	; 254
    2064:	68 83       	st	Y, r22
    2066:	79 83       	std	Y+1, r23	; 0x01
    2068:	8a 83       	std	Y+2, r24	; 0x02
    206a:	9b 83       	std	Y+3, r25	; 0x03
    206c:	cf 52       	subi	r28, 0x2F	; 47
    206e:	d1 40       	sbci	r29, 0x01	; 1
    2070:	46 0e       	add	r4, r22
    2072:	57 1e       	adc	r5, r23
    2074:	68 1e       	adc	r6, r24
    2076:	79 1e       	adc	r7, r25
    acc += (int32_t)W_hr[14][6] * (int32_t)h_state[6];
    2078:	c9 56       	subi	r28, 0x69	; 105
    207a:	de 4f       	sbci	r29, 0xFE	; 254
    207c:	28 81       	ld	r18, Y
    207e:	39 81       	ldd	r19, Y+1	; 0x01
    2080:	c7 59       	subi	r28, 0x97	; 151
    2082:	d1 40       	sbci	r29, 0x01	; 1
    2084:	0e 94 ab 32 	call	0x6556	; 0x6556 <__mulhisi3>
    2088:	46 0e       	add	r4, r22
    208a:	57 1e       	adc	r5, r23
    208c:	68 1e       	adc	r6, r24
    208e:	79 1e       	adc	r7, r25
    acc += (int32_t)W_hr[14][7] * (int32_t)h_state[7];
    2090:	23 e0       	ldi	r18, 0x03	; 3
    2092:	30 e0       	ldi	r19, 0x00	; 0
    2094:	a9 89       	ldd	r26, Y+17	; 0x11
    2096:	ba 89       	ldd	r27, Y+18	; 0x12
    2098:	0e 94 c2 32 	call	0x6584	; 0x6584 <__usmulhisi3>
    209c:	46 0e       	add	r4, r22
    209e:	57 1e       	adc	r5, r23
    20a0:	68 1e       	adc	r6, r24
    20a2:	79 1e       	adc	r7, r25
    acc += (int32_t)W_hr[14][8] * (int32_t)h_state[8];
    20a4:	2f 89       	ldd	r18, Y+23	; 0x17
    20a6:	38 8d       	ldd	r19, Y+24	; 0x18
    20a8:	a4 ed       	ldi	r26, 0xD4	; 212
    20aa:	bf ef       	ldi	r27, 0xFF	; 255
    20ac:	0e 94 ab 32 	call	0x6556	; 0x6556 <__mulhisi3>
    20b0:	46 0e       	add	r4, r22
    20b2:	57 1e       	adc	r5, r23
    20b4:	68 1e       	adc	r6, r24
    20b6:	79 1e       	adc	r7, r25
    acc += (int32_t)W_hr[14][9] * (int32_t)h_state[9];
    20b8:	29 85       	ldd	r18, Y+9	; 0x09
    20ba:	3a 85       	ldd	r19, Y+10	; 0x0a
    20bc:	a0 ef       	ldi	r26, 0xF0	; 240
    20be:	bf ef       	ldi	r27, 0xFF	; 255
    20c0:	0e 94 ab 32 	call	0x6556	; 0x6556 <__mulhisi3>
    20c4:	46 0e       	add	r4, r22
    20c6:	57 1e       	adc	r5, r23
    20c8:	68 1e       	adc	r6, r24
    20ca:	79 1e       	adc	r7, r25
    acc += (int32_t)W_hr[14][10] * (int32_t)h_state[10];
    20cc:	2f 85       	ldd	r18, Y+15	; 0x0f
    20ce:	38 89       	ldd	r19, Y+16	; 0x10
    20d0:	a4 ee       	ldi	r26, 0xE4	; 228
    20d2:	bf ef       	ldi	r27, 0xFF	; 255
    20d4:	0e 94 ab 32 	call	0x6556	; 0x6556 <__mulhisi3>
    20d8:	46 0e       	add	r4, r22
    20da:	57 1e       	adc	r5, r23
    20dc:	68 1e       	adc	r6, r24
    20de:	79 1e       	adc	r7, r25
    acc += (int32_t)W_hr[14][11] * (int32_t)h_state[11];
    20e0:	29 8d       	ldd	r18, Y+25	; 0x19
    20e2:	3a 8d       	ldd	r19, Y+26	; 0x1a
    20e4:	a4 ef       	ldi	r26, 0xF4	; 244
    20e6:	bf ef       	ldi	r27, 0xFF	; 255
    20e8:	0e 94 ab 32 	call	0x6556	; 0x6556 <__mulhisi3>
    20ec:	46 0e       	add	r4, r22
    20ee:	57 1e       	adc	r5, r23
    20f0:	68 1e       	adc	r6, r24
    20f2:	79 1e       	adc	r7, r25
    acc += (int32_t)W_hr[14][12] * (int32_t)h_state[12];
    20f4:	27 96       	adiw	r28, 0x07	; 7
    20f6:	2c ad       	ldd	r18, Y+60	; 0x3c
    20f8:	3d ad       	ldd	r19, Y+61	; 0x3d
    20fa:	4e ad       	ldd	r20, Y+62	; 0x3e
    20fc:	5f ad       	ldd	r21, Y+63	; 0x3f
    20fe:	27 97       	sbiw	r28, 0x07	; 7
    2100:	42 0e       	add	r4, r18
    2102:	53 1e       	adc	r5, r19
    2104:	64 1e       	adc	r6, r20
    2106:	75 1e       	adc	r7, r21
    acc += (int32_t)W_hr[14][13] * (int32_t)h_state[13];
    2108:	2d e0       	ldi	r18, 0x0D	; 13
    210a:	30 e0       	ldi	r19, 0x00	; 0
    210c:	ab 8d       	ldd	r26, Y+27	; 0x1b
    210e:	bc 8d       	ldd	r27, Y+28	; 0x1c
    2110:	0e 94 c2 32 	call	0x6584	; 0x6584 <__usmulhisi3>
    2114:	46 0e       	add	r4, r22
    2116:	57 1e       	adc	r5, r23
    2118:	68 1e       	adc	r6, r24
    211a:	79 1e       	adc	r7, r25
    acc += (int32_t)W_hr[14][14] * (int32_t)h_state[14];
    211c:	25 e2       	ldi	r18, 0x25	; 37
    211e:	30 e0       	ldi	r19, 0x00	; 0
    2120:	ad 8d       	ldd	r26, Y+29	; 0x1d
    2122:	be 8d       	ldd	r27, Y+30	; 0x1e
    2124:	0e 94 c2 32 	call	0x6584	; 0x6584 <__usmulhisi3>
    2128:	46 0e       	add	r4, r22
    212a:	57 1e       	adc	r5, r23
    212c:	68 1e       	adc	r6, r24
    212e:	79 1e       	adc	r7, r25
    acc += (int32_t)W_hr[14][15] * (int32_t)h_state[15];
    2130:	23 e1       	ldi	r18, 0x13	; 19
    2132:	30 e0       	ldi	r19, 0x00	; 0
    2134:	ab 89       	ldd	r26, Y+19	; 0x13
    2136:	bc 89       	ldd	r27, Y+20	; 0x14
    2138:	0e 94 c2 32 	call	0x6584	; 0x6584 <__usmulhisi3>
    213c:	dc 01       	movw	r26, r24
    213e:	cb 01       	movw	r24, r22
    2140:	84 0d       	add	r24, r4
    2142:	95 1d       	adc	r25, r5
    2144:	a6 1d       	adc	r26, r6
    2146:	b7 1d       	adc	r27, r7
    acc >>= FRAC_BITS;
    2148:	56 e0       	ldi	r21, 0x06	; 6
    214a:	b5 95       	asr	r27
    214c:	a7 95       	ror	r26
    214e:	97 95       	ror	r25
    2150:	87 95       	ror	r24
    2152:	5a 95       	dec	r21
    2154:	d1 f7       	brne	.-12     	; 0x214a <__LOCK_REGION_LENGTH__+0x1d4a>
static inline int16_t fp_mul(int16_t a, int16_t b) {
    return (int16_t)(((int32_t)a * (int32_t)b) >> FRAC_BITS);
}

static inline int16_t fp_sat32(int32_t v) {
    if (v > FP_MAX) return FP_MAX;
    2156:	81 15       	cp	r24, r1
    2158:	30 e8       	ldi	r19, 0x80	; 128
    215a:	93 07       	cpc	r25, r19
    215c:	a1 05       	cpc	r26, r1
    215e:	b1 05       	cpc	r27, r1
    2160:	14 f0       	brlt	.+4      	; 0x2166 <__LOCK_REGION_LENGTH__+0x1d66>
    2162:	0c 94 f2 31 	jmp	0x63e4	; 0x63e4 <__stack+0x41e5>
    if (v < FP_MIN) return FP_MIN;
    2166:	81 15       	cp	r24, r1
    2168:	40 e8       	ldi	r20, 0x80	; 128
    216a:	94 07       	cpc	r25, r20
    216c:	4f ef       	ldi	r20, 0xFF	; 255
    216e:	a4 07       	cpc	r26, r20
    2170:	b4 07       	cpc	r27, r20
    2172:	14 f4       	brge	.+4      	; 0x2178 <__LOCK_REGION_LENGTH__+0x1d78>
    2174:	0c 94 f6 31 	jmp	0x63ec	; 0x63ec <__stack+0x41ed>
    acc += (int32_t)W_hr[14][12] * (int32_t)h_state[12];
    acc += (int32_t)W_hr[14][13] * (int32_t)h_state[13];
    acc += (int32_t)W_hr[14][14] * (int32_t)h_state[14];
    acc += (int32_t)W_hr[14][15] * (int32_t)h_state[15];
    acc >>= FRAC_BITS;
    r[14] = fp_sigmoid(fp_sat32(acc));
    2178:	0e 94 b5 00 	call	0x16a	; 0x16a <_ZL10fp_sigmoidi>
    217c:	cd 56       	subi	r28, 0x6D	; 109
    217e:	de 4f       	sbci	r29, 0xFE	; 254
    2180:	99 83       	std	Y+1, r25	; 0x01
    2182:	88 83       	st	Y, r24
    2184:	c3 59       	subi	r28, 0x93	; 147
    2186:	d1 40       	sbci	r29, 0x01	; 1
    acc += (int32_t)W_ir[15][61] * (int32_t)x[61];
    acc += (int32_t)W_ir[15][62] * (int32_t)x[62];
    acc += (int32_t)W_ir[15][63] * (int32_t)x[63];
    acc >>= FRAC_BITS;
    acc += (int32_t)b_hr[15];
    acc += (int32_t)W_hr[15][0] * (int32_t)h_state[0];
    2188:	2b 85       	ldd	r18, Y+11	; 0x0b
    218a:	3c 85       	ldd	r19, Y+12	; 0x0c
    218c:	a8 ec       	ldi	r26, 0xC8	; 200
    218e:	bf ef       	ldi	r27, 0xFF	; 255
    2190:	0e 94 ab 32 	call	0x6556	; 0x6556 <__mulhisi3>
    2194:	a7 96       	adiw	r28, 0x27	; 39
    2196:	6c af       	std	Y+60, r22	; 0x3c
    2198:	7d af       	std	Y+61, r23	; 0x3d
    219a:	8e af       	std	Y+62, r24	; 0x3e
    219c:	9f af       	std	Y+63, r25	; 0x3f
    219e:	a7 97       	sbiw	r28, 0x27	; 39
    21a0:	2b 01       	movw	r4, r22
    21a2:	3c 01       	movw	r6, r24
    21a4:	55 e7       	ldi	r21, 0x75	; 117
    21a6:	45 0e       	add	r4, r21
    21a8:	51 1c       	adc	r5, r1
    21aa:	61 1c       	adc	r6, r1
    21ac:	71 1c       	adc	r7, r1
    acc += (int32_t)W_hr[15][1] * (int32_t)h_state[1];
    21ae:	2f 81       	ldd	r18, Y+7	; 0x07
    21b0:	38 85       	ldd	r19, Y+8	; 0x08
    21b2:	ac ec       	ldi	r26, 0xCC	; 204
    21b4:	bf ef       	ldi	r27, 0xFF	; 255
    21b6:	0e 94 ab 32 	call	0x6556	; 0x6556 <__mulhisi3>
    21ba:	46 0e       	add	r4, r22
    21bc:	57 1e       	adc	r5, r23
    21be:	68 1e       	adc	r6, r24
    21c0:	79 1e       	adc	r7, r25
    acc += (int32_t)W_hr[15][2] * (int32_t)h_state[2];
    21c2:	27 e1       	ldi	r18, 0x17	; 23
    21c4:	30 e0       	ldi	r19, 0x00	; 0
    21c6:	ad 89       	ldd	r26, Y+21	; 0x15
    21c8:	be 89       	ldd	r27, Y+22	; 0x16
    21ca:	0e 94 c2 32 	call	0x6584	; 0x6584 <__usmulhisi3>
    21ce:	46 0e       	add	r4, r22
    21d0:	57 1e       	adc	r5, r23
    21d2:	68 1e       	adc	r6, r24
    21d4:	79 1e       	adc	r7, r25
    acc += (int32_t)W_hr[15][3] * (int32_t)h_state[3];
    21d6:	91 01       	movw	r18, r2
    21d8:	a4 ee       	ldi	r26, 0xE4	; 228
    21da:	bf ef       	ldi	r27, 0xFF	; 255
    21dc:	0e 94 ab 32 	call	0x6556	; 0x6556 <__mulhisi3>
    21e0:	46 0e       	add	r4, r22
    21e2:	57 1e       	adc	r5, r23
    21e4:	68 1e       	adc	r6, r24
    21e6:	79 1e       	adc	r7, r25
    acc += (int32_t)W_hr[15][4] * (int32_t)h_state[4];
    21e8:	2d e1       	ldi	r18, 0x1D	; 29
    21ea:	30 e0       	ldi	r19, 0x00	; 0
    21ec:	ad 81       	ldd	r26, Y+5	; 0x05
    21ee:	be 81       	ldd	r27, Y+6	; 0x06
    21f0:	0e 94 c2 32 	call	0x6584	; 0x6584 <__usmulhisi3>
    21f4:	46 0e       	add	r4, r22
    21f6:	57 1e       	adc	r5, r23
    21f8:	68 1e       	adc	r6, r24
    21fa:	79 1e       	adc	r7, r25
    acc += (int32_t)W_hr[15][5] * (int32_t)h_state[5];
    21fc:	24 e1       	ldi	r18, 0x14	; 20
    21fe:	30 e0       	ldi	r19, 0x00	; 0
    2200:	ad 85       	ldd	r26, Y+13	; 0x0d
    2202:	be 85       	ldd	r27, Y+14	; 0x0e
    2204:	0e 94 c2 32 	call	0x6584	; 0x6584 <__usmulhisi3>
    2208:	46 0e       	add	r4, r22
    220a:	57 1e       	adc	r5, r23
    220c:	68 1e       	adc	r6, r24
    220e:	79 1e       	adc	r7, r25
    acc += (int32_t)W_hr[15][6] * (int32_t)h_state[6];
    2210:	24 e3       	ldi	r18, 0x34	; 52
    2212:	30 e0       	ldi	r19, 0x00	; 0
    2214:	c9 56       	subi	r28, 0x69	; 105
    2216:	de 4f       	sbci	r29, 0xFE	; 254
    2218:	a8 81       	ld	r26, Y
    221a:	b9 81       	ldd	r27, Y+1	; 0x01
    221c:	c7 59       	subi	r28, 0x97	; 151
    221e:	d1 40       	sbci	r29, 0x01	; 1
    2220:	0e 94 c2 32 	call	0x6584	; 0x6584 <__usmulhisi3>
    2224:	46 0e       	add	r4, r22
    2226:	57 1e       	adc	r5, r23
    2228:	68 1e       	adc	r6, r24
    222a:	79 1e       	adc	r7, r25
    acc += (int32_t)W_hr[15][7] * (int32_t)h_state[7];
    222c:	20 e3       	ldi	r18, 0x30	; 48
    222e:	30 e0       	ldi	r19, 0x00	; 0
    2230:	a9 89       	ldd	r26, Y+17	; 0x11
    2232:	ba 89       	ldd	r27, Y+18	; 0x12
    2234:	0e 94 c2 32 	call	0x6584	; 0x6584 <__usmulhisi3>
    2238:	46 0e       	add	r4, r22
    223a:	57 1e       	adc	r5, r23
    223c:	68 1e       	adc	r6, r24
    223e:	79 1e       	adc	r7, r25
    acc += (int32_t)W_hr[15][8] * (int32_t)h_state[8];
    2240:	2f 89       	ldd	r18, Y+23	; 0x17
    2242:	38 8d       	ldd	r19, Y+24	; 0x18
    2244:	ab ee       	ldi	r26, 0xEB	; 235
    2246:	bf ef       	ldi	r27, 0xFF	; 255
    2248:	0e 94 ab 32 	call	0x6556	; 0x6556 <__mulhisi3>
    224c:	46 0e       	add	r4, r22
    224e:	57 1e       	adc	r5, r23
    2250:	68 1e       	adc	r6, r24
    2252:	79 1e       	adc	r7, r25
    acc += (int32_t)W_hr[15][9] * (int32_t)h_state[9];
    2254:	2b e0       	ldi	r18, 0x0B	; 11
    2256:	30 e0       	ldi	r19, 0x00	; 0
    2258:	a9 85       	ldd	r26, Y+9	; 0x09
    225a:	ba 85       	ldd	r27, Y+10	; 0x0a
    225c:	0e 94 c2 32 	call	0x6584	; 0x6584 <__usmulhisi3>
    2260:	46 0e       	add	r4, r22
    2262:	57 1e       	adc	r5, r23
    2264:	68 1e       	adc	r6, r24
    2266:	79 1e       	adc	r7, r25
    acc += (int32_t)W_hr[15][10] * (int32_t)h_state[10];
    2268:	2f 85       	ldd	r18, Y+15	; 0x0f
    226a:	38 89       	ldd	r19, Y+16	; 0x10
    226c:	a2 ed       	ldi	r26, 0xD2	; 210
    226e:	bf ef       	ldi	r27, 0xFF	; 255
    2270:	0e 94 ab 32 	call	0x6556	; 0x6556 <__mulhisi3>
    2274:	46 0e       	add	r4, r22
    2276:	57 1e       	adc	r5, r23
    2278:	68 1e       	adc	r6, r24
    227a:	79 1e       	adc	r7, r25
    acc += (int32_t)W_hr[15][11] * (int32_t)h_state[11];
    227c:	29 8d       	ldd	r18, Y+25	; 0x19
    227e:	3a 8d       	ldd	r19, Y+26	; 0x1a
    2280:	ad ee       	ldi	r26, 0xED	; 237
    2282:	bf ef       	ldi	r27, 0xFF	; 255
    2284:	0e 94 ab 32 	call	0x6556	; 0x6556 <__mulhisi3>
    2288:	46 0e       	add	r4, r22
    228a:	57 1e       	adc	r5, r23
    228c:	68 1e       	adc	r6, r24
    228e:	79 1e       	adc	r7, r25
    acc += (int32_t)W_hr[15][12] * (int32_t)h_state[12];
    2290:	2c e3       	ldi	r18, 0x3C	; 60
    2292:	30 e0       	ldi	r19, 0x00	; 0
    2294:	d8 01       	movw	r26, r16
    2296:	0e 94 c2 32 	call	0x6584	; 0x6584 <__usmulhisi3>
    229a:	46 0e       	add	r4, r22
    229c:	57 1e       	adc	r5, r23
    229e:	68 1e       	adc	r6, r24
    22a0:	79 1e       	adc	r7, r25
    acc += (int32_t)W_hr[15][13] * (int32_t)h_state[13];
    22a2:	29 e1       	ldi	r18, 0x19	; 25
    22a4:	30 e0       	ldi	r19, 0x00	; 0
    22a6:	ab 8d       	ldd	r26, Y+27	; 0x1b
    22a8:	bc 8d       	ldd	r27, Y+28	; 0x1c
    22aa:	0e 94 c2 32 	call	0x6584	; 0x6584 <__usmulhisi3>
    22ae:	46 0e       	add	r4, r22
    22b0:	57 1e       	adc	r5, r23
    22b2:	68 1e       	adc	r6, r24
    22b4:	79 1e       	adc	r7, r25
    acc += (int32_t)W_hr[15][14] * (int32_t)h_state[14];
    22b6:	2d 8d       	ldd	r18, Y+29	; 0x1d
    22b8:	3e 8d       	ldd	r19, Y+30	; 0x1e
    22ba:	a2 ef       	ldi	r26, 0xF2	; 242
    22bc:	bf ef       	ldi	r27, 0xFF	; 255
    22be:	0e 94 ab 32 	call	0x6556	; 0x6556 <__mulhisi3>
    22c2:	46 0e       	add	r4, r22
    22c4:	57 1e       	adc	r5, r23
    22c6:	68 1e       	adc	r6, r24
    22c8:	79 1e       	adc	r7, r25
    acc += (int32_t)W_hr[15][15] * (int32_t)h_state[15];
    22ca:	2c e0       	ldi	r18, 0x0C	; 12
    22cc:	30 e0       	ldi	r19, 0x00	; 0
    22ce:	ab 89       	ldd	r26, Y+19	; 0x13
    22d0:	bc 89       	ldd	r27, Y+20	; 0x14
    22d2:	0e 94 c2 32 	call	0x6584	; 0x6584 <__usmulhisi3>
    22d6:	dc 01       	movw	r26, r24
    22d8:	cb 01       	movw	r24, r22
    22da:	84 0d       	add	r24, r4
    22dc:	95 1d       	adc	r25, r5
    22de:	a6 1d       	adc	r26, r6
    22e0:	b7 1d       	adc	r27, r7
    acc >>= FRAC_BITS;
    22e2:	46 e0       	ldi	r20, 0x06	; 6
    22e4:	b5 95       	asr	r27
    22e6:	a7 95       	ror	r26
    22e8:	97 95       	ror	r25
    22ea:	87 95       	ror	r24
    22ec:	4a 95       	dec	r20
    22ee:	d1 f7       	brne	.-12     	; 0x22e4 <__stack+0xe5>
static inline int16_t fp_mul(int16_t a, int16_t b) {
    return (int16_t)(((int32_t)a * (int32_t)b) >> FRAC_BITS);
}

static inline int16_t fp_sat32(int32_t v) {
    if (v > FP_MAX) return FP_MAX;
    22f0:	81 15       	cp	r24, r1
    22f2:	e0 e8       	ldi	r30, 0x80	; 128
    22f4:	9e 07       	cpc	r25, r30
    22f6:	a1 05       	cpc	r26, r1
    22f8:	b1 05       	cpc	r27, r1
    22fa:	14 f0       	brlt	.+4      	; 0x2300 <__stack+0x101>
    22fc:	0c 94 fa 31 	jmp	0x63f4	; 0x63f4 <__stack+0x41f5>
    if (v < FP_MIN) return FP_MIN;
    2300:	81 15       	cp	r24, r1
    2302:	f0 e8       	ldi	r31, 0x80	; 128
    2304:	9f 07       	cpc	r25, r31
    2306:	ff ef       	ldi	r31, 0xFF	; 255
    2308:	af 07       	cpc	r26, r31
    230a:	bf 07       	cpc	r27, r31
    230c:	14 f4       	brge	.+4      	; 0x2312 <__stack+0x113>
    230e:	0c 94 fe 31 	jmp	0x63fc	; 0x63fc <__stack+0x41fd>
    acc += (int32_t)W_hr[15][12] * (int32_t)h_state[12];
    acc += (int32_t)W_hr[15][13] * (int32_t)h_state[13];
    acc += (int32_t)W_hr[15][14] * (int32_t)h_state[14];
    acc += (int32_t)W_hr[15][15] * (int32_t)h_state[15];
    acc >>= FRAC_BITS;
    r[15] = fp_sigmoid(fp_sat32(acc));
    2312:	0e 94 b5 00 	call	0x16a	; 0x16a <_ZL10fp_sigmoidi>
    2316:	cb 56       	subi	r28, 0x6B	; 107
    2318:	de 4f       	sbci	r29, 0xFE	; 254
    231a:	99 83       	std	Y+1, r25	; 0x01
    231c:	88 83       	st	Y, r24
    231e:	c5 59       	subi	r28, 0x95	; 149
    2320:	d1 40       	sbci	r29, 0x01	; 1
    acc += (int32_t)W_iz[0][61] * (int32_t)x[61];
    acc += (int32_t)W_iz[0][62] * (int32_t)x[62];
    acc += (int32_t)W_iz[0][63] * (int32_t)x[63];
    acc >>= FRAC_BITS;
    acc += (int32_t)b_hz[0];
    acc += (int32_t)W_hz[0][0] * (int32_t)h_state[0];
    2322:	2b 85       	ldd	r18, Y+11	; 0x0b
    2324:	3c 85       	ldd	r19, Y+12	; 0x0c
    2326:	ae ef       	ldi	r26, 0xFE	; 254
    2328:	bf ef       	ldi	r27, 0xFF	; 255
    232a:	0e 94 ab 32 	call	0x6556	; 0x6556 <__mulhisi3>
    232e:	2b 01       	movw	r4, r22
    2330:	3c 01       	movw	r6, r24
    2332:	2c e9       	ldi	r18, 0x9C	; 156
    2334:	42 1a       	sub	r4, r18
    2336:	51 08       	sbc	r5, r1
    2338:	61 08       	sbc	r6, r1
    233a:	71 08       	sbc	r7, r1
    acc += (int32_t)W_hz[0][1] * (int32_t)h_state[1];
    233c:	2f 81       	ldd	r18, Y+7	; 0x07
    233e:	38 85       	ldd	r19, Y+8	; 0x08
    2340:	ad ef       	ldi	r26, 0xFD	; 253
    2342:	bf ef       	ldi	r27, 0xFF	; 255
    2344:	0e 94 ab 32 	call	0x6556	; 0x6556 <__mulhisi3>
    2348:	46 0e       	add	r4, r22
    234a:	57 1e       	adc	r5, r23
    234c:	68 1e       	adc	r6, r24
    234e:	79 1e       	adc	r7, r25
    acc += (int32_t)W_hz[0][2] * (int32_t)h_state[2];
    2350:	2d 89       	ldd	r18, Y+21	; 0x15
    2352:	3e 89       	ldd	r19, Y+22	; 0x16
    2354:	a8 ef       	ldi	r26, 0xF8	; 248
    2356:	bf ef       	ldi	r27, 0xFF	; 255
    2358:	0e 94 ab 32 	call	0x6556	; 0x6556 <__mulhisi3>
    235c:	46 0e       	add	r4, r22
    235e:	57 1e       	adc	r5, r23
    2360:	68 1e       	adc	r6, r24
    2362:	79 1e       	adc	r7, r25
    acc += (int32_t)W_hz[0][3] * (int32_t)h_state[3];
    2364:	29 e1       	ldi	r18, 0x19	; 25
    2366:	30 e0       	ldi	r19, 0x00	; 0
    2368:	d1 01       	movw	r26, r2
    236a:	0e 94 c2 32 	call	0x6584	; 0x6584 <__usmulhisi3>
    236e:	46 0e       	add	r4, r22
    2370:	57 1e       	adc	r5, r23
    2372:	68 1e       	adc	r6, r24
    2374:	79 1e       	adc	r7, r25
    acc += (int32_t)W_hz[0][4] * (int32_t)h_state[4];
    2376:	2d 81       	ldd	r18, Y+5	; 0x05
    2378:	3e 81       	ldd	r19, Y+6	; 0x06
    237a:	a9 ee       	ldi	r26, 0xE9	; 233
    237c:	bf ef       	ldi	r27, 0xFF	; 255
    237e:	0e 94 ab 32 	call	0x6556	; 0x6556 <__mulhisi3>
    2382:	46 0e       	add	r4, r22
    2384:	57 1e       	adc	r5, r23
    2386:	68 1e       	adc	r6, r24
    2388:	79 1e       	adc	r7, r25
    acc += (int32_t)W_hz[0][5] * (int32_t)h_state[5];
    238a:	2d 85       	ldd	r18, Y+13	; 0x0d
    238c:	3e 85       	ldd	r19, Y+14	; 0x0e
    238e:	a6 ee       	ldi	r26, 0xE6	; 230
    2390:	bf ef       	ldi	r27, 0xFF	; 255
    2392:	0e 94 ab 32 	call	0x6556	; 0x6556 <__mulhisi3>
    2396:	cd 5c       	subi	r28, 0xCD	; 205
    2398:	de 4f       	sbci	r29, 0xFE	; 254
    239a:	68 83       	st	Y, r22
    239c:	79 83       	std	Y+1, r23	; 0x01
    239e:	8a 83       	std	Y+2, r24	; 0x02
    23a0:	9b 83       	std	Y+3, r25	; 0x03
    23a2:	c3 53       	subi	r28, 0x33	; 51
    23a4:	d1 40       	sbci	r29, 0x01	; 1
    23a6:	46 0e       	add	r4, r22
    23a8:	57 1e       	adc	r5, r23
    23aa:	68 1e       	adc	r6, r24
    23ac:	79 1e       	adc	r7, r25
    acc += (int32_t)W_hz[0][6] * (int32_t)h_state[6];
    23ae:	28 e2       	ldi	r18, 0x28	; 40
    23b0:	30 e0       	ldi	r19, 0x00	; 0
    23b2:	c9 56       	subi	r28, 0x69	; 105
    23b4:	de 4f       	sbci	r29, 0xFE	; 254
    23b6:	a8 81       	ld	r26, Y
    23b8:	b9 81       	ldd	r27, Y+1	; 0x01
    23ba:	c7 59       	subi	r28, 0x97	; 151
    23bc:	d1 40       	sbci	r29, 0x01	; 1
    23be:	0e 94 c2 32 	call	0x6584	; 0x6584 <__usmulhisi3>
    23c2:	46 0e       	add	r4, r22
    23c4:	57 1e       	adc	r5, r23
    23c6:	68 1e       	adc	r6, r24
    23c8:	79 1e       	adc	r7, r25
    acc += (int32_t)W_hz[0][7] * (int32_t)h_state[7];
    23ca:	c9 55       	subi	r28, 0x59	; 89
    23cc:	df 4f       	sbci	r29, 0xFF	; 255
    23ce:	88 81       	ld	r24, Y
    23d0:	99 81       	ldd	r25, Y+1	; 0x01
    23d2:	aa 81       	ldd	r26, Y+2	; 0x02
    23d4:	bb 81       	ldd	r27, Y+3	; 0x03
    23d6:	c7 5a       	subi	r28, 0xA7	; 167
    23d8:	d0 40       	sbci	r29, 0x00	; 0
    23da:	48 0e       	add	r4, r24
    23dc:	59 1e       	adc	r5, r25
    23de:	6a 1e       	adc	r6, r26
    23e0:	7b 1e       	adc	r7, r27
    acc += (int32_t)W_hz[0][8] * (int32_t)h_state[8];
    23e2:	2d e2       	ldi	r18, 0x2D	; 45
    23e4:	30 e0       	ldi	r19, 0x00	; 0
    23e6:	af 89       	ldd	r26, Y+23	; 0x17
    23e8:	b8 8d       	ldd	r27, Y+24	; 0x18
    23ea:	0e 94 c2 32 	call	0x6584	; 0x6584 <__usmulhisi3>
    23ee:	46 0e       	add	r4, r22
    23f0:	57 1e       	adc	r5, r23
    23f2:	68 1e       	adc	r6, r24
    23f4:	79 1e       	adc	r7, r25
    acc += (int32_t)W_hz[0][9] * (int32_t)h_state[9];
    23f6:	84 0c       	add	r8, r4
    23f8:	95 1c       	adc	r9, r5
    23fa:	a6 1c       	adc	r10, r6
    23fc:	b7 1c       	adc	r11, r7
    acc += (int32_t)W_hz[0][10] * (int32_t)h_state[10];
    23fe:	c5 55       	subi	r28, 0x55	; 85
    2400:	df 4f       	sbci	r29, 0xFF	; 255
    2402:	28 81       	ld	r18, Y
    2404:	39 81       	ldd	r19, Y+1	; 0x01
    2406:	4a 81       	ldd	r20, Y+2	; 0x02
    2408:	5b 81       	ldd	r21, Y+3	; 0x03
    240a:	cb 5a       	subi	r28, 0xAB	; 171
    240c:	d0 40       	sbci	r29, 0x00	; 0
    240e:	82 0e       	add	r8, r18
    2410:	93 1e       	adc	r9, r19
    2412:	a4 1e       	adc	r10, r20
    2414:	b5 1e       	adc	r11, r21
    acc += (int32_t)W_hz[0][11] * (int32_t)h_state[11];
    2416:	29 8d       	ldd	r18, Y+25	; 0x19
    2418:	3a 8d       	ldd	r19, Y+26	; 0x1a
    241a:	a5 ed       	ldi	r26, 0xD5	; 213
    241c:	bf ef       	ldi	r27, 0xFF	; 255
    241e:	0e 94 ab 32 	call	0x6556	; 0x6556 <__mulhisi3>
    2422:	86 0e       	add	r8, r22
    2424:	97 1e       	adc	r9, r23
    2426:	a8 1e       	adc	r10, r24
    2428:	b9 1e       	adc	r11, r25
    acc += (int32_t)W_hz[0][12] * (int32_t)h_state[12];
    242a:	2e e3       	ldi	r18, 0x3E	; 62
    242c:	30 e0       	ldi	r19, 0x00	; 0
    242e:	d8 01       	movw	r26, r16
    2430:	0e 94 c2 32 	call	0x6584	; 0x6584 <__usmulhisi3>
    2434:	86 0e       	add	r8, r22
    2436:	97 1e       	adc	r9, r23
    2438:	a8 1e       	adc	r10, r24
    243a:	b9 1e       	adc	r11, r25
    acc += (int32_t)W_hz[0][13] * (int32_t)h_state[13];
    243c:	2b 8d       	ldd	r18, Y+27	; 0x1b
    243e:	3c 8d       	ldd	r19, Y+28	; 0x1c
    2440:	af ed       	ldi	r26, 0xDF	; 223
    2442:	bf ef       	ldi	r27, 0xFF	; 255
    2444:	0e 94 ab 32 	call	0x6556	; 0x6556 <__mulhisi3>
    2448:	86 0e       	add	r8, r22
    244a:	97 1e       	adc	r9, r23
    244c:	a8 1e       	adc	r10, r24
    244e:	b9 1e       	adc	r11, r25
    acc += (int32_t)W_hz[0][14] * (int32_t)h_state[14];
    2450:	2d 8d       	ldd	r18, Y+29	; 0x1d
    2452:	3e 8d       	ldd	r19, Y+30	; 0x1e
    2454:	a6 ed       	ldi	r26, 0xD6	; 214
    2456:	bf ef       	ldi	r27, 0xFF	; 255
    2458:	0e 94 ab 32 	call	0x6556	; 0x6556 <__mulhisi3>
    245c:	86 0e       	add	r8, r22
    245e:	97 1e       	adc	r9, r23
    2460:	a8 1e       	adc	r10, r24
    2462:	b9 1e       	adc	r11, r25
    acc += (int32_t)W_hz[0][15] * (int32_t)h_state[15];
    2464:	2b 89       	ldd	r18, Y+19	; 0x13
    2466:	3c 89       	ldd	r19, Y+20	; 0x14
    2468:	a4 ed       	ldi	r26, 0xD4	; 212
    246a:	bf ef       	ldi	r27, 0xFF	; 255
    246c:	0e 94 ab 32 	call	0x6556	; 0x6556 <__mulhisi3>
    2470:	dc 01       	movw	r26, r24
    2472:	cb 01       	movw	r24, r22
    2474:	88 0d       	add	r24, r8
    2476:	99 1d       	adc	r25, r9
    2478:	aa 1d       	adc	r26, r10
    247a:	bb 1d       	adc	r27, r11
    acc >>= FRAC_BITS;
    247c:	36 e0       	ldi	r19, 0x06	; 6
    247e:	b5 95       	asr	r27
    2480:	a7 95       	ror	r26
    2482:	97 95       	ror	r25
    2484:	87 95       	ror	r24
    2486:	3a 95       	dec	r19
    2488:	d1 f7       	brne	.-12     	; 0x247e <__stack+0x27f>
static inline int16_t fp_mul(int16_t a, int16_t b) {
    return (int16_t)(((int32_t)a * (int32_t)b) >> FRAC_BITS);
}

static inline int16_t fp_sat32(int32_t v) {
    if (v > FP_MAX) return FP_MAX;
    248a:	81 15       	cp	r24, r1
    248c:	30 e8       	ldi	r19, 0x80	; 128
    248e:	93 07       	cpc	r25, r19
    2490:	a1 05       	cpc	r26, r1
    2492:	b1 05       	cpc	r27, r1
    2494:	14 f0       	brlt	.+4      	; 0x249a <__stack+0x29b>
    2496:	0c 94 02 32 	jmp	0x6404	; 0x6404 <__stack+0x4205>
    if (v < FP_MIN) return FP_MIN;
    249a:	81 15       	cp	r24, r1
    249c:	40 e8       	ldi	r20, 0x80	; 128
    249e:	94 07       	cpc	r25, r20
    24a0:	4f ef       	ldi	r20, 0xFF	; 255
    24a2:	a4 07       	cpc	r26, r20
    24a4:	b4 07       	cpc	r27, r20
    24a6:	14 f4       	brge	.+4      	; 0x24ac <__stack+0x2ad>
    24a8:	0c 94 06 32 	jmp	0x640c	; 0x640c <__stack+0x420d>
    acc += (int32_t)W_hz[0][12] * (int32_t)h_state[12];
    acc += (int32_t)W_hz[0][13] * (int32_t)h_state[13];
    acc += (int32_t)W_hz[0][14] * (int32_t)h_state[14];
    acc += (int32_t)W_hz[0][15] * (int32_t)h_state[15];
    acc >>= FRAC_BITS;
    z[0] = fp_sigmoid(fp_sat32(acc));
    24ac:	0e 94 b5 00 	call	0x16a	; 0x16a <_ZL10fp_sigmoidi>
    24b0:	c9 55       	subi	r28, 0x59	; 89
    24b2:	df 4f       	sbci	r29, 0xFF	; 255
    24b4:	99 83       	std	Y+1, r25	; 0x01
    24b6:	88 83       	st	Y, r24
    24b8:	c7 5a       	subi	r28, 0xA7	; 167
    24ba:	d0 40       	sbci	r29, 0x00	; 0
    acc += (int32_t)W_iz[1][61] * (int32_t)x[61];
    acc += (int32_t)W_iz[1][62] * (int32_t)x[62];
    acc += (int32_t)W_iz[1][63] * (int32_t)x[63];
    acc >>= FRAC_BITS;
    acc += (int32_t)b_hz[1];
    acc += (int32_t)W_hz[1][0] * (int32_t)h_state[0];
    24bc:	8b a9       	ldd	r24, Y+51	; 0x33
    24be:	9c a9       	ldd	r25, Y+52	; 0x34
    24c0:	ad a9       	ldd	r26, Y+53	; 0x35
    24c2:	be a9       	ldd	r27, Y+54	; 0x36
    24c4:	f3 e0       	ldi	r31, 0x03	; 3
    24c6:	88 0f       	add	r24, r24
    24c8:	99 1f       	adc	r25, r25
    24ca:	aa 1f       	adc	r26, r26
    24cc:	bb 1f       	adc	r27, r27
    24ce:	fa 95       	dec	r31
    24d0:	d1 f7       	brne	.-12     	; 0x24c6 <__stack+0x2c7>
    24d2:	8b ab       	std	Y+51, r24	; 0x33
    24d4:	9c ab       	std	Y+52, r25	; 0x34
    24d6:	ad ab       	std	Y+53, r26	; 0x35
    24d8:	be ab       	std	Y+54, r27	; 0x36
    24da:	4c 01       	movw	r8, r24
    24dc:	5d 01       	movw	r10, r26
    24de:	9c e0       	ldi	r25, 0x0C	; 12
    24e0:	89 1a       	sub	r8, r25
    24e2:	91 08       	sbc	r9, r1
    24e4:	a1 08       	sbc	r10, r1
    24e6:	b1 08       	sbc	r11, r1
    acc += (int32_t)W_hz[1][1] * (int32_t)h_state[1];
    24e8:	2b e3       	ldi	r18, 0x3B	; 59
    24ea:	30 e0       	ldi	r19, 0x00	; 0
    24ec:	af 81       	ldd	r26, Y+7	; 0x07
    24ee:	b8 85       	ldd	r27, Y+8	; 0x08
    24f0:	0e 94 c2 32 	call	0x6584	; 0x6584 <__usmulhisi3>
    24f4:	86 0e       	add	r8, r22
    24f6:	97 1e       	adc	r9, r23
    24f8:	a8 1e       	adc	r10, r24
    24fa:	b9 1e       	adc	r11, r25
    acc += (int32_t)W_hz[1][2] * (int32_t)h_state[2];
    24fc:	2d 89       	ldd	r18, Y+21	; 0x15
    24fe:	3e 89       	ldd	r19, Y+22	; 0x16
    2500:	ae ed       	ldi	r26, 0xDE	; 222
    2502:	bf ef       	ldi	r27, 0xFF	; 255
    2504:	0e 94 ab 32 	call	0x6556	; 0x6556 <__mulhisi3>
    2508:	86 0e       	add	r8, r22
    250a:	97 1e       	adc	r9, r23
    250c:	a8 1e       	adc	r10, r24
    250e:	b9 1e       	adc	r11, r25
    acc += (int32_t)W_hz[1][3] * (int32_t)h_state[3];
    2510:	91 01       	movw	r18, r2
    2512:	a4 ef       	ldi	r26, 0xF4	; 244
    2514:	bf ef       	ldi	r27, 0xFF	; 255
    2516:	0e 94 ab 32 	call	0x6556	; 0x6556 <__mulhisi3>
    251a:	86 0e       	add	r8, r22
    251c:	97 1e       	adc	r9, r23
    251e:	a8 1e       	adc	r10, r24
    2520:	b9 1e       	adc	r11, r25
    acc += (int32_t)W_hz[1][4] * (int32_t)h_state[4];
    2522:	2d 81       	ldd	r18, Y+5	; 0x05
    2524:	3e 81       	ldd	r19, Y+6	; 0x06
    2526:	a8 ed       	ldi	r26, 0xD8	; 216
    2528:	bf ef       	ldi	r27, 0xFF	; 255
    252a:	0e 94 ab 32 	call	0x6556	; 0x6556 <__mulhisi3>
    252e:	86 0e       	add	r8, r22
    2530:	97 1e       	adc	r9, r23
    2532:	a8 1e       	adc	r10, r24
    2534:	b9 1e       	adc	r11, r25
    acc += (int32_t)W_hz[1][5] * (int32_t)h_state[5];
    2536:	22 e1       	ldi	r18, 0x12	; 18
    2538:	30 e0       	ldi	r19, 0x00	; 0
    253a:	ad 85       	ldd	r26, Y+13	; 0x0d
    253c:	be 85       	ldd	r27, Y+14	; 0x0e
    253e:	0e 94 c2 32 	call	0x6584	; 0x6584 <__usmulhisi3>
    2542:	86 0e       	add	r8, r22
    2544:	97 1e       	adc	r9, r23
    2546:	a8 1e       	adc	r10, r24
    2548:	b9 1e       	adc	r11, r25
    acc += (int32_t)W_hz[1][6] * (int32_t)h_state[6];
    254a:	c9 56       	subi	r28, 0x69	; 105
    254c:	de 4f       	sbci	r29, 0xFE	; 254
    254e:	28 81       	ld	r18, Y
    2550:	39 81       	ldd	r19, Y+1	; 0x01
    2552:	c7 59       	subi	r28, 0x97	; 151
    2554:	d1 40       	sbci	r29, 0x01	; 1
    2556:	a7 ef       	ldi	r26, 0xF7	; 247
    2558:	bf ef       	ldi	r27, 0xFF	; 255
    255a:	0e 94 ab 32 	call	0x6556	; 0x6556 <__mulhisi3>
    255e:	86 0e       	add	r8, r22
    2560:	97 1e       	adc	r9, r23
    2562:	a8 1e       	adc	r10, r24
    2564:	b9 1e       	adc	r11, r25
    acc += (int32_t)W_hz[1][7] * (int32_t)h_state[7];
    2566:	29 89       	ldd	r18, Y+17	; 0x11
    2568:	3a 89       	ldd	r19, Y+18	; 0x12
    256a:	a4 ec       	ldi	r26, 0xC4	; 196
    256c:	bf ef       	ldi	r27, 0xFF	; 255
    256e:	0e 94 ab 32 	call	0x6556	; 0x6556 <__mulhisi3>
    2572:	86 0e       	add	r8, r22
    2574:	97 1e       	adc	r9, r23
    2576:	a8 1e       	adc	r10, r24
    2578:	b9 1e       	adc	r11, r25
    acc += (int32_t)W_hz[1][8] * (int32_t)h_state[8];
    257a:	2f e0       	ldi	r18, 0x0F	; 15
    257c:	30 e0       	ldi	r19, 0x00	; 0
    257e:	af 89       	ldd	r26, Y+23	; 0x17
    2580:	b8 8d       	ldd	r27, Y+24	; 0x18
    2582:	0e 94 c2 32 	call	0x6584	; 0x6584 <__usmulhisi3>
    2586:	c5 55       	subi	r28, 0x55	; 85
    2588:	df 4f       	sbci	r29, 0xFF	; 255
    258a:	68 83       	st	Y, r22
    258c:	79 83       	std	Y+1, r23	; 0x01
    258e:	8a 83       	std	Y+2, r24	; 0x02
    2590:	9b 83       	std	Y+3, r25	; 0x03
    2592:	cb 5a       	subi	r28, 0xAB	; 171
    2594:	d0 40       	sbci	r29, 0x00	; 0
    2596:	86 0e       	add	r8, r22
    2598:	97 1e       	adc	r9, r23
    259a:	a8 1e       	adc	r10, r24
    259c:	b9 1e       	adc	r11, r25
    acc += (int32_t)W_hz[1][9] * (int32_t)h_state[9];
    259e:	29 85       	ldd	r18, Y+9	; 0x09
    25a0:	3a 85       	ldd	r19, Y+10	; 0x0a
    25a2:	a9 ed       	ldi	r26, 0xD9	; 217
    25a4:	bf ef       	ldi	r27, 0xFF	; 255
    25a6:	0e 94 ab 32 	call	0x6556	; 0x6556 <__mulhisi3>
    25aa:	86 0e       	add	r8, r22
    25ac:	97 1e       	adc	r9, r23
    25ae:	a8 1e       	adc	r10, r24
    25b0:	b9 1e       	adc	r11, r25
    acc += (int32_t)W_hz[1][10] * (int32_t)h_state[10];
    25b2:	2c e0       	ldi	r18, 0x0C	; 12
    25b4:	30 e0       	ldi	r19, 0x00	; 0
    25b6:	af 85       	ldd	r26, Y+15	; 0x0f
    25b8:	b8 89       	ldd	r27, Y+16	; 0x10
    25ba:	0e 94 c2 32 	call	0x6584	; 0x6584 <__usmulhisi3>
    25be:	23 96       	adiw	r28, 0x03	; 3
    25c0:	6c af       	std	Y+60, r22	; 0x3c
    25c2:	7d af       	std	Y+61, r23	; 0x3d
    25c4:	8e af       	std	Y+62, r24	; 0x3e
    25c6:	9f af       	std	Y+63, r25	; 0x3f
    25c8:	23 97       	sbiw	r28, 0x03	; 3
    25ca:	86 0e       	add	r8, r22
    25cc:	97 1e       	adc	r9, r23
    25ce:	a8 1e       	adc	r10, r24
    25d0:	b9 1e       	adc	r11, r25
    acc += (int32_t)W_hz[1][11] * (int32_t)h_state[11];
    25d2:	29 8d       	ldd	r18, Y+25	; 0x19
    25d4:	3a 8d       	ldd	r19, Y+26	; 0x1a
    25d6:	a2 ef       	ldi	r26, 0xF2	; 242
    25d8:	bf ef       	ldi	r27, 0xFF	; 255
    25da:	0e 94 ab 32 	call	0x6556	; 0x6556 <__mulhisi3>
    25de:	c9 5c       	subi	r28, 0xC9	; 201
    25e0:	de 4f       	sbci	r29, 0xFE	; 254
    25e2:	68 83       	st	Y, r22
    25e4:	79 83       	std	Y+1, r23	; 0x01
    25e6:	8a 83       	std	Y+2, r24	; 0x02
    25e8:	9b 83       	std	Y+3, r25	; 0x03
    25ea:	c7 53       	subi	r28, 0x37	; 55
    25ec:	d1 40       	sbci	r29, 0x01	; 1
    25ee:	86 0e       	add	r8, r22
    25f0:	97 1e       	adc	r9, r23
    25f2:	a8 1e       	adc	r10, r24
    25f4:	b9 1e       	adc	r11, r25
    acc += (int32_t)W_hz[1][12] * (int32_t)h_state[12];
    25f6:	2a e1       	ldi	r18, 0x1A	; 26
    25f8:	30 e0       	ldi	r19, 0x00	; 0
    25fa:	d8 01       	movw	r26, r16
    25fc:	0e 94 c2 32 	call	0x6584	; 0x6584 <__usmulhisi3>
    2600:	86 0e       	add	r8, r22
    2602:	97 1e       	adc	r9, r23
    2604:	a8 1e       	adc	r10, r24
    2606:	b9 1e       	adc	r11, r25
    acc += (int32_t)W_hz[1][13] * (int32_t)h_state[13];
    2608:	2b 8d       	ldd	r18, Y+27	; 0x1b
    260a:	3c 8d       	ldd	r19, Y+28	; 0x1c
    260c:	aa ed       	ldi	r26, 0xDA	; 218
    260e:	bf ef       	ldi	r27, 0xFF	; 255
    2610:	0e 94 ab 32 	call	0x6556	; 0x6556 <__mulhisi3>
    2614:	2b 01       	movw	r4, r22
    2616:	3c 01       	movw	r6, r24
    2618:	84 0c       	add	r8, r4
    261a:	95 1c       	adc	r9, r5
    261c:	a6 1c       	adc	r10, r6
    261e:	b7 1c       	adc	r11, r7
    acc += (int32_t)W_hz[1][14] * (int32_t)h_state[14];
    2620:	2b a1       	ldd	r18, Y+35	; 0x23
    2622:	3c a1       	ldd	r19, Y+36	; 0x24
    2624:	4d a1       	ldd	r20, Y+37	; 0x25
    2626:	5e a1       	ldd	r21, Y+38	; 0x26
    2628:	a5 e0       	ldi	r26, 0x05	; 5
    262a:	22 0f       	add	r18, r18
    262c:	33 1f       	adc	r19, r19
    262e:	44 1f       	adc	r20, r20
    2630:	55 1f       	adc	r21, r21
    2632:	aa 95       	dec	r26
    2634:	d1 f7       	brne	.-12     	; 0x262a <__stack+0x42b>
    2636:	c5 5c       	subi	r28, 0xC5	; 197
    2638:	de 4f       	sbci	r29, 0xFE	; 254
    263a:	28 83       	st	Y, r18
    263c:	39 83       	std	Y+1, r19	; 0x01
    263e:	4a 83       	std	Y+2, r20	; 0x02
    2640:	5b 83       	std	Y+3, r21	; 0x03
    2642:	cb 53       	subi	r28, 0x3B	; 59
    2644:	d1 40       	sbci	r29, 0x01	; 1
    2646:	82 0e       	add	r8, r18
    2648:	93 1e       	adc	r9, r19
    264a:	a4 1e       	adc	r10, r20
    264c:	b5 1e       	adc	r11, r21
    acc += (int32_t)W_hz[1][15] * (int32_t)h_state[15];
    264e:	28 e2       	ldi	r18, 0x28	; 40
    2650:	30 e0       	ldi	r19, 0x00	; 0
    2652:	ab 89       	ldd	r26, Y+19	; 0x13
    2654:	bc 89       	ldd	r27, Y+20	; 0x14
    2656:	0e 94 c2 32 	call	0x6584	; 0x6584 <__usmulhisi3>
    265a:	dc 01       	movw	r26, r24
    265c:	cb 01       	movw	r24, r22
    265e:	88 0d       	add	r24, r8
    2660:	99 1d       	adc	r25, r9
    2662:	aa 1d       	adc	r26, r10
    2664:	bb 1d       	adc	r27, r11
    acc >>= FRAC_BITS;
    2666:	26 e0       	ldi	r18, 0x06	; 6
    2668:	b5 95       	asr	r27
    266a:	a7 95       	ror	r26
    266c:	97 95       	ror	r25
    266e:	87 95       	ror	r24
    2670:	2a 95       	dec	r18
    2672:	d1 f7       	brne	.-12     	; 0x2668 <__stack+0x469>
static inline int16_t fp_mul(int16_t a, int16_t b) {
    return (int16_t)(((int32_t)a * (int32_t)b) >> FRAC_BITS);
}

static inline int16_t fp_sat32(int32_t v) {
    if (v > FP_MAX) return FP_MAX;
    2674:	81 15       	cp	r24, r1
    2676:	30 e8       	ldi	r19, 0x80	; 128
    2678:	93 07       	cpc	r25, r19
    267a:	a1 05       	cpc	r26, r1
    267c:	b1 05       	cpc	r27, r1
    267e:	14 f0       	brlt	.+4      	; 0x2684 <__stack+0x485>
    2680:	0c 94 0a 32 	jmp	0x6414	; 0x6414 <__stack+0x4215>
    if (v < FP_MIN) return FP_MIN;
    2684:	81 15       	cp	r24, r1
    2686:	40 e8       	ldi	r20, 0x80	; 128
    2688:	94 07       	cpc	r25, r20
    268a:	4f ef       	ldi	r20, 0xFF	; 255
    268c:	a4 07       	cpc	r26, r20
    268e:	b4 07       	cpc	r27, r20
    2690:	14 f4       	brge	.+4      	; 0x2696 <__stack+0x497>
    2692:	0c 94 0e 32 	jmp	0x641c	; 0x641c <__stack+0x421d>
    acc += (int32_t)W_hz[1][12] * (int32_t)h_state[12];
    acc += (int32_t)W_hz[1][13] * (int32_t)h_state[13];
    acc += (int32_t)W_hz[1][14] * (int32_t)h_state[14];
    acc += (int32_t)W_hz[1][15] * (int32_t)h_state[15];
    acc >>= FRAC_BITS;
    z[1] = fp_sigmoid(fp_sat32(acc));
    2696:	0e 94 b5 00 	call	0x16a	; 0x16a <_ZL10fp_sigmoidi>
    269a:	c1 5c       	subi	r28, 0xC1	; 193
    269c:	de 4f       	sbci	r29, 0xFE	; 254
    269e:	99 83       	std	Y+1, r25	; 0x01
    26a0:	88 83       	st	Y, r24
    26a2:	cf 53       	subi	r28, 0x3F	; 63
    26a4:	d1 40       	sbci	r29, 0x01	; 1
    acc += (int32_t)W_iz[2][61] * (int32_t)x[61];
    acc += (int32_t)W_iz[2][62] * (int32_t)x[62];
    acc += (int32_t)W_iz[2][63] * (int32_t)x[63];
    acc >>= FRAC_BITS;
    acc += (int32_t)b_hz[2];
    acc += (int32_t)W_hz[2][0] * (int32_t)h_state[0];
    26a6:	a7 96       	adiw	r28, 0x27	; 39
    26a8:	8c ac       	ldd	r8, Y+60	; 0x3c
    26aa:	9d ac       	ldd	r9, Y+61	; 0x3d
    26ac:	ae ac       	ldd	r10, Y+62	; 0x3e
    26ae:	bf ac       	ldd	r11, Y+63	; 0x3f
    26b0:	a7 97       	sbiw	r28, 0x27	; 39
    26b2:	5c e7       	ldi	r21, 0x7C	; 124
    26b4:	85 1a       	sub	r8, r21
    26b6:	91 08       	sbc	r9, r1
    26b8:	a1 08       	sbc	r10, r1
    26ba:	b1 08       	sbc	r11, r1
    acc += (int32_t)W_hz[2][1] * (int32_t)h_state[1];
    26bc:	2f 96       	adiw	r28, 0x0f	; 15
    26be:	8c ad       	ldd	r24, Y+60	; 0x3c
    26c0:	9d ad       	ldd	r25, Y+61	; 0x3d
    26c2:	ae ad       	ldd	r26, Y+62	; 0x3e
    26c4:	bf ad       	ldd	r27, Y+63	; 0x3f
    26c6:	2f 97       	sbiw	r28, 0x0f	; 15
    26c8:	88 0e       	add	r8, r24
    26ca:	99 1e       	adc	r9, r25
    26cc:	aa 1e       	adc	r10, r26
    26ce:	bb 1e       	adc	r11, r27
    acc += (int32_t)W_hz[2][2] * (int32_t)h_state[2];
    26d0:	20 e3       	ldi	r18, 0x30	; 48
    26d2:	30 e0       	ldi	r19, 0x00	; 0
    26d4:	ad 89       	ldd	r26, Y+21	; 0x15
    26d6:	be 89       	ldd	r27, Y+22	; 0x16
    26d8:	0e 94 c2 32 	call	0x6584	; 0x6584 <__usmulhisi3>
    26dc:	86 0e       	add	r8, r22
    26de:	97 1e       	adc	r9, r23
    26e0:	a8 1e       	adc	r10, r24
    26e2:	b9 1e       	adc	r11, r25
    acc += (int32_t)W_hz[2][3] * (int32_t)h_state[3];
    26e4:	91 01       	movw	r18, r2
    26e6:	a8 ed       	ldi	r26, 0xD8	; 216
    26e8:	bf ef       	ldi	r27, 0xFF	; 255
    26ea:	0e 94 ab 32 	call	0x6556	; 0x6556 <__mulhisi3>
    26ee:	86 0e       	add	r8, r22
    26f0:	97 1e       	adc	r9, r23
    26f2:	a8 1e       	adc	r10, r24
    26f4:	b9 1e       	adc	r11, r25
    acc += (int32_t)W_hz[2][4] * (int32_t)h_state[4];
    26f6:	2d 81       	ldd	r18, Y+5	; 0x05
    26f8:	3e 81       	ldd	r19, Y+6	; 0x06
    26fa:	aa ee       	ldi	r26, 0xEA	; 234
    26fc:	bf ef       	ldi	r27, 0xFF	; 255
    26fe:	0e 94 ab 32 	call	0x6556	; 0x6556 <__mulhisi3>
    2702:	86 0e       	add	r8, r22
    2704:	97 1e       	adc	r9, r23
    2706:	a8 1e       	adc	r10, r24
    2708:	b9 1e       	adc	r11, r25
    acc += (int32_t)W_hz[2][5] * (int32_t)h_state[5];
    270a:	2d 85       	ldd	r18, Y+13	; 0x0d
    270c:	3e 85       	ldd	r19, Y+14	; 0x0e
    270e:	ab ef       	ldi	r26, 0xFB	; 251
    2710:	bf ef       	ldi	r27, 0xFF	; 255
    2712:	0e 94 ab 32 	call	0x6556	; 0x6556 <__mulhisi3>
    2716:	86 0e       	add	r8, r22
    2718:	97 1e       	adc	r9, r23
    271a:	a8 1e       	adc	r10, r24
    271c:	b9 1e       	adc	r11, r25
    acc += (int32_t)W_hz[2][6] * (int32_t)h_state[6];
    271e:	c9 56       	subi	r28, 0x69	; 105
    2720:	de 4f       	sbci	r29, 0xFE	; 254
    2722:	28 81       	ld	r18, Y
    2724:	39 81       	ldd	r19, Y+1	; 0x01
    2726:	c7 59       	subi	r28, 0x97	; 151
    2728:	d1 40       	sbci	r29, 0x01	; 1
    272a:	a2 ee       	ldi	r26, 0xE2	; 226
    272c:	bf ef       	ldi	r27, 0xFF	; 255
    272e:	0e 94 ab 32 	call	0x6556	; 0x6556 <__mulhisi3>
    2732:	86 0e       	add	r8, r22
    2734:	97 1e       	adc	r9, r23
    2736:	a8 1e       	adc	r10, r24
    2738:	b9 1e       	adc	r11, r25
    acc += (int32_t)W_hz[2][7] * (int32_t)h_state[7];
    273a:	2e e2       	ldi	r18, 0x2E	; 46
    273c:	30 e0       	ldi	r19, 0x00	; 0
    273e:	a9 89       	ldd	r26, Y+17	; 0x11
    2740:	ba 89       	ldd	r27, Y+18	; 0x12
    2742:	0e 94 c2 32 	call	0x6584	; 0x6584 <__usmulhisi3>
    2746:	86 0e       	add	r8, r22
    2748:	97 1e       	adc	r9, r23
    274a:	a8 1e       	adc	r10, r24
    274c:	b9 1e       	adc	r11, r25
    acc += (int32_t)W_hz[2][8] * (int32_t)h_state[8];
    274e:	2f 89       	ldd	r18, Y+23	; 0x17
    2750:	38 8d       	ldd	r19, Y+24	; 0x18
    2752:	03 2e       	mov	r0, r19
    2754:	00 0c       	add	r0, r0
    2756:	44 0b       	sbc	r20, r20
    2758:	55 0b       	sbc	r21, r21
    275a:	cd 58       	subi	r28, 0x8D	; 141
    275c:	de 4f       	sbci	r29, 0xFE	; 254
    275e:	28 83       	st	Y, r18
    2760:	39 83       	std	Y+1, r19	; 0x01
    2762:	4a 83       	std	Y+2, r20	; 0x02
    2764:	5b 83       	std	Y+3, r21	; 0x03
    2766:	c3 57       	subi	r28, 0x73	; 115
    2768:	d1 40       	sbci	r29, 0x01	; 1
    276a:	72 e0       	ldi	r23, 0x02	; 2
    276c:	22 0f       	add	r18, r18
    276e:	33 1f       	adc	r19, r19
    2770:	44 1f       	adc	r20, r20
    2772:	55 1f       	adc	r21, r21
    2774:	7a 95       	dec	r23
    2776:	d1 f7       	brne	.-12     	; 0x276c <__stack+0x56d>
    2778:	cf 5b       	subi	r28, 0xBF	; 191
    277a:	de 4f       	sbci	r29, 0xFE	; 254
    277c:	28 83       	st	Y, r18
    277e:	39 83       	std	Y+1, r19	; 0x01
    2780:	4a 83       	std	Y+2, r20	; 0x02
    2782:	5b 83       	std	Y+3, r21	; 0x03
    2784:	c1 54       	subi	r28, 0x41	; 65
    2786:	d1 40       	sbci	r29, 0x01	; 1
    2788:	82 0e       	add	r8, r18
    278a:	93 1e       	adc	r9, r19
    278c:	a4 1e       	adc	r10, r20
    278e:	b5 1e       	adc	r11, r21
    acc += (int32_t)W_hz[2][9] * (int32_t)h_state[9];
    2790:	22 e1       	ldi	r18, 0x12	; 18
    2792:	30 e0       	ldi	r19, 0x00	; 0
    2794:	a9 85       	ldd	r26, Y+9	; 0x09
    2796:	ba 85       	ldd	r27, Y+10	; 0x0a
    2798:	0e 94 c2 32 	call	0x6584	; 0x6584 <__usmulhisi3>
    279c:	cb 5b       	subi	r28, 0xBB	; 187
    279e:	de 4f       	sbci	r29, 0xFE	; 254
    27a0:	68 83       	st	Y, r22
    27a2:	79 83       	std	Y+1, r23	; 0x01
    27a4:	8a 83       	std	Y+2, r24	; 0x02
    27a6:	9b 83       	std	Y+3, r25	; 0x03
    27a8:	c5 54       	subi	r28, 0x45	; 69
    27aa:	d1 40       	sbci	r29, 0x01	; 1
    27ac:	86 0e       	add	r8, r22
    27ae:	97 1e       	adc	r9, r23
    27b0:	a8 1e       	adc	r10, r24
    27b2:	b9 1e       	adc	r11, r25
    acc += (int32_t)W_hz[2][10] * (int32_t)h_state[10];
    27b4:	23 96       	adiw	r28, 0x03	; 3
    27b6:	8c ad       	ldd	r24, Y+60	; 0x3c
    27b8:	9d ad       	ldd	r25, Y+61	; 0x3d
    27ba:	ae ad       	ldd	r26, Y+62	; 0x3e
    27bc:	bf ad       	ldd	r27, Y+63	; 0x3f
    27be:	23 97       	sbiw	r28, 0x03	; 3
    27c0:	88 0e       	add	r8, r24
    27c2:	99 1e       	adc	r9, r25
    27c4:	aa 1e       	adc	r10, r26
    27c6:	bb 1e       	adc	r11, r27
    acc += (int32_t)W_hz[2][11] * (int32_t)h_state[11];
    27c8:	2e e0       	ldi	r18, 0x0E	; 14
    27ca:	30 e0       	ldi	r19, 0x00	; 0
    27cc:	a9 8d       	ldd	r26, Y+25	; 0x19
    27ce:	ba 8d       	ldd	r27, Y+26	; 0x1a
    27d0:	0e 94 c2 32 	call	0x6584	; 0x6584 <__usmulhisi3>
    27d4:	86 0e       	add	r8, r22
    27d6:	97 1e       	adc	r9, r23
    27d8:	a8 1e       	adc	r10, r24
    27da:	b9 1e       	adc	r11, r25
    acc += (int32_t)W_hz[2][12] * (int32_t)h_state[12];
    27dc:	2b e0       	ldi	r18, 0x0B	; 11
    27de:	30 e0       	ldi	r19, 0x00	; 0
    27e0:	d8 01       	movw	r26, r16
    27e2:	0e 94 c2 32 	call	0x6584	; 0x6584 <__usmulhisi3>
    27e6:	c7 5b       	subi	r28, 0xB7	; 183
    27e8:	de 4f       	sbci	r29, 0xFE	; 254
    27ea:	68 83       	st	Y, r22
    27ec:	79 83       	std	Y+1, r23	; 0x01
    27ee:	8a 83       	std	Y+2, r24	; 0x02
    27f0:	9b 83       	std	Y+3, r25	; 0x03
    27f2:	c9 54       	subi	r28, 0x49	; 73
    27f4:	d1 40       	sbci	r29, 0x01	; 1
    27f6:	86 0e       	add	r8, r22
    27f8:	97 1e       	adc	r9, r23
    27fa:	a8 1e       	adc	r10, r24
    27fc:	b9 1e       	adc	r11, r25
    acc += (int32_t)W_hz[2][13] * (int32_t)h_state[13];
    27fe:	c8 0c       	add	r12, r8
    2800:	d9 1c       	adc	r13, r9
    2802:	ea 1c       	adc	r14, r10
    2804:	fb 1c       	adc	r15, r11
    acc += (int32_t)W_hz[2][14] * (int32_t)h_state[14];
    2806:	2c e2       	ldi	r18, 0x2C	; 44
    2808:	30 e0       	ldi	r19, 0x00	; 0
    280a:	ad 8d       	ldd	r26, Y+29	; 0x1d
    280c:	be 8d       	ldd	r27, Y+30	; 0x1e
    280e:	0e 94 c2 32 	call	0x6584	; 0x6584 <__usmulhisi3>
    2812:	dc 01       	movw	r26, r24
    2814:	cb 01       	movw	r24, r22
    2816:	8c 0d       	add	r24, r12
    2818:	9d 1d       	adc	r25, r13
    281a:	ae 1d       	adc	r26, r14
    281c:	bf 1d       	adc	r27, r15
    acc += (int32_t)W_hz[2][15] * (int32_t)h_state[15];
    281e:	c1 56       	subi	r28, 0x61	; 97
    2820:	df 4f       	sbci	r29, 0xFF	; 255
    2822:	28 81       	ld	r18, Y
    2824:	39 81       	ldd	r19, Y+1	; 0x01
    2826:	4a 81       	ldd	r20, Y+2	; 0x02
    2828:	5b 81       	ldd	r21, Y+3	; 0x03
    282a:	cf 59       	subi	r28, 0x9F	; 159
    282c:	d0 40       	sbci	r29, 0x00	; 0
    282e:	82 0f       	add	r24, r18
    2830:	93 1f       	adc	r25, r19
    2832:	a4 1f       	adc	r26, r20
    2834:	b5 1f       	adc	r27, r21
    acc >>= FRAC_BITS;
    2836:	e6 e0       	ldi	r30, 0x06	; 6
    2838:	b5 95       	asr	r27
    283a:	a7 95       	ror	r26
    283c:	97 95       	ror	r25
    283e:	87 95       	ror	r24
    2840:	ea 95       	dec	r30
    2842:	d1 f7       	brne	.-12     	; 0x2838 <__stack+0x639>
static inline int16_t fp_mul(int16_t a, int16_t b) {
    return (int16_t)(((int32_t)a * (int32_t)b) >> FRAC_BITS);
}

static inline int16_t fp_sat32(int32_t v) {
    if (v > FP_MAX) return FP_MAX;
    2844:	81 15       	cp	r24, r1
    2846:	30 e8       	ldi	r19, 0x80	; 128
    2848:	93 07       	cpc	r25, r19
    284a:	a1 05       	cpc	r26, r1
    284c:	b1 05       	cpc	r27, r1
    284e:	14 f0       	brlt	.+4      	; 0x2854 <__stack+0x655>
    2850:	0c 94 12 32 	jmp	0x6424	; 0x6424 <__stack+0x4225>
    if (v < FP_MIN) return FP_MIN;
    2854:	81 15       	cp	r24, r1
    2856:	40 e8       	ldi	r20, 0x80	; 128
    2858:	94 07       	cpc	r25, r20
    285a:	4f ef       	ldi	r20, 0xFF	; 255
    285c:	a4 07       	cpc	r26, r20
    285e:	b4 07       	cpc	r27, r20
    2860:	14 f4       	brge	.+4      	; 0x2866 <__stack+0x667>
    2862:	0c 94 16 32 	jmp	0x642c	; 0x642c <__stack+0x422d>
    acc += (int32_t)W_hz[2][12] * (int32_t)h_state[12];
    acc += (int32_t)W_hz[2][13] * (int32_t)h_state[13];
    acc += (int32_t)W_hz[2][14] * (int32_t)h_state[14];
    acc += (int32_t)W_hz[2][15] * (int32_t)h_state[15];
    acc >>= FRAC_BITS;
    z[2] = fp_sigmoid(fp_sat32(acc));
    2866:	0e 94 b5 00 	call	0x16a	; 0x16a <_ZL10fp_sigmoidi>
    286a:	c1 56       	subi	r28, 0x61	; 97
    286c:	df 4f       	sbci	r29, 0xFF	; 255
    286e:	99 83       	std	Y+1, r25	; 0x01
    2870:	88 83       	st	Y, r24
    2872:	cf 59       	subi	r28, 0x9F	; 159
    2874:	d0 40       	sbci	r29, 0x00	; 0
    acc += (int32_t)W_iz[3][61] * (int32_t)x[61];
    acc += (int32_t)W_iz[3][62] * (int32_t)x[62];
    acc += (int32_t)W_iz[3][63] * (int32_t)x[63];
    acc >>= FRAC_BITS;
    acc += (int32_t)b_hz[3];
    acc += (int32_t)W_hz[3][0] * (int32_t)h_state[0];
    2876:	c9 80       	ldd	r12, Y+1	; 0x01
    2878:	da 80       	ldd	r13, Y+2	; 0x02
    287a:	eb 80       	ldd	r14, Y+3	; 0x03
    287c:	fc 80       	ldd	r15, Y+4	; 0x04
    287e:	5c ed       	ldi	r21, 0xDC	; 220
    2880:	c5 0e       	add	r12, r21
    2882:	d1 1c       	adc	r13, r1
    2884:	e1 1c       	adc	r14, r1
    2886:	f1 1c       	adc	r15, r1
    acc += (int32_t)W_hz[3][1] * (int32_t)h_state[1];
    2888:	2a e1       	ldi	r18, 0x1A	; 26
    288a:	30 e0       	ldi	r19, 0x00	; 0
    288c:	af 81       	ldd	r26, Y+7	; 0x07
    288e:	b8 85       	ldd	r27, Y+8	; 0x08
    2890:	0e 94 c2 32 	call	0x6584	; 0x6584 <__usmulhisi3>
    2894:	c6 0e       	add	r12, r22
    2896:	d7 1e       	adc	r13, r23
    2898:	e8 1e       	adc	r14, r24
    289a:	f9 1e       	adc	r15, r25
    acc += (int32_t)W_hz[3][2] * (int32_t)h_state[2];
    289c:	2d 89       	ldd	r18, Y+21	; 0x15
    289e:	3e 89       	ldd	r19, Y+22	; 0x16
    28a0:	a6 ee       	ldi	r26, 0xE6	; 230
    28a2:	bf ef       	ldi	r27, 0xFF	; 255
    28a4:	0e 94 ab 32 	call	0x6556	; 0x6556 <__mulhisi3>
    28a8:	c6 0e       	add	r12, r22
    28aa:	d7 1e       	adc	r13, r23
    28ac:	e8 1e       	adc	r14, r24
    28ae:	f9 1e       	adc	r15, r25
    acc += (int32_t)W_hz[3][3] * (int32_t)h_state[3];
    28b0:	c1 54       	subi	r28, 0x41	; 65
    28b2:	df 4f       	sbci	r29, 0xFF	; 255
    28b4:	88 81       	ld	r24, Y
    28b6:	99 81       	ldd	r25, Y+1	; 0x01
    28b8:	aa 81       	ldd	r26, Y+2	; 0x02
    28ba:	bb 81       	ldd	r27, Y+3	; 0x03
    28bc:	cf 5b       	subi	r28, 0xBF	; 191
    28be:	d0 40       	sbci	r29, 0x00	; 0
    28c0:	c8 0e       	add	r12, r24
    28c2:	d9 1e       	adc	r13, r25
    28c4:	ea 1e       	adc	r14, r26
    28c6:	fb 1e       	adc	r15, r27
    acc += (int32_t)W_hz[3][4] * (int32_t)h_state[4];
    28c8:	2d 81       	ldd	r18, Y+5	; 0x05
    28ca:	3e 81       	ldd	r19, Y+6	; 0x06
    28cc:	ab ec       	ldi	r26, 0xCB	; 203
    28ce:	bf ef       	ldi	r27, 0xFF	; 255
    28d0:	0e 94 ab 32 	call	0x6556	; 0x6556 <__mulhisi3>
    28d4:	6f a3       	std	Y+39, r22	; 0x27
    28d6:	78 a7       	std	Y+40, r23	; 0x28
    28d8:	89 a7       	std	Y+41, r24	; 0x29
    28da:	9a a7       	std	Y+42, r25	; 0x2a
    28dc:	c6 0e       	add	r12, r22
    28de:	d7 1e       	adc	r13, r23
    28e0:	e8 1e       	adc	r14, r24
    28e2:	f9 1e       	adc	r15, r25
    acc += (int32_t)W_hz[3][5] * (int32_t)h_state[5];
    28e4:	2d 85       	ldd	r18, Y+13	; 0x0d
    28e6:	3e 85       	ldd	r19, Y+14	; 0x0e
    28e8:	a1 ed       	ldi	r26, 0xD1	; 209
    28ea:	bf ef       	ldi	r27, 0xFF	; 255
    28ec:	0e 94 ab 32 	call	0x6556	; 0x6556 <__mulhisi3>
    28f0:	c3 5b       	subi	r28, 0xB3	; 179
    28f2:	de 4f       	sbci	r29, 0xFE	; 254
    28f4:	68 83       	st	Y, r22
    28f6:	79 83       	std	Y+1, r23	; 0x01
    28f8:	8a 83       	std	Y+2, r24	; 0x02
    28fa:	9b 83       	std	Y+3, r25	; 0x03
    28fc:	cd 54       	subi	r28, 0x4D	; 77
    28fe:	d1 40       	sbci	r29, 0x01	; 1
    2900:	c6 0e       	add	r12, r22
    2902:	d7 1e       	adc	r13, r23
    2904:	e8 1e       	adc	r14, r24
    2906:	f9 1e       	adc	r15, r25
    acc += (int32_t)W_hz[3][6] * (int32_t)h_state[6];
    2908:	c9 56       	subi	r28, 0x69	; 105
    290a:	de 4f       	sbci	r29, 0xFE	; 254
    290c:	28 81       	ld	r18, Y
    290e:	39 81       	ldd	r19, Y+1	; 0x01
    2910:	c7 59       	subi	r28, 0x97	; 151
    2912:	d1 40       	sbci	r29, 0x01	; 1
    2914:	af ec       	ldi	r26, 0xCF	; 207
    2916:	bf ef       	ldi	r27, 0xFF	; 255
    2918:	0e 94 ab 32 	call	0x6556	; 0x6556 <__mulhisi3>
    291c:	c6 0e       	add	r12, r22
    291e:	d7 1e       	adc	r13, r23
    2920:	e8 1e       	adc	r14, r24
    2922:	f9 1e       	adc	r15, r25
    acc += (int32_t)W_hz[3][7] * (int32_t)h_state[7];
    2924:	29 89       	ldd	r18, Y+17	; 0x11
    2926:	3a 89       	ldd	r19, Y+18	; 0x12
    2928:	a7 ee       	ldi	r26, 0xE7	; 231
    292a:	bf ef       	ldi	r27, 0xFF	; 255
    292c:	0e 94 ab 32 	call	0x6556	; 0x6556 <__mulhisi3>
    2930:	c6 0e       	add	r12, r22
    2932:	d7 1e       	adc	r13, r23
    2934:	e8 1e       	adc	r14, r24
    2936:	f9 1e       	adc	r15, r25
    acc += (int32_t)W_hz[3][8] * (int32_t)h_state[8];
    2938:	2f 89       	ldd	r18, Y+23	; 0x17
    293a:	38 8d       	ldd	r19, Y+24	; 0x18
    293c:	a7 ed       	ldi	r26, 0xD7	; 215
    293e:	bf ef       	ldi	r27, 0xFF	; 255
    2940:	0e 94 ab 32 	call	0x6556	; 0x6556 <__mulhisi3>
    2944:	6f 8f       	std	Y+31, r22	; 0x1f
    2946:	78 a3       	std	Y+32, r23	; 0x20
    2948:	89 a3       	std	Y+33, r24	; 0x21
    294a:	9a a3       	std	Y+34, r25	; 0x22
    294c:	c6 0e       	add	r12, r22
    294e:	d7 1e       	adc	r13, r23
    2950:	e8 1e       	adc	r14, r24
    2952:	f9 1e       	adc	r15, r25
    acc += (int32_t)W_hz[3][9] * (int32_t)h_state[9];
    2954:	29 e1       	ldi	r18, 0x19	; 25
    2956:	30 e0       	ldi	r19, 0x00	; 0
    2958:	a9 85       	ldd	r26, Y+9	; 0x09
    295a:	ba 85       	ldd	r27, Y+10	; 0x0a
    295c:	0e 94 c2 32 	call	0x6584	; 0x6584 <__usmulhisi3>
    2960:	cf 5a       	subi	r28, 0xAF	; 175
    2962:	de 4f       	sbci	r29, 0xFE	; 254
    2964:	68 83       	st	Y, r22
    2966:	79 83       	std	Y+1, r23	; 0x01
    2968:	8a 83       	std	Y+2, r24	; 0x02
    296a:	9b 83       	std	Y+3, r25	; 0x03
    296c:	c1 55       	subi	r28, 0x51	; 81
    296e:	d1 40       	sbci	r29, 0x01	; 1
    2970:	c6 0e       	add	r12, r22
    2972:	d7 1e       	adc	r13, r23
    2974:	e8 1e       	adc	r14, r24
    2976:	f9 1e       	adc	r15, r25
    acc += (int32_t)W_hz[3][10] * (int32_t)h_state[10];
    2978:	af 96       	adiw	r28, 0x2f	; 47
    297a:	2c ad       	ldd	r18, Y+60	; 0x3c
    297c:	3d ad       	ldd	r19, Y+61	; 0x3d
    297e:	4e ad       	ldd	r20, Y+62	; 0x3e
    2980:	5f ad       	ldd	r21, Y+63	; 0x3f
    2982:	af 97       	sbiw	r28, 0x2f	; 47
    2984:	c2 0e       	add	r12, r18
    2986:	d3 1e       	adc	r13, r19
    2988:	e4 1e       	adc	r14, r20
    298a:	f5 1e       	adc	r15, r21
    acc += (int32_t)W_hz[3][11] * (int32_t)h_state[11];
    298c:	29 8d       	ldd	r18, Y+25	; 0x19
    298e:	3a 8d       	ldd	r19, Y+26	; 0x1a
    2990:	a6 ef       	ldi	r26, 0xF6	; 246
    2992:	bf ef       	ldi	r27, 0xFF	; 255
    2994:	0e 94 ab 32 	call	0x6556	; 0x6556 <__mulhisi3>
    2998:	c6 0e       	add	r12, r22
    299a:	d7 1e       	adc	r13, r23
    299c:	e8 1e       	adc	r14, r24
    299e:	f9 1e       	adc	r15, r25
    acc += (int32_t)W_hz[3][12] * (int32_t)h_state[12];
    29a0:	98 01       	movw	r18, r16
    29a2:	a2 ed       	ldi	r26, 0xD2	; 210
    29a4:	bf ef       	ldi	r27, 0xFF	; 255
    29a6:	0e 94 ab 32 	call	0x6556	; 0x6556 <__mulhisi3>
    29aa:	c6 0e       	add	r12, r22
    29ac:	d7 1e       	adc	r13, r23
    29ae:	e8 1e       	adc	r14, r24
    29b0:	f9 1e       	adc	r15, r25
    acc += (int32_t)W_hz[3][13] * (int32_t)h_state[13];
    29b2:	2b 8d       	ldd	r18, Y+27	; 0x1b
    29b4:	3c 8d       	ldd	r19, Y+28	; 0x1c
    29b6:	a1 ef       	ldi	r26, 0xF1	; 241
    29b8:	bf ef       	ldi	r27, 0xFF	; 255
    29ba:	0e 94 ab 32 	call	0x6556	; 0x6556 <__mulhisi3>
    29be:	c6 0e       	add	r12, r22
    29c0:	d7 1e       	adc	r13, r23
    29c2:	e8 1e       	adc	r14, r24
    29c4:	f9 1e       	adc	r15, r25
    acc += (int32_t)W_hz[3][14] * (int32_t)h_state[14];
    29c6:	2d 8d       	ldd	r18, Y+29	; 0x1d
    29c8:	3e 8d       	ldd	r19, Y+30	; 0x1e
    29ca:	a8 ed       	ldi	r26, 0xD8	; 216
    29cc:	bf ef       	ldi	r27, 0xFF	; 255
    29ce:	0e 94 ab 32 	call	0x6556	; 0x6556 <__mulhisi3>
    29d2:	dc 01       	movw	r26, r24
    29d4:	cb 01       	movw	r24, r22
    29d6:	8c 0d       	add	r24, r12
    29d8:	9d 1d       	adc	r25, r13
    29da:	ae 1d       	adc	r26, r14
    29dc:	bf 1d       	adc	r27, r15
    acc += (int32_t)W_hz[3][15] * (int32_t)h_state[15];
    29de:	c1 55       	subi	r28, 0x51	; 81
    29e0:	df 4f       	sbci	r29, 0xFF	; 255
    29e2:	28 81       	ld	r18, Y
    29e4:	39 81       	ldd	r19, Y+1	; 0x01
    29e6:	4a 81       	ldd	r20, Y+2	; 0x02
    29e8:	5b 81       	ldd	r21, Y+3	; 0x03
    29ea:	cf 5a       	subi	r28, 0xAF	; 175
    29ec:	d0 40       	sbci	r29, 0x00	; 0
    29ee:	82 0f       	add	r24, r18
    29f0:	93 1f       	adc	r25, r19
    29f2:	a4 1f       	adc	r26, r20
    29f4:	b5 1f       	adc	r27, r21
    acc >>= FRAC_BITS;
