22
main_unrolled.ino.elf:     file format elf32-avr


Disassembly of section .text:

00000000 <__vectors>:
       0:	0c 94 72 00 	jmp	0xe4	; 0xe4 <__ctors_end>
       4:	0c 94 93 00 	jmp	0x126	; 0x126 <__bad_interrupt>
       8:	0c 94 93 00 	jmp	0x126	; 0x126 <__bad_interrupt>
       c:	0c 94 93 00 	jmp	0x126	; 0x126 <__bad_interrupt>
      10:	0c 94 93 00 	jmp	0x126	; 0x126 <__bad_interrupt>
      14:	0c 94 93 00 	jmp	0x126	; 0x126 <__bad_interrupt>
      18:	0c 94 93 00 	jmp	0x126	; 0x126 <__bad_interrupt>
      1c:	0c 94 93 00 	jmp	0x126	; 0x126 <__bad_interrupt>
      20:	0c 94 93 00 	jmp	0x126	; 0x126 <__bad_interrupt>
      24:	0c 94 93 00 	jmp	0x126	; 0x126 <__bad_interrupt>
      28:	0c 94 93 00 	jmp	0x126	; 0x126 <__bad_interrupt>
      2c:	0c 94 93 00 	jmp	0x126	; 0x126 <__bad_interrupt>
      30:	0c 94 93 00 	jmp	0x126	; 0x126 <__bad_interrupt>
      34:	0c 94 93 00 	jmp	0x126	; 0x126 <__bad_interrupt>
      38:	0c 94 93 00 	jmp	0x126	; 0x126 <__bad_interrupt>
      3c:	0c 94 93 00 	jmp	0x126	; 0x126 <__bad_interrupt>
      40:	0c 94 93 00 	jmp	0x126	; 0x126 <__bad_interrupt>
      44:	0c 94 93 00 	jmp	0x126	; 0x126 <__bad_interrupt>
      48:	0c 94 93 00 	jmp	0x126	; 0x126 <__bad_interrupt>
      4c:	0c 94 93 00 	jmp	0x126	; 0x126 <__bad_interrupt>
      50:	0c 94 93 00 	jmp	0x126	; 0x126 <__bad_interrupt>
      54:	0c 94 93 00 	jmp	0x126	; 0x126 <__bad_interrupt>
      58:	0c 94 93 00 	jmp	0x126	; 0x126 <__bad_interrupt>
      5c:	0c 94 57 01 	jmp	0x2ae	; 0x2ae <__vector_23>
      60:	0c 94 93 00 	jmp	0x126	; 0x126 <__bad_interrupt>
      64:	0c 94 93 00 	jmp	0x126	; 0x126 <__bad_interrupt>
      68:	0c 94 93 00 	jmp	0x126	; 0x126 <__bad_interrupt>
      6c:	0c 94 93 00 	jmp	0x126	; 0x126 <__bad_interrupt>
      70:	0c 94 93 00 	jmp	0x126	; 0x126 <__bad_interrupt>
      74:	0c 94 93 00 	jmp	0x126	; 0x126 <__bad_interrupt>
      78:	0c 94 93 00 	jmp	0x126	; 0x126 <__bad_interrupt>
      7c:	0c 94 93 00 	jmp	0x126	; 0x126 <__bad_interrupt>
      80:	0c 94 93 00 	jmp	0x126	; 0x126 <__bad_interrupt>
      84:	0c 94 93 00 	jmp	0x126	; 0x126 <__bad_interrupt>
      88:	0c 94 93 00 	jmp	0x126	; 0x126 <__bad_interrupt>
      8c:	0c 94 93 00 	jmp	0x126	; 0x126 <__bad_interrupt>
      90:	0c 94 93 00 	jmp	0x126	; 0x126 <__bad_interrupt>
      94:	0c 94 93 00 	jmp	0x126	; 0x126 <__bad_interrupt>
      98:	0c 94 93 00 	jmp	0x126	; 0x126 <__bad_interrupt>
      9c:	0c 94 93 00 	jmp	0x126	; 0x126 <__bad_interrupt>
      a0:	0c 94 93 00 	jmp	0x126	; 0x126 <__bad_interrupt>
      a4:	0c 94 93 00 	jmp	0x126	; 0x126 <__bad_interrupt>
      a8:	0c 94 93 00 	jmp	0x126	; 0x126 <__bad_interrupt>
      ac:	0c 94 93 00 	jmp	0x126	; 0x126 <__bad_interrupt>
      b0:	0c 94 93 00 	jmp	0x126	; 0x126 <__bad_interrupt>
      b4:	0c 94 93 00 	jmp	0x126	; 0x126 <__bad_interrupt>
      b8:	0c 94 93 00 	jmp	0x126	; 0x126 <__bad_interrupt>
      bc:	0c 94 93 00 	jmp	0x126	; 0x126 <__bad_interrupt>
      c0:	0c 94 93 00 	jmp	0x126	; 0x126 <__bad_interrupt>
      c4:	0c 94 93 00 	jmp	0x126	; 0x126 <__bad_interrupt>
      c8:	0c 94 93 00 	jmp	0x126	; 0x126 <__bad_interrupt>
      cc:	0c 94 93 00 	jmp	0x126	; 0x126 <__bad_interrupt>
      d0:	0c 94 93 00 	jmp	0x126	; 0x126 <__bad_interrupt>
      d4:	0c 94 93 00 	jmp	0x126	; 0x126 <__bad_interrupt>
      d8:	0c 94 93 00 	jmp	0x126	; 0x126 <__bad_interrupt>
      dc:	0c 94 93 00 	jmp	0x126	; 0x126 <__bad_interrupt>
      e0:	0c 94 93 00 	jmp	0x126	; 0x126 <__bad_interrupt>

000000e4 <__ctors_end>:
      e4:	11 24       	eor	r1, r1
      e6:	1f be       	out	0x3f, r1	; 63
      e8:	cf ef       	ldi	r28, 0xFF	; 255
      ea:	d1 e2       	ldi	r29, 0x21	; 33
      ec:	de bf       	out	0x3e, r29	; 62
      ee:	cd bf       	out	0x3d, r28	; 61
      f0:	00 e0       	ldi	r16, 0x00	; 0
      f2:	0c bf       	out	0x3c, r16	; 60

000000f4 <__do_copy_data>:
      f4:	12 e0       	ldi	r17, 0x02	; 2
      f6:	a0 e0       	ldi	r26, 0x00	; 0
      f8:	b2 e0       	ldi	r27, 0x02	; 2
      fa:	e6 e9       	ldi	r30, 0x96	; 150
      fc:	f5 e6       	ldi	r31, 0x65	; 101
      fe:	00 e0       	ldi	r16, 0x00	; 0
     100:	0b bf       	out	0x3b, r16	; 59
     102:	02 c0       	rjmp	.+4      	; 0x108 <__do_copy_data+0x14>
     104:	07 90       	elpm	r0, Z+
     106:	0d 92       	st	X+, r0
     108:	a0 32       	cpi	r26, 0x20	; 32
     10a:	b1 07       	cpc	r27, r17
     10c:	d9 f7       	brne	.-10     	; 0x104 <__do_copy_data+0x10>

0000010e <__do_clear_bss>:
     10e:	22 e0       	ldi	r18, 0x02	; 2
     110:	a0 e2       	ldi	r26, 0x20	; 32
     112:	b2 e0       	ldi	r27, 0x02	; 2
     114:	01 c0       	rjmp	.+2      	; 0x118 <.do_clear_bss_start>

00000116 <.do_clear_bss_loop>:
     116:	1d 92       	st	X+, r1

00000118 <.do_clear_bss_start>:
     118:	a9 32       	cpi	r26, 0x29	; 41
     11a:	b2 07       	cpc	r27, r18
     11c:	e1 f7       	brne	.-8      	; 0x116 <.do_clear_bss_loop>
     11e:	0e 94 a1 01 	call	0x342	; 0x342 <main>
     122:	0c 94 c9 32 	jmp	0x6592	; 0x6592 <_exit>

00000126 <__bad_interrupt>:
     126:	0c 94 00 00 	jmp	0	; 0x0 <__vectors>

0000012a <_ZL10fp_add_satii>:
    if (v < FP_MIN) return FP_MIN;
    return (int16_t)v;
}

static inline int16_t fp_add_sat(int16_t a, int16_t b) {
    int32_t s = (int32_t)a + (int32_t)b;
     12a:	09 2e       	mov	r0, r25
     12c:	00 0c       	add	r0, r0
     12e:	aa 0b       	sbc	r26, r26
     130:	bb 0b       	sbc	r27, r27
     132:	ab 01       	movw	r20, r22
     134:	77 0f       	add	r23, r23
     136:	66 0b       	sbc	r22, r22
     138:	77 0b       	sbc	r23, r23
     13a:	84 0f       	add	r24, r20
     13c:	95 1f       	adc	r25, r21
     13e:	a6 1f       	adc	r26, r22
     140:	b7 1f       	adc	r27, r23
    if (s > FP_MAX) return FP_MAX;
     142:	81 15       	cp	r24, r1
     144:	20 e8       	ldi	r18, 0x80	; 128
     146:	92 07       	cpc	r25, r18
     148:	a1 05       	cpc	r26, r1
     14a:	b1 05       	cpc	r27, r1
     14c:	44 f4       	brge	.+16     	; 0x15e <_ZL10fp_add_satii+0x34>
    if (s < FP_MIN) return FP_MIN;
     14e:	81 15       	cp	r24, r1
     150:	20 e8       	ldi	r18, 0x80	; 128
     152:	92 07       	cpc	r25, r18
     154:	2f ef       	ldi	r18, 0xFF	; 255
     156:	a2 07       	cpc	r26, r18
     158:	b2 07       	cpc	r27, r18
     15a:	24 f0       	brlt	.+8      	; 0x164 <_ZL10fp_add_satii+0x3a>
     15c:	08 95       	ret
    return (int16_t)v;
}

static inline int16_t fp_add_sat(int16_t a, int16_t b) {
    int32_t s = (int32_t)a + (int32_t)b;
    if (s > FP_MAX) return FP_MAX;
     15e:	8f ef       	ldi	r24, 0xFF	; 255
     160:	9f e7       	ldi	r25, 0x7F	; 127
     162:	08 95       	ret
    if (s < FP_MIN) return FP_MIN;
     164:	80 e0       	ldi	r24, 0x00	; 0
     166:	90 e8       	ldi	r25, 0x80	; 128
    return (int16_t)s;
}
     168:	08 95       	ret

0000016a <_ZL10fp_sigmoidi>:

static inline int16_t fp_sigmoid(int16_t x) {
     16a:	bc 01       	movw	r22, r24
    if (x <= (int16_t)(-320)) return (int16_t)0;
     16c:	61 3c       	cpi	r22, 0xC1	; 193
     16e:	8e ef       	ldi	r24, 0xFE	; 254
     170:	78 07       	cpc	r23, r24
     172:	0c f4       	brge	.+2      	; 0x176 <_ZL10fp_sigmoidi+0xc>
     174:	59 c0       	rjmp	.+178    	; 0x228 <_ZL10fp_sigmoidi+0xbe>
    if (x <= (int16_t)(-152)) return fp_add_sat((int16_t)10,  fp_mul((int16_t)2,  x));
     176:	69 36       	cpi	r22, 0x69	; 105
     178:	8f ef       	ldi	r24, 0xFF	; 255
     17a:	78 07       	cpc	r23, r24
     17c:	7c f4       	brge	.+30     	; 0x19c <_ZL10fp_sigmoidi+0x32>
// ---------------------------------------------------------------------------
// Fixed-point primitives  (kept as inline functions so avr-gcc inlines them
// and the assembly is one flat sequence of instructions)
// ---------------------------------------------------------------------------
static inline int16_t fp_mul(int16_t a, int16_t b) {
    return (int16_t)(((int32_t)a * (int32_t)b) >> FRAC_BITS);
     17e:	07 2e       	mov	r0, r23
     180:	00 0c       	add	r0, r0
     182:	88 0b       	sbc	r24, r24
     184:	99 0b       	sbc	r25, r25
     186:	e5 e0       	ldi	r30, 0x05	; 5
     188:	95 95       	asr	r25
     18a:	87 95       	ror	r24
     18c:	77 95       	ror	r23
     18e:	67 95       	ror	r22
     190:	ea 95       	dec	r30
     192:	d1 f7       	brne	.-12     	; 0x188 <_ZL10fp_sigmoidi+0x1e>
    return (int16_t)s;
}

static inline int16_t fp_sigmoid(int16_t x) {
    if (x <= (int16_t)(-320)) return (int16_t)0;
    if (x <= (int16_t)(-152)) return fp_add_sat((int16_t)10,  fp_mul((int16_t)2,  x));
     194:	8a e0       	ldi	r24, 0x0A	; 10
     196:	90 e0       	ldi	r25, 0x00	; 0
    if (x <= (int16_t)( -64)) return fp_add_sat((int16_t)24,  fp_mul((int16_t)8,  x));
    if (x <= (int16_t)(  64)) return fp_add_sat((int16_t)32,  fp_mul((int16_t)16, x));
    if (x <= (int16_t)( 152)) return fp_add_sat((int16_t)40,  fp_mul((int16_t)8,  x));
    if (x <= (int16_t)( 320)) return fp_add_sat((int16_t)54,  fp_mul((int16_t)2,  x));
     198:	0c 94 95 00 	jmp	0x12a	; 0x12a <_ZL10fp_add_satii>
}

static inline int16_t fp_sigmoid(int16_t x) {
    if (x <= (int16_t)(-320)) return (int16_t)0;
    if (x <= (int16_t)(-152)) return fp_add_sat((int16_t)10,  fp_mul((int16_t)2,  x));
    if (x <= (int16_t)( -64)) return fp_add_sat((int16_t)24,  fp_mul((int16_t)8,  x));
     19c:	61 3c       	cpi	r22, 0xC1	; 193
     19e:	8f ef       	ldi	r24, 0xFF	; 255
     1a0:	78 07       	cpc	r23, r24
     1a2:	74 f4       	brge	.+28     	; 0x1c0 <_ZL10fp_sigmoidi+0x56>
// ---------------------------------------------------------------------------
// Fixed-point primitives  (kept as inline functions so avr-gcc inlines them
// and the assembly is one flat sequence of instructions)
// ---------------------------------------------------------------------------
static inline int16_t fp_mul(int16_t a, int16_t b) {
    return (int16_t)(((int32_t)a * (int32_t)b) >> FRAC_BITS);
     1a4:	07 2e       	mov	r0, r23
     1a6:	00 0c       	add	r0, r0
     1a8:	88 0b       	sbc	r24, r24
     1aa:	99 0b       	sbc	r25, r25
     1ac:	53 e0       	ldi	r21, 0x03	; 3
     1ae:	95 95       	asr	r25
     1b0:	87 95       	ror	r24
     1b2:	77 95       	ror	r23
     1b4:	67 95       	ror	r22
     1b6:	5a 95       	dec	r21
     1b8:	d1 f7       	brne	.-12     	; 0x1ae <_ZL10fp_sigmoidi+0x44>
}

static inline int16_t fp_sigmoid(int16_t x) {
    if (x <= (int16_t)(-320)) return (int16_t)0;
    if (x <= (int16_t)(-152)) return fp_add_sat((int16_t)10,  fp_mul((int16_t)2,  x));
    if (x <= (int16_t)( -64)) return fp_add_sat((int16_t)24,  fp_mul((int16_t)8,  x));
     1ba:	88 e1       	ldi	r24, 0x18	; 24
     1bc:	90 e0       	ldi	r25, 0x00	; 0
     1be:	ec cf       	rjmp	.-40     	; 0x198 <_ZL10fp_sigmoidi+0x2e>
    if (x <= (int16_t)(  64)) return fp_add_sat((int16_t)32,  fp_mul((int16_t)16, x));
     1c0:	61 34       	cpi	r22, 0x41	; 65
     1c2:	71 05       	cpc	r23, r1
     1c4:	74 f4       	brge	.+28     	; 0x1e2 <_ZL10fp_sigmoidi+0x78>
// ---------------------------------------------------------------------------
// Fixed-point primitives  (kept as inline functions so avr-gcc inlines them
// and the assembly is one flat sequence of instructions)
// ---------------------------------------------------------------------------
static inline int16_t fp_mul(int16_t a, int16_t b) {
    return (int16_t)(((int32_t)a * (int32_t)b) >> FRAC_BITS);
     1c6:	07 2e       	mov	r0, r23
     1c8:	00 0c       	add	r0, r0
     1ca:	88 0b       	sbc	r24, r24
     1cc:	99 0b       	sbc	r25, r25
     1ce:	42 e0       	ldi	r20, 0x02	; 2
     1d0:	95 95       	asr	r25
     1d2:	87 95       	ror	r24
     1d4:	77 95       	ror	r23
     1d6:	67 95       	ror	r22
     1d8:	4a 95       	dec	r20
     1da:	d1 f7       	brne	.-12     	; 0x1d0 <_ZL10fp_sigmoidi+0x66>

static inline int16_t fp_sigmoid(int16_t x) {
    if (x <= (int16_t)(-320)) return (int16_t)0;
    if (x <= (int16_t)(-152)) return fp_add_sat((int16_t)10,  fp_mul((int16_t)2,  x));
    if (x <= (int16_t)( -64)) return fp_add_sat((int16_t)24,  fp_mul((int16_t)8,  x));
    if (x <= (int16_t)(  64)) return fp_add_sat((int16_t)32,  fp_mul((int16_t)16, x));
     1dc:	80 e2       	ldi	r24, 0x20	; 32
     1de:	90 e0       	ldi	r25, 0x00	; 0
     1e0:	db cf       	rjmp	.-74     	; 0x198 <_ZL10fp_sigmoidi+0x2e>
    if (x <= (int16_t)( 152)) return fp_add_sat((int16_t)40,  fp_mul((int16_t)8,  x));
     1e2:	69 39       	cpi	r22, 0x99	; 153
     1e4:	71 05       	cpc	r23, r1
     1e6:	74 f4       	brge	.+28     	; 0x204 <_ZL10fp_sigmoidi+0x9a>
// ---------------------------------------------------------------------------
// Fixed-point primitives  (kept as inline functions so avr-gcc inlines them
// and the assembly is one flat sequence of instructions)
// ---------------------------------------------------------------------------
static inline int16_t fp_mul(int16_t a, int16_t b) {
    return (int16_t)(((int32_t)a * (int32_t)b) >> FRAC_BITS);
     1e8:	07 2e       	mov	r0, r23
     1ea:	00 0c       	add	r0, r0
     1ec:	88 0b       	sbc	r24, r24
     1ee:	99 0b       	sbc	r25, r25
     1f0:	33 e0       	ldi	r19, 0x03	; 3
     1f2:	95 95       	asr	r25
     1f4:	87 95       	ror	r24
     1f6:	77 95       	ror	r23
     1f8:	67 95       	ror	r22
     1fa:	3a 95       	dec	r19
     1fc:	d1 f7       	brne	.-12     	; 0x1f2 <_ZL10fp_sigmoidi+0x88>
static inline int16_t fp_sigmoid(int16_t x) {
    if (x <= (int16_t)(-320)) return (int16_t)0;
    if (x <= (int16_t)(-152)) return fp_add_sat((int16_t)10,  fp_mul((int16_t)2,  x));
    if (x <= (int16_t)( -64)) return fp_add_sat((int16_t)24,  fp_mul((int16_t)8,  x));
    if (x <= (int16_t)(  64)) return fp_add_sat((int16_t)32,  fp_mul((int16_t)16, x));
    if (x <= (int16_t)( 152)) return fp_add_sat((int16_t)40,  fp_mul((int16_t)8,  x));
     1fe:	88 e2       	ldi	r24, 0x28	; 40
     200:	90 e0       	ldi	r25, 0x00	; 0
     202:	ca cf       	rjmp	.-108    	; 0x198 <_ZL10fp_sigmoidi+0x2e>
    if (x <= (int16_t)( 320)) return fp_add_sat((int16_t)54,  fp_mul((int16_t)2,  x));
     204:	61 34       	cpi	r22, 0x41	; 65
     206:	81 e0       	ldi	r24, 0x01	; 1
     208:	78 07       	cpc	r23, r24
     20a:	8c f4       	brge	.+34     	; 0x22e <_ZL10fp_sigmoidi+0xc4>
// ---------------------------------------------------------------------------
// Fixed-point primitives  (kept as inline functions so avr-gcc inlines them
// and the assembly is one flat sequence of instructions)
// ---------------------------------------------------------------------------
static inline int16_t fp_mul(int16_t a, int16_t b) {
    return (int16_t)(((int32_t)a * (int32_t)b) >> FRAC_BITS);
     20c:	07 2e       	mov	r0, r23
     20e:	00 0c       	add	r0, r0
     210:	88 0b       	sbc	r24, r24
     212:	99 0b       	sbc	r25, r25
     214:	25 e0       	ldi	r18, 0x05	; 5
     216:	95 95       	asr	r25
     218:	87 95       	ror	r24
     21a:	77 95       	ror	r23
     21c:	67 95       	ror	r22
     21e:	2a 95       	dec	r18
     220:	d1 f7       	brne	.-12     	; 0x216 <_ZL10fp_sigmoidi+0xac>
    if (x <= (int16_t)(-320)) return (int16_t)0;
    if (x <= (int16_t)(-152)) return fp_add_sat((int16_t)10,  fp_mul((int16_t)2,  x));
    if (x <= (int16_t)( -64)) return fp_add_sat((int16_t)24,  fp_mul((int16_t)8,  x));
    if (x <= (int16_t)(  64)) return fp_add_sat((int16_t)32,  fp_mul((int16_t)16, x));
    if (x <= (int16_t)( 152)) return fp_add_sat((int16_t)40,  fp_mul((int16_t)8,  x));
    if (x <= (int16_t)( 320)) return fp_add_sat((int16_t)54,  fp_mul((int16_t)2,  x));
     222:	86 e3       	ldi	r24, 0x36	; 54
     224:	90 e0       	ldi	r25, 0x00	; 0
     226:	b8 cf       	rjmp	.-144    	; 0x198 <_ZL10fp_sigmoidi+0x2e>
    if (s < FP_MIN) return FP_MIN;
    return (int16_t)s;
}

static inline int16_t fp_sigmoid(int16_t x) {
    if (x <= (int16_t)(-320)) return (int16_t)0;
     228:	90 e0       	ldi	r25, 0x00	; 0
     22a:	80 e0       	ldi	r24, 0x00	; 0
     22c:	08 95       	ret
    if (x <= (int16_t)(-152)) return fp_add_sat((int16_t)10,  fp_mul((int16_t)2,  x));
    if (x <= (int16_t)( -64)) return fp_add_sat((int16_t)24,  fp_mul((int16_t)8,  x));
    if (x <= (int16_t)(  64)) return fp_add_sat((int16_t)32,  fp_mul((int16_t)16, x));
    if (x <= (int16_t)( 152)) return fp_add_sat((int16_t)40,  fp_mul((int16_t)8,  x));
    if (x <= (int16_t)( 320)) return fp_add_sat((int16_t)54,  fp_mul((int16_t)2,  x));
    return (int16_t)64;
     22e:	80 e4       	ldi	r24, 0x40	; 64
     230:	90 e0       	ldi	r25, 0x00	; 0
}
     232:	08 95       	ret

00000234 <_ZL7fp_tanhi>:

static inline int16_t fp_tanh(int16_t x) {
    int32_t two_x_32 = (int32_t)x << 1;
     234:	09 2e       	mov	r0, r25
     236:	00 0c       	add	r0, r0
     238:	aa 0b       	sbc	r26, r26
     23a:	bb 0b       	sbc	r27, r27
     23c:	88 0f       	add	r24, r24
     23e:	99 1f       	adc	r25, r25
     240:	aa 1f       	adc	r26, r26
     242:	bb 1f       	adc	r27, r27
    int16_t two_x = (two_x_32 > FP_MAX) ? FP_MAX :
     244:	81 15       	cp	r24, r1
     246:	20 e8       	ldi	r18, 0x80	; 128
     248:	92 07       	cpc	r25, r18
     24a:	a1 05       	cpc	r26, r1
     24c:	b1 05       	cpc	r27, r1
     24e:	1c f5       	brge	.+70     	; 0x296 <_ZL7fp_tanhi+0x62>
                    (two_x_32 < FP_MIN) ? FP_MIN :
     250:	81 15       	cp	r24, r1
     252:	20 e8       	ldi	r18, 0x80	; 128
     254:	92 07       	cpc	r25, r18
     256:	2f ef       	ldi	r18, 0xFF	; 255
     258:	a2 07       	cpc	r26, r18
     25a:	b2 07       	cpc	r27, r18
     25c:	fc f0       	brlt	.+62     	; 0x29c <_ZL7fp_tanhi+0x68>
                    (int16_t)two_x_32;
    int16_t sig = fp_sigmoid(two_x);
     25e:	0e 94 b5 00 	call	0x16a	; 0x16a <_ZL10fp_sigmoidi>
    int32_t result = ((int32_t)sig << 1) - FP_ONE;
     262:	09 2e       	mov	r0, r25
     264:	00 0c       	add	r0, r0
     266:	aa 0b       	sbc	r26, r26
     268:	bb 0b       	sbc	r27, r27
     26a:	88 0f       	add	r24, r24
     26c:	99 1f       	adc	r25, r25
     26e:	aa 1f       	adc	r26, r26
     270:	bb 1f       	adc	r27, r27
     272:	80 54       	subi	r24, 0x40	; 64
     274:	91 09       	sbc	r25, r1
     276:	a1 09       	sbc	r26, r1
     278:	b1 09       	sbc	r27, r1
static inline int16_t fp_mul(int16_t a, int16_t b) {
    return (int16_t)(((int32_t)a * (int32_t)b) >> FRAC_BITS);
}

static inline int16_t fp_sat32(int32_t v) {
    if (v > FP_MAX) return FP_MAX;
     27a:	81 15       	cp	r24, r1
     27c:	20 e8       	ldi	r18, 0x80	; 128
     27e:	92 07       	cpc	r25, r18
     280:	a1 05       	cpc	r26, r1
     282:	b1 05       	cpc	r27, r1
     284:	74 f4       	brge	.+28     	; 0x2a2 <_ZL7fp_tanhi+0x6e>
    if (v < FP_MIN) return FP_MIN;
     286:	81 15       	cp	r24, r1
     288:	20 e8       	ldi	r18, 0x80	; 128
     28a:	92 07       	cpc	r25, r18
     28c:	2f ef       	ldi	r18, 0xFF	; 255
     28e:	a2 07       	cpc	r26, r18
     290:	b2 07       	cpc	r27, r18
     292:	54 f0       	brlt	.+20     	; 0x2a8 <_ZL7fp_tanhi+0x74>
     294:	08 95       	ret
    return (int16_t)64;
}

static inline int16_t fp_tanh(int16_t x) {
    int32_t two_x_32 = (int32_t)x << 1;
    int16_t two_x = (two_x_32 > FP_MAX) ? FP_MAX :
     296:	8f ef       	ldi	r24, 0xFF	; 255
     298:	9f e7       	ldi	r25, 0x7F	; 127
     29a:	e1 cf       	rjmp	.-62     	; 0x25e <_ZL7fp_tanhi+0x2a>
                    (two_x_32 < FP_MIN) ? FP_MIN :
     29c:	80 e0       	ldi	r24, 0x00	; 0
     29e:	90 e8       	ldi	r25, 0x80	; 128
     2a0:	de cf       	rjmp	.-68     	; 0x25e <_ZL7fp_tanhi+0x2a>
static inline int16_t fp_mul(int16_t a, int16_t b) {
    return (int16_t)(((int32_t)a * (int32_t)b) >> FRAC_BITS);
}

static inline int16_t fp_sat32(int32_t v) {
    if (v > FP_MAX) return FP_MAX;
     2a2:	8f ef       	ldi	r24, 0xFF	; 255
     2a4:	9f e7       	ldi	r25, 0x7F	; 127
     2a6:	08 95       	ret
    if (v < FP_MIN) return FP_MIN;
     2a8:	80 e0       	ldi	r24, 0x00	; 0
     2aa:	90 e8       	ldi	r25, 0x80	; 128
                    (two_x_32 < FP_MIN) ? FP_MIN :
                    (int16_t)two_x_32;
    int16_t sig = fp_sigmoid(two_x);
    int32_t result = ((int32_t)sig << 1) - FP_ONE;
    return fp_sat32(result);
}
     2ac:	08 95       	ret

000002ae <__vector_23>:
#if defined(TIM0_OVF_vect)
ISR(TIM0_OVF_vect)
#else
ISR(TIMER0_OVF_vect)
#endif
{
     2ae:	1f 92       	push	r1
     2b0:	0f 92       	push	r0
     2b2:	0f b6       	in	r0, 0x3f	; 63
     2b4:	0f 92       	push	r0
     2b6:	11 24       	eor	r1, r1
     2b8:	2f 93       	push	r18
     2ba:	3f 93       	push	r19
     2bc:	8f 93       	push	r24
     2be:	9f 93       	push	r25
     2c0:	af 93       	push	r26
     2c2:	bf 93       	push	r27
	// copy these to local variables so they can be stored in registers
	// (volatile variables must be read from memory on every access)
	unsigned long m = timer0_millis;
     2c4:	80 91 25 02 	lds	r24, 0x0225	; 0x800225 <timer0_millis>
     2c8:	90 91 26 02 	lds	r25, 0x0226	; 0x800226 <timer0_millis+0x1>
     2cc:	a0 91 27 02 	lds	r26, 0x0227	; 0x800227 <timer0_millis+0x2>
     2d0:	b0 91 28 02 	lds	r27, 0x0228	; 0x800228 <timer0_millis+0x3>
	unsigned char f = timer0_fract;
     2d4:	30 91 24 02 	lds	r19, 0x0224	; 0x800224 <timer0_fract>

	m += MILLIS_INC;
	f += FRACT_INC;
     2d8:	23 e0       	ldi	r18, 0x03	; 3
     2da:	23 0f       	add	r18, r19
	if (f >= FRACT_MAX) {
     2dc:	2d 37       	cpi	r18, 0x7D	; 125
     2de:	58 f5       	brcc	.+86     	; 0x336 <__vector_23+0x88>
	// copy these to local variables so they can be stored in registers
	// (volatile variables must be read from memory on every access)
	unsigned long m = timer0_millis;
	unsigned char f = timer0_fract;

	m += MILLIS_INC;
     2e0:	01 96       	adiw	r24, 0x01	; 1
     2e2:	a1 1d       	adc	r26, r1
     2e4:	b1 1d       	adc	r27, r1
	if (f >= FRACT_MAX) {
		f -= FRACT_MAX;
		m += 1;
	}

	timer0_fract = f;
     2e6:	20 93 24 02 	sts	0x0224, r18	; 0x800224 <timer0_fract>
	timer0_millis = m;
     2ea:	80 93 25 02 	sts	0x0225, r24	; 0x800225 <timer0_millis>
     2ee:	90 93 26 02 	sts	0x0226, r25	; 0x800226 <timer0_millis+0x1>
     2f2:	a0 93 27 02 	sts	0x0227, r26	; 0x800227 <timer0_millis+0x2>
     2f6:	b0 93 28 02 	sts	0x0228, r27	; 0x800228 <timer0_millis+0x3>
	timer0_overflow_count++;
     2fa:	80 91 20 02 	lds	r24, 0x0220	; 0x800220 <__data_end>
     2fe:	90 91 21 02 	lds	r25, 0x0221	; 0x800221 <__data_end+0x1>
     302:	a0 91 22 02 	lds	r26, 0x0222	; 0x800222 <__data_end+0x2>
     306:	b0 91 23 02 	lds	r27, 0x0223	; 0x800223 <__data_end+0x3>
     30a:	01 96       	adiw	r24, 0x01	; 1
     30c:	a1 1d       	adc	r26, r1
     30e:	b1 1d       	adc	r27, r1
     310:	80 93 20 02 	sts	0x0220, r24	; 0x800220 <__data_end>
     314:	90 93 21 02 	sts	0x0221, r25	; 0x800221 <__data_end+0x1>
     318:	a0 93 22 02 	sts	0x0222, r26	; 0x800222 <__data_end+0x2>
     31c:	b0 93 23 02 	sts	0x0223, r27	; 0x800223 <__data_end+0x3>
}
     320:	bf 91       	pop	r27
     322:	af 91       	pop	r26
     324:	9f 91       	pop	r25
     326:	8f 91       	pop	r24
     328:	3f 91       	pop	r19
     32a:	2f 91       	pop	r18
     32c:	0f 90       	pop	r0
     32e:	0f be       	out	0x3f, r0	; 63
     330:	0f 90       	pop	r0
     332:	1f 90       	pop	r1
     334:	18 95       	reti
	unsigned char f = timer0_fract;

	m += MILLIS_INC;
	f += FRACT_INC;
	if (f >= FRACT_MAX) {
		f -= FRACT_MAX;
     336:	26 e8       	ldi	r18, 0x86	; 134
     338:	23 0f       	add	r18, r19
		m += 1;
     33a:	02 96       	adiw	r24, 0x02	; 2
     33c:	a1 1d       	adc	r26, r1
     33e:	b1 1d       	adc	r27, r1
     340:	d2 cf       	rjmp	.-92     	; 0x2e6 <__vector_23+0x38>

00000342 <main>:

void setupUSB() __attribute__((weak));
void setupUSB() { }

int main(void)
{
     342:	cf 93       	push	r28
     344:	df 93       	push	r29
     346:	cd b7       	in	r28, 0x3d	; 61
     348:	de b7       	in	r29, 0x3e	; 62
     34a:	c8 59       	subi	r28, 0x98	; 152
     34c:	d1 40       	sbci	r29, 0x01	; 1
     34e:	0f b6       	in	r0, 0x3f	; 63
     350:	f8 94       	cli
     352:	de bf       	out	0x3e, r29	; 62
     354:	0f be       	out	0x3f, r0	; 63
     356:	cd bf       	out	0x3d, r28	; 61

void init()
{
	// this needs to be called before setup() or some functions won't
	// work there
	sei();
     358:	78 94       	sei
	
	// on the ATmega168, timer 0 is also used for fast hardware pwm
	// (using phase-correct PWM would mean that timer 0 overflowed half as often
	// resulting in different millis() behavior on the ATmega8 and ATmega168)
#if defined(TCCR0A) && defined(WGM01)
	sbi(TCCR0A, WGM01);
     35a:	84 b5       	in	r24, 0x24	; 36
     35c:	82 60       	ori	r24, 0x02	; 2
     35e:	84 bd       	out	0x24, r24	; 36
	sbi(TCCR0A, WGM00);
     360:	84 b5       	in	r24, 0x24	; 36
     362:	81 60       	ori	r24, 0x01	; 1
     364:	84 bd       	out	0x24, r24	; 36
	// this combination is for the standard atmega8
	sbi(TCCR0, CS01);
	sbi(TCCR0, CS00);
#elif defined(TCCR0B) && defined(CS01) && defined(CS00)
	// this combination is for the standard 168/328/1280/2560
	sbi(TCCR0B, CS01);
     366:	85 b5       	in	r24, 0x25	; 37
     368:	82 60       	ori	r24, 0x02	; 2
     36a:	85 bd       	out	0x25, r24	; 37
	sbi(TCCR0B, CS00);
     36c:	85 b5       	in	r24, 0x25	; 37
     36e:	81 60       	ori	r24, 0x01	; 1
     370:	85 bd       	out	0x25, r24	; 37

	// enable timer 0 overflow interrupt
#if defined(TIMSK) && defined(TOIE0)
	sbi(TIMSK, TOIE0);
#elif defined(TIMSK0) && defined(TOIE0)
	sbi(TIMSK0, TOIE0);
     372:	80 91 6e 00 	lds	r24, 0x006E	; 0x80006e <__TEXT_REGION_LENGTH__+0x70006e>
     376:	81 60       	ori	r24, 0x01	; 1
     378:	80 93 6e 00 	sts	0x006E, r24	; 0x80006e <__TEXT_REGION_LENGTH__+0x70006e>
	// this is better for motors as it ensures an even waveform
	// note, however, that fast pwm mode can achieve a frequency of up
	// 8 MHz (with a 16 MHz clock) at 50% duty cycle

#if defined(TCCR1B) && defined(CS11) && defined(CS10)
	TCCR1B = 0;
     37c:	10 92 81 00 	sts	0x0081, r1	; 0x800081 <__TEXT_REGION_LENGTH__+0x700081>

	// set timer 1 prescale factor to 64
	sbi(TCCR1B, CS11);
     380:	80 91 81 00 	lds	r24, 0x0081	; 0x800081 <__TEXT_REGION_LENGTH__+0x700081>
     384:	82 60       	ori	r24, 0x02	; 2
     386:	80 93 81 00 	sts	0x0081, r24	; 0x800081 <__TEXT_REGION_LENGTH__+0x700081>
#if F_CPU >= 8000000L
	sbi(TCCR1B, CS10);
     38a:	80 91 81 00 	lds	r24, 0x0081	; 0x800081 <__TEXT_REGION_LENGTH__+0x700081>
     38e:	81 60       	ori	r24, 0x01	; 1
     390:	80 93 81 00 	sts	0x0081, r24	; 0x800081 <__TEXT_REGION_LENGTH__+0x700081>
	sbi(TCCR1, CS10);
#endif
#endif
	// put timer 1 in 8-bit phase correct pwm mode
#if defined(TCCR1A) && defined(WGM10)
	sbi(TCCR1A, WGM10);
     394:	80 91 80 00 	lds	r24, 0x0080	; 0x800080 <__TEXT_REGION_LENGTH__+0x700080>
     398:	81 60       	ori	r24, 0x01	; 1
     39a:	80 93 80 00 	sts	0x0080, r24	; 0x800080 <__TEXT_REGION_LENGTH__+0x700080>

	// set timer 2 prescale factor to 64
#if defined(TCCR2) && defined(CS22)
	sbi(TCCR2, CS22);
#elif defined(TCCR2B) && defined(CS22)
	sbi(TCCR2B, CS22);
     39e:	80 91 b1 00 	lds	r24, 0x00B1	; 0x8000b1 <__TEXT_REGION_LENGTH__+0x7000b1>
     3a2:	84 60       	ori	r24, 0x04	; 4
     3a4:	80 93 b1 00 	sts	0x00B1, r24	; 0x8000b1 <__TEXT_REGION_LENGTH__+0x7000b1>

	// configure timer 2 for phase correct pwm (8-bit)
#if defined(TCCR2) && defined(WGM20)
	sbi(TCCR2, WGM20);
#elif defined(TCCR2A) && defined(WGM20)
	sbi(TCCR2A, WGM20);
     3a8:	80 91 b0 00 	lds	r24, 0x00B0	; 0x8000b0 <__TEXT_REGION_LENGTH__+0x7000b0>
     3ac:	81 60       	ori	r24, 0x01	; 1
     3ae:	80 93 b0 00 	sts	0x00B0, r24	; 0x8000b0 <__TEXT_REGION_LENGTH__+0x7000b0>
//#else
	// Timer 2 not finished (may not be present on this CPU)
#endif

#if defined(TCCR3B) && defined(CS31) && defined(WGM30)
	sbi(TCCR3B, CS31);		// set timer 3 prescale factor to 64
     3b2:	80 91 91 00 	lds	r24, 0x0091	; 0x800091 <__TEXT_REGION_LENGTH__+0x700091>
     3b6:	82 60       	ori	r24, 0x02	; 2
     3b8:	80 93 91 00 	sts	0x0091, r24	; 0x800091 <__TEXT_REGION_LENGTH__+0x700091>
	sbi(TCCR3B, CS30);
     3bc:	80 91 91 00 	lds	r24, 0x0091	; 0x800091 <__TEXT_REGION_LENGTH__+0x700091>
     3c0:	81 60       	ori	r24, 0x01	; 1
     3c2:	80 93 91 00 	sts	0x0091, r24	; 0x800091 <__TEXT_REGION_LENGTH__+0x700091>
	sbi(TCCR3A, WGM30);		// put timer 3 in 8-bit phase correct pwm mode
     3c6:	80 91 90 00 	lds	r24, 0x0090	; 0x800090 <__TEXT_REGION_LENGTH__+0x700090>
     3ca:	81 60       	ori	r24, 0x01	; 1
     3cc:	80 93 90 00 	sts	0x0090, r24	; 0x800090 <__TEXT_REGION_LENGTH__+0x700090>
	sbi(TCCR4D, WGM40);		// put timer 4 in phase- and frequency-correct PWM mode	
	sbi(TCCR4A, PWM4A);		// enable PWM mode for comparator OCR4A
	sbi(TCCR4C, PWM4D);		// enable PWM mode for comparator OCR4D
#else /* beginning of timer4 block for ATMEGA1280 and ATMEGA2560 */
#if defined(TCCR4B) && defined(CS41) && defined(WGM40)
	sbi(TCCR4B, CS41);		// set timer 4 prescale factor to 64
     3d0:	80 91 a1 00 	lds	r24, 0x00A1	; 0x8000a1 <__TEXT_REGION_LENGTH__+0x7000a1>
     3d4:	82 60       	ori	r24, 0x02	; 2
     3d6:	80 93 a1 00 	sts	0x00A1, r24	; 0x8000a1 <__TEXT_REGION_LENGTH__+0x7000a1>
	sbi(TCCR4B, CS40);
     3da:	80 91 a1 00 	lds	r24, 0x00A1	; 0x8000a1 <__TEXT_REGION_LENGTH__+0x7000a1>
     3de:	81 60       	ori	r24, 0x01	; 1
     3e0:	80 93 a1 00 	sts	0x00A1, r24	; 0x8000a1 <__TEXT_REGION_LENGTH__+0x7000a1>
	sbi(TCCR4A, WGM40);		// put timer 4 in 8-bit phase correct pwm mode
     3e4:	80 91 a0 00 	lds	r24, 0x00A0	; 0x8000a0 <__TEXT_REGION_LENGTH__+0x7000a0>
     3e8:	81 60       	ori	r24, 0x01	; 1
     3ea:	80 93 a0 00 	sts	0x00A0, r24	; 0x8000a0 <__TEXT_REGION_LENGTH__+0x7000a0>
#endif
#endif /* end timer4 block for ATMEGA1280/2560 and similar */	

#if defined(TCCR5B) && defined(CS51) && defined(WGM50)
	sbi(TCCR5B, CS51);		// set timer 5 prescale factor to 64
     3ee:	80 91 21 01 	lds	r24, 0x0121	; 0x800121 <__TEXT_REGION_LENGTH__+0x700121>
     3f2:	82 60       	ori	r24, 0x02	; 2
     3f4:	80 93 21 01 	sts	0x0121, r24	; 0x800121 <__TEXT_REGION_LENGTH__+0x700121>
	sbi(TCCR5B, CS50);
     3f8:	80 91 21 01 	lds	r24, 0x0121	; 0x800121 <__TEXT_REGION_LENGTH__+0x700121>
     3fc:	81 60       	ori	r24, 0x01	; 1
     3fe:	80 93 21 01 	sts	0x0121, r24	; 0x800121 <__TEXT_REGION_LENGTH__+0x700121>
	sbi(TCCR5A, WGM50);		// put timer 5 in 8-bit phase correct pwm mode
     402:	80 91 20 01 	lds	r24, 0x0120	; 0x800120 <__TEXT_REGION_LENGTH__+0x700120>
     406:	81 60       	ori	r24, 0x01	; 1
     408:	80 93 20 01 	sts	0x0120, r24	; 0x800120 <__TEXT_REGION_LENGTH__+0x700120>
#endif

#if defined(ADCSRA)
	// set a2d prescaler so we are inside the desired 50-200 KHz range.
	#if F_CPU >= 16000000 // 16 MHz / 128 = 125 KHz
		sbi(ADCSRA, ADPS2);
     40c:	80 91 7a 00 	lds	r24, 0x007A	; 0x80007a <__TEXT_REGION_LENGTH__+0x70007a>
     410:	84 60       	ori	r24, 0x04	; 4
     412:	80 93 7a 00 	sts	0x007A, r24	; 0x80007a <__TEXT_REGION_LENGTH__+0x70007a>
		sbi(ADCSRA, ADPS1);
     416:	80 91 7a 00 	lds	r24, 0x007A	; 0x80007a <__TEXT_REGION_LENGTH__+0x70007a>
     41a:	82 60       	ori	r24, 0x02	; 2
     41c:	80 93 7a 00 	sts	0x007A, r24	; 0x80007a <__TEXT_REGION_LENGTH__+0x70007a>
		sbi(ADCSRA, ADPS0);
     420:	80 91 7a 00 	lds	r24, 0x007A	; 0x80007a <__TEXT_REGION_LENGTH__+0x70007a>
     424:	81 60       	ori	r24, 0x01	; 1
     426:	80 93 7a 00 	sts	0x007A, r24	; 0x80007a <__TEXT_REGION_LENGTH__+0x70007a>
		cbi(ADCSRA, ADPS2);
		cbi(ADCSRA, ADPS1);
		sbi(ADCSRA, ADPS0);
	#endif
	// enable a2d conversions
	sbi(ADCSRA, ADEN);
     42a:	80 91 7a 00 	lds	r24, 0x007A	; 0x80007a <__TEXT_REGION_LENGTH__+0x70007a>
     42e:	80 68       	ori	r24, 0x80	; 128
     430:	80 93 7a 00 	sts	0x007A, r24	; 0x80007a <__TEXT_REGION_LENGTH__+0x70007a>
	// here so they can be used as normal digital i/o; they will be
	// reconnected in Serial.begin()
#if defined(UCSRB)
	UCSRB = 0;
#elif defined(UCSR0B)
	UCSR0B = 0;
     434:	10 92 c1 00 	sts	0x00C1, r1	; 0x8000c1 <__TEXT_REGION_LENGTH__+0x7000c1>
     438:	20 91 00 02 	lds	r18, 0x0200	; 0x800200 <__DATA_REGION_ORIGIN__>
     43c:	30 91 01 02 	lds	r19, 0x0201	; 0x800201 <__DATA_REGION_ORIGIN__+0x1>
     440:	3c 87       	std	Y+12, r19	; 0x0c
     442:	2b 87       	std	Y+11, r18	; 0x0b
     444:	40 91 02 02 	lds	r20, 0x0202	; 0x800202 <__DATA_REGION_ORIGIN__+0x2>
     448:	50 91 03 02 	lds	r21, 0x0203	; 0x800203 <__DATA_REGION_ORIGIN__+0x3>
     44c:	58 87       	std	Y+8, r21	; 0x08
     44e:	4f 83       	std	Y+7, r20	; 0x07
     450:	80 91 04 02 	lds	r24, 0x0204	; 0x800204 <__DATA_REGION_ORIGIN__+0x4>
     454:	90 91 05 02 	lds	r25, 0x0205	; 0x800205 <__DATA_REGION_ORIGIN__+0x5>
     458:	9e 8b       	std	Y+22, r25	; 0x16
     45a:	8d 8b       	std	Y+21, r24	; 0x15
     45c:	20 90 06 02 	lds	r2, 0x0206	; 0x800206 <__DATA_REGION_ORIGIN__+0x6>
     460:	30 90 07 02 	lds	r3, 0x0207	; 0x800207 <__DATA_REGION_ORIGIN__+0x7>
     464:	a0 91 08 02 	lds	r26, 0x0208	; 0x800208 <__DATA_REGION_ORIGIN__+0x8>
     468:	b0 91 09 02 	lds	r27, 0x0209	; 0x800209 <__DATA_REGION_ORIGIN__+0x9>
     46c:	be 83       	std	Y+6, r27	; 0x06
     46e:	ad 83       	std	Y+5, r26	; 0x05
     470:	e0 91 0a 02 	lds	r30, 0x020A	; 0x80020a <__DATA_REGION_ORIGIN__+0xa>
     474:	f0 91 0b 02 	lds	r31, 0x020B	; 0x80020b <__DATA_REGION_ORIGIN__+0xb>
     478:	fe 87       	std	Y+14, r31	; 0x0e
     47a:	ed 87       	std	Y+13, r30	; 0x0d
     47c:	20 91 0c 02 	lds	r18, 0x020C	; 0x80020c <__DATA_REGION_ORIGIN__+0xc>
     480:	30 91 0d 02 	lds	r19, 0x020D	; 0x80020d <__DATA_REGION_ORIGIN__+0xd>
     484:	c9 56       	subi	r28, 0x69	; 105
     486:	de 4f       	sbci	r29, 0xFE	; 254
     488:	39 83       	std	Y+1, r19	; 0x01
     48a:	28 83       	st	Y, r18
     48c:	c7 59       	subi	r28, 0x97	; 151
     48e:	d1 40       	sbci	r29, 0x01	; 1
     490:	40 91 0e 02 	lds	r20, 0x020E	; 0x80020e <__DATA_REGION_ORIGIN__+0xe>
     494:	50 91 0f 02 	lds	r21, 0x020F	; 0x80020f <__DATA_REGION_ORIGIN__+0xf>
     498:	5a 8b       	std	Y+18, r21	; 0x12
     49a:	49 8b       	std	Y+17, r20	; 0x11
     49c:	80 91 10 02 	lds	r24, 0x0210	; 0x800210 <__DATA_REGION_ORIGIN__+0x10>
     4a0:	90 91 11 02 	lds	r25, 0x0211	; 0x800211 <__DATA_REGION_ORIGIN__+0x11>
     4a4:	98 8f       	std	Y+24, r25	; 0x18
     4a6:	8f 8b       	std	Y+23, r24	; 0x17
     4a8:	a0 91 12 02 	lds	r26, 0x0212	; 0x800212 <__DATA_REGION_ORIGIN__+0x12>
     4ac:	b0 91 13 02 	lds	r27, 0x0213	; 0x800213 <__DATA_REGION_ORIGIN__+0x13>
     4b0:	ba 87       	std	Y+10, r27	; 0x0a
     4b2:	a9 87       	std	Y+9, r26	; 0x09
     4b4:	e0 91 14 02 	lds	r30, 0x0214	; 0x800214 <__DATA_REGION_ORIGIN__+0x14>
     4b8:	f0 91 15 02 	lds	r31, 0x0215	; 0x800215 <__DATA_REGION_ORIGIN__+0x15>
     4bc:	f8 8b       	std	Y+16, r31	; 0x10
     4be:	ef 87       	std	Y+15, r30	; 0x0f
     4c0:	20 91 16 02 	lds	r18, 0x0216	; 0x800216 <__DATA_REGION_ORIGIN__+0x16>
     4c4:	30 91 17 02 	lds	r19, 0x0217	; 0x800217 <__DATA_REGION_ORIGIN__+0x17>
     4c8:	3a 8f       	std	Y+26, r19	; 0x1a
     4ca:	29 8f       	std	Y+25, r18	; 0x19
     4cc:	00 91 18 02 	lds	r16, 0x0218	; 0x800218 <__DATA_REGION_ORIGIN__+0x18>
     4d0:	10 91 19 02 	lds	r17, 0x0219	; 0x800219 <__DATA_REGION_ORIGIN__+0x19>
     4d4:	40 91 1a 02 	lds	r20, 0x021A	; 0x80021a <__DATA_REGION_ORIGIN__+0x1a>
     4d8:	50 91 1b 02 	lds	r21, 0x021B	; 0x80021b <__DATA_REGION_ORIGIN__+0x1b>
     4dc:	5c 8f       	std	Y+28, r21	; 0x1c
     4de:	4b 8f       	std	Y+27, r20	; 0x1b
     4e0:	80 91 1c 02 	lds	r24, 0x021C	; 0x80021c <__DATA_REGION_ORIGIN__+0x1c>
     4e4:	90 91 1d 02 	lds	r25, 0x021D	; 0x80021d <__DATA_REGION_ORIGIN__+0x1d>
     4e8:	9e 8f       	std	Y+30, r25	; 0x1e
     4ea:	8d 8f       	std	Y+29, r24	; 0x1d
     4ec:	a0 91 1e 02 	lds	r26, 0x021E	; 0x80021e <__DATA_REGION_ORIGIN__+0x1e>
     4f0:	b0 91 1f 02 	lds	r27, 0x021F	; 0x80021f <__DATA_REGION_ORIGIN__+0x1f>
     4f4:	bc 8b       	std	Y+20, r27	; 0x14
     4f6:	ab 8b       	std	Y+19, r26	; 0x13
    acc += (int32_t)W_ir[0][61] * (int32_t)x[61];
    acc += (int32_t)W_ir[0][62] * (int32_t)x[62];
    acc += (int32_t)W_ir[0][63] * (int32_t)x[63];
    acc >>= FRAC_BITS;
    acc += (int32_t)b_hr[0];
    acc += (int32_t)W_hr[0][0] * (int32_t)h_state[0];
     4f8:	2f e1       	ldi	r18, 0x1F	; 31
     4fa:	30 e0       	ldi	r19, 0x00	; 0
     4fc:	ab 85       	ldd	r26, Y+11	; 0x0b
     4fe:	bc 85       	ldd	r27, Y+12	; 0x0c
     500:	0e 94 c2 32 	call	0x6584	; 0x6584 <__usmulhisi3>
     504:	6b 01       	movw	r12, r22
     506:	7c 01       	movw	r14, r24
     508:	b5 e1       	ldi	r27, 0x15	; 21
     50a:	cb 0e       	add	r12, r27
     50c:	d1 1c       	adc	r13, r1
     50e:	e1 1c       	adc	r14, r1
     510:	f1 1c       	adc	r15, r1
    acc += (int32_t)W_hr[0][1] * (int32_t)h_state[1];
     512:	23 e0       	ldi	r18, 0x03	; 3
     514:	30 e0       	ldi	r19, 0x00	; 0
     516:	af 81       	ldd	r26, Y+7	; 0x07
     518:	b8 85       	ldd	r27, Y+8	; 0x08
     51a:	0e 94 c2 32 	call	0x6584	; 0x6584 <__usmulhisi3>
     51e:	c6 0e       	add	r12, r22
     520:	d7 1e       	adc	r13, r23
     522:	e8 1e       	adc	r14, r24
     524:	f9 1e       	adc	r15, r25
    acc += (int32_t)W_hr[0][2] * (int32_t)h_state[2];
     526:	2d 89       	ldd	r18, Y+21	; 0x15
     528:	3e 89       	ldd	r19, Y+22	; 0x16
     52a:	03 2e       	mov	r0, r19
     52c:	00 0c       	add	r0, r0
     52e:	44 0b       	sbc	r20, r20
     530:	55 0b       	sbc	r21, r21
     532:	2b a7       	std	Y+43, r18	; 0x2b
     534:	3c a7       	std	Y+44, r19	; 0x2c
     536:	4d a7       	std	Y+45, r20	; 0x2d
     538:	5e a7       	std	Y+46, r21	; 0x2e
     53a:	2f e1       	ldi	r18, 0x1F	; 31
     53c:	30 e0       	ldi	r19, 0x00	; 0
     53e:	ad 89       	ldd	r26, Y+21	; 0x15
     540:	be 89       	ldd	r27, Y+22	; 0x16
     542:	0e 94 c2 32 	call	0x6584	; 0x6584 <__usmulhisi3>
     546:	c6 0e       	add	r12, r22
     548:	d7 1e       	adc	r13, r23
     54a:	e8 1e       	adc	r14, r24
     54c:	f9 1e       	adc	r15, r25
    acc += (int32_t)W_hr[0][3] * (int32_t)h_state[3];
     54e:	c1 01       	movw	r24, r2
     550:	03 2c       	mov	r0, r3
     552:	00 0c       	add	r0, r0
     554:	aa 0b       	sbc	r26, r26
     556:	bb 0b       	sbc	r27, r27
     558:	ab 96       	adiw	r28, 0x2b	; 43
     55a:	8c af       	std	Y+60, r24	; 0x3c
     55c:	9d af       	std	Y+61, r25	; 0x3d
     55e:	ae af       	std	Y+62, r26	; 0x3e
     560:	bf af       	std	Y+63, r27	; 0x3f
     562:	ab 97       	sbiw	r28, 0x2b	; 43
     564:	91 01       	movw	r18, r2
     566:	ad ef       	ldi	r26, 0xFD	; 253
     568:	bf ef       	ldi	r27, 0xFF	; 255
     56a:	0e 94 ab 32 	call	0x6556	; 0x6556 <__mulhisi3>
     56e:	c6 0e       	add	r12, r22
     570:	d7 1e       	adc	r13, r23
     572:	e8 1e       	adc	r14, r24
     574:	f9 1e       	adc	r15, r25
    acc += (int32_t)W_hr[0][4] * (int32_t)h_state[4];
     576:	2d 81       	ldd	r18, Y+5	; 0x05
     578:	3e 81       	ldd	r19, Y+6	; 0x06
     57a:	03 2e       	mov	r0, r19
     57c:	00 0c       	add	r0, r0
     57e:	44 0b       	sbc	r20, r20
     580:	55 0b       	sbc	r21, r21
     582:	63 96       	adiw	r28, 0x13	; 19
     584:	2c af       	std	Y+60, r18	; 0x3c
     586:	3d af       	std	Y+61, r19	; 0x3d
     588:	4e af       	std	Y+62, r20	; 0x3e
     58a:	5f af       	std	Y+63, r21	; 0x3f
     58c:	63 97       	sbiw	r28, 0x13	; 19
     58e:	24 e2       	ldi	r18, 0x24	; 36
     590:	30 e0       	ldi	r19, 0x00	; 0
     592:	ad 81       	ldd	r26, Y+5	; 0x05
     594:	be 81       	ldd	r27, Y+6	; 0x06
     596:	0e 94 c2 32 	call	0x6584	; 0x6584 <__usmulhisi3>
     59a:	c6 0e       	add	r12, r22
     59c:	d7 1e       	adc	r13, r23
     59e:	e8 1e       	adc	r14, r24
     5a0:	f9 1e       	adc	r15, r25
    acc += (int32_t)W_hr[0][5] * (int32_t)h_state[5];
     5a2:	4d 85       	ldd	r20, Y+13	; 0x0d
     5a4:	5e 85       	ldd	r21, Y+14	; 0x0e
     5a6:	4a 01       	movw	r8, r20
     5a8:	55 0f       	add	r21, r21
     5aa:	aa 08       	sbc	r10, r10
     5ac:	bb 08       	sbc	r11, r11
     5ae:	d5 01       	movw	r26, r10
     5b0:	c4 01       	movw	r24, r8
     5b2:	88 0f       	add	r24, r24
     5b4:	99 1f       	adc	r25, r25
     5b6:	aa 1f       	adc	r26, r26
     5b8:	bb 1f       	adc	r27, r27
     5ba:	cd 53       	subi	r28, 0x3D	; 61
     5bc:	df 4f       	sbci	r29, 0xFF	; 255
     5be:	88 83       	st	Y, r24
     5c0:	99 83       	std	Y+1, r25	; 0x01
     5c2:	aa 83       	std	Y+2, r26	; 0x02
     5c4:	bb 83       	std	Y+3, r27	; 0x03
     5c6:	c3 5c       	subi	r28, 0xC3	; 195
     5c8:	d0 40       	sbci	r29, 0x00	; 0
     5ca:	c8 0e       	add	r12, r24
     5cc:	d9 1e       	adc	r13, r25
     5ce:	ea 1e       	adc	r14, r26
     5d0:	fb 1e       	adc	r15, r27
    acc += (int32_t)W_hr[0][6] * (int32_t)h_state[6];
     5d2:	c9 56       	subi	r28, 0x69	; 105
     5d4:	de 4f       	sbci	r29, 0xFE	; 254
     5d6:	28 81       	ld	r18, Y
     5d8:	39 81       	ldd	r19, Y+1	; 0x01
     5da:	c7 59       	subi	r28, 0x97	; 151
     5dc:	d1 40       	sbci	r29, 0x01	; 1
     5de:	03 2e       	mov	r0, r19
     5e0:	00 0c       	add	r0, r0
     5e2:	44 0b       	sbc	r20, r20
     5e4:	55 0b       	sbc	r21, r21
     5e6:	c9 54       	subi	r28, 0x49	; 73
     5e8:	df 4f       	sbci	r29, 0xFF	; 255
     5ea:	28 83       	st	Y, r18
     5ec:	39 83       	std	Y+1, r19	; 0x01
     5ee:	4a 83       	std	Y+2, r20	; 0x02
     5f0:	5b 83       	std	Y+3, r21	; 0x03
     5f2:	c7 5b       	subi	r28, 0xB7	; 183
     5f4:	d0 40       	sbci	r29, 0x00	; 0
     5f6:	c9 56       	subi	r28, 0x69	; 105
     5f8:	de 4f       	sbci	r29, 0xFE	; 254
     5fa:	28 81       	ld	r18, Y
     5fc:	39 81       	ldd	r19, Y+1	; 0x01
     5fe:	c7 59       	subi	r28, 0x97	; 151
     600:	d1 40       	sbci	r29, 0x01	; 1
     602:	ae ec       	ldi	r26, 0xCE	; 206
     604:	bf ef       	ldi	r27, 0xFF	; 255
     606:	0e 94 ab 32 	call	0x6556	; 0x6556 <__mulhisi3>
     60a:	c6 0e       	add	r12, r22
     60c:	d7 1e       	adc	r13, r23
     60e:	e8 1e       	adc	r14, r24
     610:	f9 1e       	adc	r15, r25
    acc += (int32_t)W_hr[0][7] * (int32_t)h_state[7];
    acc += (int32_t)W_hr[0][8] * (int32_t)h_state[8];
     612:	29 e3       	ldi	r18, 0x39	; 57
     614:	30 e0       	ldi	r19, 0x00	; 0
     616:	af 89       	ldd	r26, Y+23	; 0x17
     618:	b8 8d       	ldd	r27, Y+24	; 0x18
     61a:	0e 94 c2 32 	call	0x6584	; 0x6584 <__usmulhisi3>
     61e:	c9 53       	subi	r28, 0x39	; 57
     620:	df 4f       	sbci	r29, 0xFF	; 255
     622:	68 83       	st	Y, r22
     624:	79 83       	std	Y+1, r23	; 0x01
     626:	8a 83       	std	Y+2, r24	; 0x02
     628:	9b 83       	std	Y+3, r25	; 0x03
     62a:	c7 5c       	subi	r28, 0xC7	; 199
     62c:	d0 40       	sbci	r29, 0x00	; 0
     62e:	c6 0e       	add	r12, r22
     630:	d7 1e       	adc	r13, r23
     632:	e8 1e       	adc	r14, r24
     634:	f9 1e       	adc	r15, r25
    acc += (int32_t)W_hr[0][9] * (int32_t)h_state[9];
     636:	89 85       	ldd	r24, Y+9	; 0x09
     638:	9a 85       	ldd	r25, Y+10	; 0x0a
     63a:	09 2e       	mov	r0, r25
     63c:	00 0c       	add	r0, r0
     63e:	aa 0b       	sbc	r26, r26
     640:	bb 0b       	sbc	r27, r27
     642:	8f 8f       	std	Y+31, r24	; 0x1f
     644:	98 a3       	std	Y+32, r25	; 0x20
     646:	a9 a3       	std	Y+33, r26	; 0x21
     648:	ba a3       	std	Y+34, r27	; 0x22
     64a:	29 85       	ldd	r18, Y+9	; 0x09
     64c:	3a 85       	ldd	r19, Y+10	; 0x0a
     64e:	a6 ec       	ldi	r26, 0xC6	; 198
     650:	bf ef       	ldi	r27, 0xFF	; 255
     652:	0e 94 ab 32 	call	0x6556	; 0x6556 <__mulhisi3>
     656:	c6 0e       	add	r12, r22
     658:	d7 1e       	adc	r13, r23
     65a:	e8 1e       	adc	r14, r24
     65c:	f9 1e       	adc	r15, r25
    acc += (int32_t)W_hr[0][10] * (int32_t)h_state[10];
     65e:	2f 85       	ldd	r18, Y+15	; 0x0f
     660:	38 89       	ldd	r19, Y+16	; 0x10
     662:	03 2e       	mov	r0, r19
     664:	00 0c       	add	r0, r0
     666:	44 0b       	sbc	r20, r20
     668:	55 0b       	sbc	r21, r21
     66a:	af 96       	adiw	r28, 0x2f	; 47
     66c:	2c af       	std	Y+60, r18	; 0x3c
     66e:	3d af       	std	Y+61, r19	; 0x3d
     670:	4e af       	std	Y+62, r20	; 0x3e
     672:	5f af       	std	Y+63, r21	; 0x3f
     674:	af 97       	sbiw	r28, 0x2f	; 47
     676:	24 e2       	ldi	r18, 0x24	; 36
     678:	30 e0       	ldi	r19, 0x00	; 0
     67a:	af 85       	ldd	r26, Y+15	; 0x0f
     67c:	b8 89       	ldd	r27, Y+16	; 0x10
     67e:	0e 94 c2 32 	call	0x6584	; 0x6584 <__usmulhisi3>
     682:	e7 96       	adiw	r28, 0x37	; 55
     684:	6c af       	std	Y+60, r22	; 0x3c
     686:	7d af       	std	Y+61, r23	; 0x3d
     688:	8e af       	std	Y+62, r24	; 0x3e
     68a:	9f af       	std	Y+63, r25	; 0x3f
     68c:	e7 97       	sbiw	r28, 0x37	; 55
     68e:	c6 0e       	add	r12, r22
     690:	d7 1e       	adc	r13, r23
     692:	e8 1e       	adc	r14, r24
     694:	f9 1e       	adc	r15, r25
    acc += (int32_t)W_hr[0][11] * (int32_t)h_state[11];
     696:	89 8d       	ldd	r24, Y+25	; 0x19
     698:	9a 8d       	ldd	r25, Y+26	; 0x1a
     69a:	09 2e       	mov	r0, r25
     69c:	00 0c       	add	r0, r0
     69e:	aa 0b       	sbc	r26, r26
     6a0:	bb 0b       	sbc	r27, r27
     6a2:	8f ab       	std	Y+55, r24	; 0x37
     6a4:	98 af       	std	Y+56, r25	; 0x38
     6a6:	a9 af       	std	Y+57, r26	; 0x39
     6a8:	ba af       	std	Y+58, r27	; 0x3a
     6aa:	2f e2       	ldi	r18, 0x2F	; 47
     6ac:	30 e0       	ldi	r19, 0x00	; 0
     6ae:	a9 8d       	ldd	r26, Y+25	; 0x19
     6b0:	ba 8d       	ldd	r27, Y+26	; 0x1a
     6b2:	0e 94 c2 32 	call	0x6584	; 0x6584 <__usmulhisi3>
     6b6:	c6 0e       	add	r12, r22
     6b8:	d7 1e       	adc	r13, r23
     6ba:	e8 1e       	adc	r14, r24
     6bc:	f9 1e       	adc	r15, r25
    acc += (int32_t)W_hr[0][12] * (int32_t)h_state[12];
     6be:	98 01       	movw	r18, r16
     6c0:	01 2e       	mov	r0, r17
     6c2:	00 0c       	add	r0, r0
     6c4:	44 0b       	sbc	r20, r20
     6c6:	55 0b       	sbc	r21, r21
     6c8:	c5 53       	subi	r28, 0x35	; 53
     6ca:	df 4f       	sbci	r29, 0xFF	; 255
     6cc:	28 83       	st	Y, r18
     6ce:	39 83       	std	Y+1, r19	; 0x01
     6d0:	4a 83       	std	Y+2, r20	; 0x02
     6d2:	5b 83       	std	Y+3, r21	; 0x03
     6d4:	cb 5c       	subi	r28, 0xCB	; 203
     6d6:	d0 40       	sbci	r29, 0x00	; 0
     6d8:	23 e0       	ldi	r18, 0x03	; 3
     6da:	30 e0       	ldi	r19, 0x00	; 0
     6dc:	d8 01       	movw	r26, r16
     6de:	0e 94 c2 32 	call	0x6584	; 0x6584 <__usmulhisi3>
     6e2:	c1 53       	subi	r28, 0x31	; 49
     6e4:	df 4f       	sbci	r29, 0xFF	; 255
     6e6:	68 83       	st	Y, r22
     6e8:	79 83       	std	Y+1, r23	; 0x01
     6ea:	8a 83       	std	Y+2, r24	; 0x02
     6ec:	9b 83       	std	Y+3, r25	; 0x03
     6ee:	cf 5c       	subi	r28, 0xCF	; 207
     6f0:	d0 40       	sbci	r29, 0x00	; 0
     6f2:	c6 0e       	add	r12, r22
     6f4:	d7 1e       	adc	r13, r23
     6f6:	e8 1e       	adc	r14, r24
     6f8:	f9 1e       	adc	r15, r25
    acc += (int32_t)W_hr[0][13] * (int32_t)h_state[13];
     6fa:	8b 8d       	ldd	r24, Y+27	; 0x1b
     6fc:	9c 8d       	ldd	r25, Y+28	; 0x1c
     6fe:	09 2e       	mov	r0, r25
     700:	00 0c       	add	r0, r0
     702:	aa 0b       	sbc	r26, r26
     704:	bb 0b       	sbc	r27, r27
     706:	cd 52       	subi	r28, 0x2D	; 45
     708:	df 4f       	sbci	r29, 0xFF	; 255
     70a:	88 83       	st	Y, r24
     70c:	99 83       	std	Y+1, r25	; 0x01
     70e:	aa 83       	std	Y+2, r26	; 0x02
     710:	bb 83       	std	Y+3, r27	; 0x03
     712:	c3 5d       	subi	r28, 0xD3	; 211
     714:	d0 40       	sbci	r29, 0x00	; 0
     716:	2b 8d       	ldd	r18, Y+27	; 0x1b
     718:	3c 8d       	ldd	r19, Y+28	; 0x1c
     71a:	ab ef       	ldi	r26, 0xFB	; 251
     71c:	bf ef       	ldi	r27, 0xFF	; 255
     71e:	0e 94 ab 32 	call	0x6556	; 0x6556 <__mulhisi3>
     722:	c9 52       	subi	r28, 0x29	; 41
     724:	df 4f       	sbci	r29, 0xFF	; 255
     726:	68 83       	st	Y, r22
     728:	79 83       	std	Y+1, r23	; 0x01
     72a:	8a 83       	std	Y+2, r24	; 0x02
     72c:	9b 83       	std	Y+3, r25	; 0x03
     72e:	c7 5d       	subi	r28, 0xD7	; 215
     730:	d0 40       	sbci	r29, 0x00	; 0
     732:	c6 0e       	add	r12, r22
     734:	d7 1e       	adc	r13, r23
     736:	e8 1e       	adc	r14, r24
     738:	f9 1e       	adc	r15, r25
    acc += (int32_t)W_hr[0][14] * (int32_t)h_state[14];
     73a:	2d 8d       	ldd	r18, Y+29	; 0x1d
     73c:	3e 8d       	ldd	r19, Y+30	; 0x1e
     73e:	03 2e       	mov	r0, r19
     740:	00 0c       	add	r0, r0
     742:	44 0b       	sbc	r20, r20
     744:	55 0b       	sbc	r21, r21
     746:	2b a3       	std	Y+35, r18	; 0x23
     748:	3c a3       	std	Y+36, r19	; 0x24
     74a:	4d a3       	std	Y+37, r20	; 0x25
     74c:	5e a3       	std	Y+38, r21	; 0x26
     74e:	2b e3       	ldi	r18, 0x3B	; 59
     750:	30 e0       	ldi	r19, 0x00	; 0
     752:	ad 8d       	ldd	r26, Y+29	; 0x1d
     754:	be 8d       	ldd	r27, Y+30	; 0x1e
     756:	0e 94 c2 32 	call	0x6584	; 0x6584 <__usmulhisi3>
     75a:	c5 52       	subi	r28, 0x25	; 37
     75c:	df 4f       	sbci	r29, 0xFF	; 255
     75e:	68 83       	st	Y, r22
     760:	79 83       	std	Y+1, r23	; 0x01
     762:	8a 83       	std	Y+2, r24	; 0x02
     764:	9b 83       	std	Y+3, r25	; 0x03
     766:	cb 5d       	subi	r28, 0xDB	; 219
     768:	d0 40       	sbci	r29, 0x00	; 0
     76a:	c6 0e       	add	r12, r22
     76c:	d7 1e       	adc	r13, r23
     76e:	e8 1e       	adc	r14, r24
     770:	f9 1e       	adc	r15, r25
    acc += (int32_t)W_hr[0][15] * (int32_t)h_state[15];
     772:	8b 89       	ldd	r24, Y+19	; 0x13
     774:	9c 89       	ldd	r25, Y+20	; 0x14
     776:	09 2e       	mov	r0, r25
     778:	00 0c       	add	r0, r0
     77a:	aa 0b       	sbc	r26, r26
     77c:	bb 0b       	sbc	r27, r27
     77e:	67 96       	adiw	r28, 0x17	; 23
     780:	8c af       	std	Y+60, r24	; 0x3c
     782:	9d af       	std	Y+61, r25	; 0x3d
     784:	ae af       	std	Y+62, r26	; 0x3e
     786:	bf af       	std	Y+63, r27	; 0x3f
     788:	67 97       	sbiw	r28, 0x17	; 23
     78a:	2b 89       	ldd	r18, Y+19	; 0x13
     78c:	3c 89       	ldd	r19, Y+20	; 0x14
     78e:	a8 ec       	ldi	r26, 0xC8	; 200
     790:	bf ef       	ldi	r27, 0xFF	; 255
     792:	0e 94 ab 32 	call	0x6556	; 0x6556 <__mulhisi3>
     796:	dc 01       	movw	r26, r24
     798:	cb 01       	movw	r24, r22
     79a:	8c 0d       	add	r24, r12
     79c:	9d 1d       	adc	r25, r13
     79e:	ae 1d       	adc	r26, r14
     7a0:	bf 1d       	adc	r27, r15
    acc >>= FRAC_BITS;
     7a2:	76 e0       	ldi	r23, 0x06	; 6
     7a4:	b5 95       	asr	r27
     7a6:	a7 95       	ror	r26
     7a8:	97 95       	ror	r25
     7aa:	87 95       	ror	r24
     7ac:	7a 95       	dec	r23
     7ae:	d1 f7       	brne	.-12     	; 0x7a4 <__LOCK_REGION_LENGTH__+0x3a4>
static inline int16_t fp_mul(int16_t a, int16_t b) {
    return (int16_t)(((int32_t)a * (int32_t)b) >> FRAC_BITS);
}

static inline int16_t fp_sat32(int32_t v) {
    if (v > FP_MAX) return FP_MAX;
     7b0:	81 15       	cp	r24, r1
     7b2:	e0 e8       	ldi	r30, 0x80	; 128
     7b4:	9e 07       	cpc	r25, r30
     7b6:	a1 05       	cpc	r26, r1
     7b8:	b1 05       	cpc	r27, r1
     7ba:	14 f0       	brlt	.+4      	; 0x7c0 <__LOCK_REGION_LENGTH__+0x3c0>
     7bc:	0c 94 82 31 	jmp	0x6304	; 0x6304 <__stack+0x4105>
    if (v < FP_MIN) return FP_MIN;
     7c0:	81 15       	cp	r24, r1
     7c2:	f0 e8       	ldi	r31, 0x80	; 128
     7c4:	9f 07       	cpc	r25, r31
     7c6:	ff ef       	ldi	r31, 0xFF	; 255
     7c8:	af 07       	cpc	r26, r31
     7ca:	bf 07       	cpc	r27, r31
     7cc:	14 f4       	brge	.+4      	; 0x7d2 <__LOCK_REGION_LENGTH__+0x3d2>
     7ce:	0c 94 86 31 	jmp	0x630c	; 0x630c <__stack+0x410d>
    acc += (int32_t)W_hr[0][12] * (int32_t)h_state[12];
    acc += (int32_t)W_hr[0][13] * (int32_t)h_state[13];
    acc += (int32_t)W_hr[0][14] * (int32_t)h_state[14];
    acc += (int32_t)W_hr[0][15] * (int32_t)h_state[15];
    acc >>= FRAC_BITS;
    r[0] = fp_sigmoid(fp_sat32(acc));
     7d2:	0e 94 b5 00 	call	0x16a	; 0x16a <_ZL10fp_sigmoidi>
     7d6:	c9 58       	subi	r28, 0x89	; 137
     7d8:	de 4f       	sbci	r29, 0xFE	; 254
     7da:	99 83       	std	Y+1, r25	; 0x01
     7dc:	88 83       	st	Y, r24
     7de:	c7 57       	subi	r28, 0x77	; 119
     7e0:	d1 40       	sbci	r29, 0x01	; 1
    acc += (int32_t)W_ir[1][61] * (int32_t)x[61];
    acc += (int32_t)W_ir[1][62] * (int32_t)x[62];
    acc += (int32_t)W_ir[1][63] * (int32_t)x[63];
    acc >>= FRAC_BITS;
    acc += (int32_t)b_hr[1];
    acc += (int32_t)W_hr[1][0] * (int32_t)h_state[0];
     7e2:	2b 85       	ldd	r18, Y+11	; 0x0b
     7e4:	3c 85       	ldd	r19, Y+12	; 0x0c
     7e6:	ad ef       	ldi	r26, 0xFD	; 253
     7e8:	bf ef       	ldi	r27, 0xFF	; 255
     7ea:	0e 94 ab 32 	call	0x6556	; 0x6556 <__mulhisi3>
     7ee:	6b 01       	movw	r12, r22
     7f0:	7c 01       	movw	r14, r24
     7f2:	24 e0       	ldi	r18, 0x04	; 4
     7f4:	c2 0e       	add	r12, r18
     7f6:	d1 1c       	adc	r13, r1
     7f8:	e1 1c       	adc	r14, r1
     7fa:	f1 1c       	adc	r15, r1
    acc += (int32_t)W_hr[1][1] * (int32_t)h_state[1];
     7fc:	2f 81       	ldd	r18, Y+7	; 0x07
     7fe:	38 85       	ldd	r19, Y+8	; 0x08
     800:	a3 ef       	ldi	r26, 0xF3	; 243
     802:	bf ef       	ldi	r27, 0xFF	; 255
     804:	0e 94 ab 32 	call	0x6556	; 0x6556 <__mulhisi3>
     808:	c6 0e       	add	r12, r22
     80a:	d7 1e       	adc	r13, r23
     80c:	e8 1e       	adc	r14, r24
     80e:	f9 1e       	adc	r15, r25
    acc += (int32_t)W_hr[1][2] * (int32_t)h_state[2];
     810:	28 e1       	ldi	r18, 0x18	; 24
     812:	30 e0       	ldi	r19, 0x00	; 0
     814:	ad 89       	ldd	r26, Y+21	; 0x15
     816:	be 89       	ldd	r27, Y+22	; 0x16
     818:	0e 94 c2 32 	call	0x6584	; 0x6584 <__usmulhisi3>
     81c:	6b 96       	adiw	r28, 0x1b	; 27
     81e:	6c af       	std	Y+60, r22	; 0x3c
     820:	7d af       	std	Y+61, r23	; 0x3d
     822:	8e af       	std	Y+62, r24	; 0x3e
     824:	9f af       	std	Y+63, r25	; 0x3f
     826:	6b 97       	sbiw	r28, 0x1b	; 27
     828:	c6 0e       	add	r12, r22
     82a:	d7 1e       	adc	r13, r23
     82c:	e8 1e       	adc	r14, r24
     82e:	f9 1e       	adc	r15, r25
     830:	ab 96       	adiw	r28, 0x2b	; 43
     832:	8c ad       	ldd	r24, Y+60	; 0x3c
     834:	9d ad       	ldd	r25, Y+61	; 0x3d
     836:	ae ad       	ldd	r26, Y+62	; 0x3e
     838:	bf ad       	ldd	r27, Y+63	; 0x3f
     83a:	ab 97       	sbiw	r28, 0x2b	; 43
     83c:	c8 1a       	sub	r12, r24
     83e:	d9 0a       	sbc	r13, r25
     840:	ea 0a       	sbc	r14, r26
     842:	fb 0a       	sbc	r15, r27
    acc += (int32_t)W_hr[1][3] * (int32_t)h_state[3];
    acc += (int32_t)W_hr[1][4] * (int32_t)h_state[4];
     844:	24 e3       	ldi	r18, 0x34	; 52
     846:	30 e0       	ldi	r19, 0x00	; 0
     848:	ad 81       	ldd	r26, Y+5	; 0x05
     84a:	be 81       	ldd	r27, Y+6	; 0x06
     84c:	0e 94 c2 32 	call	0x6584	; 0x6584 <__usmulhisi3>
     850:	c1 52       	subi	r28, 0x21	; 33
     852:	df 4f       	sbci	r29, 0xFF	; 255
     854:	68 83       	st	Y, r22
     856:	79 83       	std	Y+1, r23	; 0x01
     858:	8a 83       	std	Y+2, r24	; 0x02
     85a:	9b 83       	std	Y+3, r25	; 0x03
     85c:	cf 5d       	subi	r28, 0xDF	; 223
     85e:	d0 40       	sbci	r29, 0x00	; 0
     860:	c6 0e       	add	r12, r22
     862:	d7 1e       	adc	r13, r23
     864:	e8 1e       	adc	r14, r24
     866:	f9 1e       	adc	r15, r25
    acc += (int32_t)W_hr[1][5] * (int32_t)h_state[5];
     868:	2d 85       	ldd	r18, Y+13	; 0x0d
     86a:	3e 85       	ldd	r19, Y+14	; 0x0e
     86c:	a9 ec       	ldi	r26, 0xC9	; 201
     86e:	bf ef       	ldi	r27, 0xFF	; 255
     870:	0e 94 ab 32 	call	0x6556	; 0x6556 <__mulhisi3>
     874:	c6 0e       	add	r12, r22
     876:	d7 1e       	adc	r13, r23
     878:	e8 1e       	adc	r14, r24
     87a:	f9 1e       	adc	r15, r25
    acc += (int32_t)W_hr[1][6] * (int32_t)h_state[6];
     87c:	c9 56       	subi	r28, 0x69	; 105
     87e:	de 4f       	sbci	r29, 0xFE	; 254
     880:	28 81       	ld	r18, Y
     882:	39 81       	ldd	r19, Y+1	; 0x01
     884:	c7 59       	subi	r28, 0x97	; 151
     886:	d1 40       	sbci	r29, 0x01	; 1
     888:	aa ec       	ldi	r26, 0xCA	; 202
     88a:	bf ef       	ldi	r27, 0xFF	; 255
     88c:	0e 94 ab 32 	call	0x6556	; 0x6556 <__mulhisi3>
     890:	c6 0e       	add	r12, r22
     892:	d7 1e       	adc	r13, r23
     894:	e8 1e       	adc	r14, r24
     896:	f9 1e       	adc	r15, r25
    acc += (int32_t)W_hr[1][7] * (int32_t)h_state[7];
     898:	2e e0       	ldi	r18, 0x0E	; 14
     89a:	30 e0       	ldi	r19, 0x00	; 0
     89c:	a9 89       	ldd	r26, Y+17	; 0x11
     89e:	ba 89       	ldd	r27, Y+18	; 0x12
     8a0:	0e 94 c2 32 	call	0x6584	; 0x6584 <__usmulhisi3>
     8a4:	c6 0e       	add	r12, r22
     8a6:	d7 1e       	adc	r13, r23
     8a8:	e8 1e       	adc	r14, r24
     8aa:	f9 1e       	adc	r15, r25
    acc += (int32_t)W_hr[1][8] * (int32_t)h_state[8];
     8ac:	2f 89       	ldd	r18, Y+23	; 0x17
     8ae:	38 8d       	ldd	r19, Y+24	; 0x18
     8b0:	a8 ec       	ldi	r26, 0xC8	; 200
     8b2:	bf ef       	ldi	r27, 0xFF	; 255
     8b4:	0e 94 ab 32 	call	0x6556	; 0x6556 <__mulhisi3>
     8b8:	c6 0e       	add	r12, r22
     8ba:	d7 1e       	adc	r13, r23
     8bc:	e8 1e       	adc	r14, r24
     8be:	f9 1e       	adc	r15, r25
    acc += (int32_t)W_hr[1][9] * (int32_t)h_state[9];
     8c0:	29 85       	ldd	r18, Y+9	; 0x09
     8c2:	3a 85       	ldd	r19, Y+10	; 0x0a
     8c4:	a3 ee       	ldi	r26, 0xE3	; 227
     8c6:	bf ef       	ldi	r27, 0xFF	; 255
     8c8:	0e 94 ab 32 	call	0x6556	; 0x6556 <__mulhisi3>
     8cc:	c6 0e       	add	r12, r22
     8ce:	d7 1e       	adc	r13, r23
     8d0:	e8 1e       	adc	r14, r24
     8d2:	f9 1e       	adc	r15, r25
    acc += (int32_t)W_hr[1][10] * (int32_t)h_state[10];
     8d4:	21 e1       	ldi	r18, 0x11	; 17
     8d6:	30 e0       	ldi	r19, 0x00	; 0
     8d8:	af 85       	ldd	r26, Y+15	; 0x0f
     8da:	b8 89       	ldd	r27, Y+16	; 0x10
     8dc:	0e 94 c2 32 	call	0x6584	; 0x6584 <__usmulhisi3>
     8e0:	c6 0e       	add	r12, r22
     8e2:	d7 1e       	adc	r13, r23
     8e4:	e8 1e       	adc	r14, r24
     8e6:	f9 1e       	adc	r15, r25
    acc += (int32_t)W_hr[1][11] * (int32_t)h_state[11];
     8e8:	26 e0       	ldi	r18, 0x06	; 6
     8ea:	30 e0       	ldi	r19, 0x00	; 0
     8ec:	a9 8d       	ldd	r26, Y+25	; 0x19
     8ee:	ba 8d       	ldd	r27, Y+26	; 0x1a
     8f0:	0e 94 c2 32 	call	0x6584	; 0x6584 <__usmulhisi3>
     8f4:	c6 0e       	add	r12, r22
     8f6:	d7 1e       	adc	r13, r23
     8f8:	e8 1e       	adc	r14, r24
     8fa:	f9 1e       	adc	r15, r25
    acc += (int32_t)W_hr[1][12] * (int32_t)h_state[12];
     8fc:	98 01       	movw	r18, r16
     8fe:	aa ee       	ldi	r26, 0xEA	; 234
     900:	bf ef       	ldi	r27, 0xFF	; 255
     902:	0e 94 ab 32 	call	0x6556	; 0x6556 <__mulhisi3>
     906:	2b 01       	movw	r4, r22
     908:	3c 01       	movw	r6, r24
     90a:	c4 0c       	add	r12, r4
     90c:	d5 1c       	adc	r13, r5
     90e:	e6 1c       	adc	r14, r6
     910:	f7 1c       	adc	r15, r7
    acc += (int32_t)W_hr[1][13] * (int32_t)h_state[13];
     912:	2f e3       	ldi	r18, 0x3F	; 63
     914:	30 e0       	ldi	r19, 0x00	; 0
     916:	ab 8d       	ldd	r26, Y+27	; 0x1b
     918:	bc 8d       	ldd	r27, Y+28	; 0x1c
     91a:	0e 94 c2 32 	call	0x6584	; 0x6584 <__usmulhisi3>
     91e:	6f a7       	std	Y+47, r22	; 0x2f
     920:	78 ab       	std	Y+48, r23	; 0x30
     922:	89 ab       	std	Y+49, r24	; 0x31
     924:	9a ab       	std	Y+50, r25	; 0x32
     926:	c6 0e       	add	r12, r22
     928:	d7 1e       	adc	r13, r23
     92a:	e8 1e       	adc	r14, r24
     92c:	f9 1e       	adc	r15, r25
    acc += (int32_t)W_hr[1][14] * (int32_t)h_state[14];
     92e:	8b a1       	ldd	r24, Y+35	; 0x23
     930:	9c a1       	ldd	r25, Y+36	; 0x24
     932:	ad a1       	ldd	r26, Y+37	; 0x25
     934:	be a1       	ldd	r27, Y+38	; 0x26
     936:	42 e0       	ldi	r20, 0x02	; 2
     938:	88 0f       	add	r24, r24
     93a:	99 1f       	adc	r25, r25
     93c:	aa 1f       	adc	r26, r26
     93e:	bb 1f       	adc	r27, r27
     940:	4a 95       	dec	r20
     942:	d1 f7       	brne	.-12     	; 0x938 <__LOCK_REGION_LENGTH__+0x538>
     944:	c8 0e       	add	r12, r24
     946:	d9 1e       	adc	r13, r25
     948:	ea 1e       	adc	r14, r26
     94a:	fb 1e       	adc	r15, r27
    acc += (int32_t)W_hr[1][15] * (int32_t)h_state[15];
     94c:	2b 89       	ldd	r18, Y+19	; 0x13
     94e:	3c 89       	ldd	r19, Y+20	; 0x14
     950:	aa ef       	ldi	r26, 0xFA	; 250
     952:	bf ef       	ldi	r27, 0xFF	; 255
     954:	0e 94 ab 32 	call	0x6556	; 0x6556 <__mulhisi3>
     958:	dc 01       	movw	r26, r24
     95a:	cb 01       	movw	r24, r22
     95c:	8c 0d       	add	r24, r12
     95e:	9d 1d       	adc	r25, r13
     960:	ae 1d       	adc	r26, r14
     962:	bf 1d       	adc	r27, r15
    acc >>= FRAC_BITS;
     964:	56 e0       	ldi	r21, 0x06	; 6
     966:	b5 95       	asr	r27
     968:	a7 95       	ror	r26
     96a:	97 95       	ror	r25
     96c:	87 95       	ror	r24
     96e:	5a 95       	dec	r21
     970:	d1 f7       	brne	.-12     	; 0x966 <__LOCK_REGION_LENGTH__+0x566>
static inline int16_t fp_mul(int16_t a, int16_t b) {
    return (int16_t)(((int32_t)a * (int32_t)b) >> FRAC_BITS);
}

static inline int16_t fp_sat32(int32_t v) {
    if (v > FP_MAX) return FP_MAX;
     972:	81 15       	cp	r24, r1
     974:	e0 e8       	ldi	r30, 0x80	; 128
     976:	9e 07       	cpc	r25, r30
     978:	a1 05       	cpc	r26, r1
     97a:	b1 05       	cpc	r27, r1
     97c:	14 f0       	brlt	.+4      	; 0x982 <__LOCK_REGION_LENGTH__+0x582>
     97e:	0c 94 8a 31 	jmp	0x6314	; 0x6314 <__stack+0x4115>
    if (v < FP_MIN) return FP_MIN;
     982:	81 15       	cp	r24, r1
     984:	f0 e8       	ldi	r31, 0x80	; 128
     986:	9f 07       	cpc	r25, r31
     988:	ff ef       	ldi	r31, 0xFF	; 255
     98a:	af 07       	cpc	r26, r31
     98c:	bf 07       	cpc	r27, r31
     98e:	14 f4       	brge	.+4      	; 0x994 <__LOCK_REGION_LENGTH__+0x594>
     990:	0c 94 8e 31 	jmp	0x631c	; 0x631c <__stack+0x411d>
    acc += (int32_t)W_hr[1][12] * (int32_t)h_state[12];
    acc += (int32_t)W_hr[1][13] * (int32_t)h_state[13];
    acc += (int32_t)W_hr[1][14] * (int32_t)h_state[14];
    acc += (int32_t)W_hr[1][15] * (int32_t)h_state[15];
    acc >>= FRAC_BITS;
    r[1] = fp_sigmoid(fp_sat32(acc));
     994:	0e 94 b5 00 	call	0x16a	; 0x16a <_ZL10fp_sigmoidi>
     998:	c7 58       	subi	r28, 0x87	; 135
     99a:	de 4f       	sbci	r29, 0xFE	; 254
     99c:	99 83       	std	Y+1, r25	; 0x01
     99e:	88 83       	st	Y, r24
     9a0:	c9 57       	subi	r28, 0x79	; 121
     9a2:	d1 40       	sbci	r29, 0x01	; 1
    acc += (int32_t)W_ir[2][61] * (int32_t)x[61];
    acc += (int32_t)W_ir[2][62] * (int32_t)x[62];
    acc += (int32_t)W_ir[2][63] * (int32_t)x[63];
    acc >>= FRAC_BITS;
    acc += (int32_t)b_hr[2];
    acc += (int32_t)W_hr[2][0] * (int32_t)h_state[0];
     9a4:	2d e0       	ldi	r18, 0x0D	; 13
     9a6:	30 e0       	ldi	r19, 0x00	; 0
     9a8:	ab 85       	ldd	r26, Y+11	; 0x0b
     9aa:	bc 85       	ldd	r27, Y+12	; 0x0c
     9ac:	0e 94 c2 32 	call	0x6584	; 0x6584 <__usmulhisi3>
     9b0:	4b 01       	movw	r8, r22
     9b2:	5c 01       	movw	r10, r24
     9b4:	2d e9       	ldi	r18, 0x9D	; 157
     9b6:	82 1a       	sub	r8, r18
     9b8:	91 08       	sbc	r9, r1
     9ba:	a1 08       	sbc	r10, r1
     9bc:	b1 08       	sbc	r11, r1
    acc += (int32_t)W_hr[2][1] * (int32_t)h_state[1];
     9be:	2f 81       	ldd	r18, Y+7	; 0x07
     9c0:	38 85       	ldd	r19, Y+8	; 0x08
     9c2:	ad ec       	ldi	r26, 0xCD	; 205
     9c4:	bf ef       	ldi	r27, 0xFF	; 255
     9c6:	0e 94 ab 32 	call	0x6556	; 0x6556 <__mulhisi3>
     9ca:	2f 96       	adiw	r28, 0x0f	; 15
     9cc:	6c af       	std	Y+60, r22	; 0x3c
     9ce:	7d af       	std	Y+61, r23	; 0x3d
     9d0:	8e af       	std	Y+62, r24	; 0x3e
     9d2:	9f af       	std	Y+63, r25	; 0x3f
     9d4:	2f 97       	sbiw	r28, 0x0f	; 15
     9d6:	86 0e       	add	r8, r22
     9d8:	97 1e       	adc	r9, r23
     9da:	a8 1e       	adc	r10, r24
     9dc:	b9 1e       	adc	r11, r25
    acc += (int32_t)W_hr[2][2] * (int32_t)h_state[2];
     9de:	2a e1       	ldi	r18, 0x1A	; 26
     9e0:	30 e0       	ldi	r19, 0x00	; 0
     9e2:	ad 89       	ldd	r26, Y+21	; 0x15
     9e4:	be 89       	ldd	r27, Y+22	; 0x16
     9e6:	0e 94 c2 32 	call	0x6584	; 0x6584 <__usmulhisi3>
     9ea:	eb 96       	adiw	r28, 0x3b	; 59
     9ec:	6c af       	std	Y+60, r22	; 0x3c
     9ee:	7d af       	std	Y+61, r23	; 0x3d
     9f0:	8e af       	std	Y+62, r24	; 0x3e
     9f2:	9f af       	std	Y+63, r25	; 0x3f
     9f4:	eb 97       	sbiw	r28, 0x3b	; 59
     9f6:	86 0e       	add	r8, r22
     9f8:	97 1e       	adc	r9, r23
     9fa:	a8 1e       	adc	r10, r24
     9fc:	b9 1e       	adc	r11, r25
    acc += (int32_t)W_hr[2][3] * (int32_t)h_state[3];
     9fe:	2d e2       	ldi	r18, 0x2D	; 45
     a00:	30 e0       	ldi	r19, 0x00	; 0
     a02:	d1 01       	movw	r26, r2
     a04:	0e 94 c2 32 	call	0x6584	; 0x6584 <__usmulhisi3>
     a08:	86 0e       	add	r8, r22
     a0a:	97 1e       	adc	r9, r23
     a0c:	a8 1e       	adc	r10, r24
     a0e:	b9 1e       	adc	r11, r25
    acc += (int32_t)W_hr[2][4] * (int32_t)h_state[4];
     a10:	23 e1       	ldi	r18, 0x13	; 19
     a12:	30 e0       	ldi	r19, 0x00	; 0
     a14:	ad 81       	ldd	r26, Y+5	; 0x05
     a16:	be 81       	ldd	r27, Y+6	; 0x06
     a18:	0e 94 c2 32 	call	0x6584	; 0x6584 <__usmulhisi3>
     a1c:	ef 96       	adiw	r28, 0x3f	; 63
     a1e:	6c af       	std	Y+60, r22	; 0x3c
     a20:	7d af       	std	Y+61, r23	; 0x3d
     a22:	8e af       	std	Y+62, r24	; 0x3e
     a24:	9f af       	std	Y+63, r25	; 0x3f
     a26:	ef 97       	sbiw	r28, 0x3f	; 63
     a28:	86 0e       	add	r8, r22
     a2a:	97 1e       	adc	r9, r23
     a2c:	a8 1e       	adc	r10, r24
     a2e:	b9 1e       	adc	r11, r25
    acc += (int32_t)W_hr[2][5] * (int32_t)h_state[5];
     a30:	22 e2       	ldi	r18, 0x22	; 34
     a32:	30 e0       	ldi	r19, 0x00	; 0
     a34:	ad 85       	ldd	r26, Y+13	; 0x0d
     a36:	be 85       	ldd	r27, Y+14	; 0x0e
     a38:	0e 94 c2 32 	call	0x6584	; 0x6584 <__usmulhisi3>
     a3c:	86 0e       	add	r8, r22
     a3e:	97 1e       	adc	r9, r23
     a40:	a8 1e       	adc	r10, r24
     a42:	b9 1e       	adc	r11, r25
    acc += (int32_t)W_hr[2][6] * (int32_t)h_state[6];
     a44:	2c e1       	ldi	r18, 0x1C	; 28
     a46:	30 e0       	ldi	r19, 0x00	; 0
     a48:	c9 56       	subi	r28, 0x69	; 105
     a4a:	de 4f       	sbci	r29, 0xFE	; 254
     a4c:	a8 81       	ld	r26, Y
     a4e:	b9 81       	ldd	r27, Y+1	; 0x01
     a50:	c7 59       	subi	r28, 0x97	; 151
     a52:	d1 40       	sbci	r29, 0x01	; 1
     a54:	0e 94 c2 32 	call	0x6584	; 0x6584 <__usmulhisi3>
     a58:	2b 96       	adiw	r28, 0x0b	; 11
     a5a:	6c af       	std	Y+60, r22	; 0x3c
     a5c:	7d af       	std	Y+61, r23	; 0x3d
     a5e:	8e af       	std	Y+62, r24	; 0x3e
     a60:	9f af       	std	Y+63, r25	; 0x3f
     a62:	2b 97       	sbiw	r28, 0x0b	; 11
     a64:	86 0e       	add	r8, r22
     a66:	97 1e       	adc	r9, r23
     a68:	a8 1e       	adc	r10, r24
     a6a:	b9 1e       	adc	r11, r25
    acc += (int32_t)W_hr[2][7] * (int32_t)h_state[7];
     a6c:	29 89       	ldd	r18, Y+17	; 0x11
     a6e:	3a 89       	ldd	r19, Y+18	; 0x12
     a70:	ac ed       	ldi	r26, 0xDC	; 220
     a72:	bf ef       	ldi	r27, 0xFF	; 255
     a74:	0e 94 ab 32 	call	0x6556	; 0x6556 <__mulhisi3>
     a78:	86 0e       	add	r8, r22
     a7a:	97 1e       	adc	r9, r23
     a7c:	a8 1e       	adc	r10, r24
     a7e:	b9 1e       	adc	r11, r25
    acc += (int32_t)W_hr[2][8] * (int32_t)h_state[8];
     a80:	2f 89       	ldd	r18, Y+23	; 0x17
     a82:	38 8d       	ldd	r19, Y+24	; 0x18
     a84:	aa ef       	ldi	r26, 0xFA	; 250
     a86:	bf ef       	ldi	r27, 0xFF	; 255
     a88:	0e 94 ab 32 	call	0x6556	; 0x6556 <__mulhisi3>
     a8c:	86 0e       	add	r8, r22
     a8e:	97 1e       	adc	r9, r23
     a90:	a8 1e       	adc	r10, r24
     a92:	b9 1e       	adc	r11, r25
    acc += (int32_t)W_hr[2][9] * (int32_t)h_state[9];
     a94:	29 85       	ldd	r18, Y+9	; 0x09
     a96:	3a 85       	ldd	r19, Y+10	; 0x0a
     a98:	ad ed       	ldi	r26, 0xDD	; 221
     a9a:	bf ef       	ldi	r27, 0xFF	; 255
     a9c:	0e 94 ab 32 	call	0x6556	; 0x6556 <__mulhisi3>
     aa0:	6b 01       	movw	r12, r22
     aa2:	7c 01       	movw	r14, r24
     aa4:	8c 0c       	add	r8, r12
     aa6:	9d 1c       	adc	r9, r13
     aa8:	ae 1c       	adc	r10, r14
     aaa:	bf 1c       	adc	r11, r15
    acc += (int32_t)W_hr[2][10] * (int32_t)h_state[10];
     aac:	2f 85       	ldd	r18, Y+15	; 0x0f
     aae:	38 89       	ldd	r19, Y+16	; 0x10
     ab0:	ab ee       	ldi	r26, 0xEB	; 235
     ab2:	bf ef       	ldi	r27, 0xFF	; 255
     ab4:	0e 94 ab 32 	call	0x6556	; 0x6556 <__mulhisi3>
     ab8:	86 0e       	add	r8, r22
     aba:	97 1e       	adc	r9, r23
     abc:	a8 1e       	adc	r10, r24
     abe:	b9 1e       	adc	r11, r25
    acc += (int32_t)W_hr[2][11] * (int32_t)h_state[11];
     ac0:	29 8d       	ldd	r18, Y+25	; 0x19
     ac2:	3a 8d       	ldd	r19, Y+26	; 0x1a
     ac4:	aa ef       	ldi	r26, 0xFA	; 250
     ac6:	bf ef       	ldi	r27, 0xFF	; 255
     ac8:	0e 94 ab 32 	call	0x6556	; 0x6556 <__mulhisi3>
     acc:	6f a3       	std	Y+39, r22	; 0x27
     ace:	78 a7       	std	Y+40, r23	; 0x28
     ad0:	89 a7       	std	Y+41, r24	; 0x29
     ad2:	9a a7       	std	Y+42, r25	; 0x2a
     ad4:	86 0e       	add	r8, r22
     ad6:	97 1e       	adc	r9, r23
     ad8:	a8 1e       	adc	r10, r24
     ada:	b9 1e       	adc	r11, r25
    acc += (int32_t)W_hr[2][12] * (int32_t)h_state[12];
     adc:	98 01       	movw	r18, r16
     ade:	a5 ef       	ldi	r26, 0xF5	; 245
     ae0:	bf ef       	ldi	r27, 0xFF	; 255
     ae2:	0e 94 ab 32 	call	0x6556	; 0x6556 <__mulhisi3>
     ae6:	86 0e       	add	r8, r22
     ae8:	97 1e       	adc	r9, r23
     aea:	a8 1e       	adc	r10, r24
     aec:	b9 1e       	adc	r11, r25
    acc += (int32_t)W_hr[2][13] * (int32_t)h_state[13];
     aee:	2b 8d       	ldd	r18, Y+27	; 0x1b
     af0:	3c 8d       	ldd	r19, Y+28	; 0x1c
     af2:	ac ec       	ldi	r26, 0xCC	; 204
     af4:	bf ef       	ldi	r27, 0xFF	; 255
     af6:	0e 94 ab 32 	call	0x6556	; 0x6556 <__mulhisi3>
     afa:	c1 58       	subi	r28, 0x81	; 129
     afc:	df 4f       	sbci	r29, 0xFF	; 255
     afe:	68 83       	st	Y, r22
     b00:	79 83       	std	Y+1, r23	; 0x01
     b02:	8a 83       	std	Y+2, r24	; 0x02
     b04:	9b 83       	std	Y+3, r25	; 0x03
     b06:	cf 57       	subi	r28, 0x7F	; 127
     b08:	d0 40       	sbci	r29, 0x00	; 0
     b0a:	86 0e       	add	r8, r22
     b0c:	97 1e       	adc	r9, r23
     b0e:	a8 1e       	adc	r10, r24
     b10:	b9 1e       	adc	r11, r25
    acc += (int32_t)W_hr[2][14] * (int32_t)h_state[14];
     b12:	2d 8d       	ldd	r18, Y+29	; 0x1d
     b14:	3e 8d       	ldd	r19, Y+30	; 0x1e
     b16:	a7 ef       	ldi	r26, 0xF7	; 247
     b18:	bf ef       	ldi	r27, 0xFF	; 255
     b1a:	0e 94 ab 32 	call	0x6556	; 0x6556 <__mulhisi3>
     b1e:	cd 57       	subi	r28, 0x7D	; 125
     b20:	df 4f       	sbci	r29, 0xFF	; 255
     b22:	68 83       	st	Y, r22
     b24:	79 83       	std	Y+1, r23	; 0x01
     b26:	8a 83       	std	Y+2, r24	; 0x02
     b28:	9b 83       	std	Y+3, r25	; 0x03
     b2a:	c3 58       	subi	r28, 0x83	; 131
     b2c:	d0 40       	sbci	r29, 0x00	; 0
     b2e:	dc 01       	movw	r26, r24
     b30:	cb 01       	movw	r24, r22
     b32:	88 0d       	add	r24, r8
     b34:	99 1d       	adc	r25, r9
     b36:	aa 1d       	adc	r26, r10
     b38:	bb 1d       	adc	r27, r11
     b3a:	89 83       	std	Y+1, r24	; 0x01
     b3c:	9a 83       	std	Y+2, r25	; 0x02
     b3e:	ab 83       	std	Y+3, r26	; 0x03
     b40:	bc 83       	std	Y+4, r27	; 0x04
    acc += (int32_t)W_hr[2][15] * (int32_t)h_state[15];
     b42:	25 e1       	ldi	r18, 0x15	; 21
     b44:	30 e0       	ldi	r19, 0x00	; 0
     b46:	ab 89       	ldd	r26, Y+19	; 0x13
     b48:	bc 89       	ldd	r27, Y+20	; 0x14
     b4a:	0e 94 c2 32 	call	0x6584	; 0x6584 <__usmulhisi3>
     b4e:	4b 01       	movw	r8, r22
     b50:	5c 01       	movw	r10, r24
     b52:	89 81       	ldd	r24, Y+1	; 0x01
     b54:	9a 81       	ldd	r25, Y+2	; 0x02
     b56:	ab 81       	ldd	r26, Y+3	; 0x03
     b58:	bc 81       	ldd	r27, Y+4	; 0x04
     b5a:	88 0d       	add	r24, r8
     b5c:	99 1d       	adc	r25, r9
     b5e:	aa 1d       	adc	r26, r10
     b60:	bb 1d       	adc	r27, r11
    acc >>= FRAC_BITS;
     b62:	36 e0       	ldi	r19, 0x06	; 6
     b64:	b5 95       	asr	r27
     b66:	a7 95       	ror	r26
     b68:	97 95       	ror	r25
     b6a:	87 95       	ror	r24
     b6c:	3a 95       	dec	r19
     b6e:	d1 f7       	brne	.-12     	; 0xb64 <__LOCK_REGION_LENGTH__+0x764>
static inline int16_t fp_mul(int16_t a, int16_t b) {
    return (int16_t)(((int32_t)a * (int32_t)b) >> FRAC_BITS);
}

static inline int16_t fp_sat32(int32_t v) {
    if (v > FP_MAX) return FP_MAX;
     b70:	81 15       	cp	r24, r1
     b72:	e0 e8       	ldi	r30, 0x80	; 128
     b74:	9e 07       	cpc	r25, r30
     b76:	a1 05       	cpc	r26, r1
     b78:	b1 05       	cpc	r27, r1
     b7a:	14 f0       	brlt	.+4      	; 0xb80 <__LOCK_REGION_LENGTH__+0x780>
     b7c:	0c 94 92 31 	jmp	0x6324	; 0x6324 <__stack+0x4125>
    if (v < FP_MIN) return FP_MIN;
     b80:	81 15       	cp	r24, r1
     b82:	f0 e8       	ldi	r31, 0x80	; 128
     b84:	9f 07       	cpc	r25, r31
     b86:	ff ef       	ldi	r31, 0xFF	; 255
     b88:	af 07       	cpc	r26, r31
     b8a:	bf 07       	cpc	r27, r31
     b8c:	14 f4       	brge	.+4      	; 0xb92 <__LOCK_REGION_LENGTH__+0x792>
     b8e:	0c 94 96 31 	jmp	0x632c	; 0x632c <__stack+0x412d>
    acc += (int32_t)W_hr[2][12] * (int32_t)h_state[12];
    acc += (int32_t)W_hr[2][13] * (int32_t)h_state[13];
    acc += (int32_t)W_hr[2][14] * (int32_t)h_state[14];
    acc += (int32_t)W_hr[2][15] * (int32_t)h_state[15];
    acc >>= FRAC_BITS;
    r[2] = fp_sigmoid(fp_sat32(acc));
     b92:	0e 94 b5 00 	call	0x16a	; 0x16a <_ZL10fp_sigmoidi>
     b96:	c5 58       	subi	r28, 0x85	; 133
     b98:	de 4f       	sbci	r29, 0xFE	; 254
     b9a:	99 83       	std	Y+1, r25	; 0x01
     b9c:	88 83       	st	Y, r24
     b9e:	cb 57       	subi	r28, 0x7B	; 123
     ba0:	d1 40       	sbci	r29, 0x01	; 1
    acc += (int32_t)W_ir[3][61] * (int32_t)x[61];
    acc += (int32_t)W_ir[3][62] * (int32_t)x[62];
    acc += (int32_t)W_ir[3][63] * (int32_t)x[63];
    acc >>= FRAC_BITS;
    acc += (int32_t)b_hr[3];
    acc += (int32_t)W_hr[3][0] * (int32_t)h_state[0];
     ba2:	2b 85       	ldd	r18, Y+11	; 0x0b
     ba4:	3c 85       	ldd	r19, Y+12	; 0x0c
     ba6:	a0 ef       	ldi	r26, 0xF0	; 240
     ba8:	bf ef       	ldi	r27, 0xFF	; 255
     baa:	0e 94 ab 32 	call	0x6556	; 0x6556 <__mulhisi3>
     bae:	c5 54       	subi	r28, 0x45	; 69
     bb0:	df 4f       	sbci	r29, 0xFF	; 255
     bb2:	68 83       	st	Y, r22
     bb4:	79 83       	std	Y+1, r23	; 0x01
     bb6:	8a 83       	std	Y+2, r24	; 0x02
     bb8:	9b 83       	std	Y+3, r25	; 0x03
     bba:	cb 5b       	subi	r28, 0xBB	; 187
     bbc:	d0 40       	sbci	r29, 0x00	; 0
     bbe:	9b 01       	movw	r18, r22
     bc0:	ac 01       	movw	r20, r24
     bc2:	23 52       	subi	r18, 0x23	; 35
     bc4:	3f 4f       	sbci	r19, 0xFF	; 255
     bc6:	4f 4f       	sbci	r20, 0xFF	; 255
     bc8:	5f 4f       	sbci	r21, 0xFF	; 255
     bca:	29 83       	std	Y+1, r18	; 0x01
     bcc:	3a 83       	std	Y+2, r19	; 0x02
     bce:	4b 83       	std	Y+3, r20	; 0x03
     bd0:	5c 83       	std	Y+4, r21	; 0x04
    acc += (int32_t)W_hr[3][1] * (int32_t)h_state[1];
     bd2:	2f 81       	ldd	r18, Y+7	; 0x07
     bd4:	38 85       	ldd	r19, Y+8	; 0x08
     bd6:	a4 ed       	ldi	r26, 0xD4	; 212
     bd8:	bf ef       	ldi	r27, 0xFF	; 255
     bda:	0e 94 ab 32 	call	0x6556	; 0x6556 <__mulhisi3>
     bde:	29 81       	ldd	r18, Y+1	; 0x01
     be0:	3a 81       	ldd	r19, Y+2	; 0x02
     be2:	4b 81       	ldd	r20, Y+3	; 0x03
     be4:	5c 81       	ldd	r21, Y+4	; 0x04
     be6:	26 0f       	add	r18, r22
     be8:	37 1f       	adc	r19, r23
     bea:	48 1f       	adc	r20, r24
     bec:	59 1f       	adc	r21, r25
     bee:	29 83       	std	Y+1, r18	; 0x01
     bf0:	3a 83       	std	Y+2, r19	; 0x02
     bf2:	4b 83       	std	Y+3, r20	; 0x03
     bf4:	5c 83       	std	Y+4, r21	; 0x04
    acc += (int32_t)W_hr[3][2] * (int32_t)h_state[2];
     bf6:	26 e3       	ldi	r18, 0x36	; 54
     bf8:	30 e0       	ldi	r19, 0x00	; 0
     bfa:	ad 89       	ldd	r26, Y+21	; 0x15
     bfc:	be 89       	ldd	r27, Y+22	; 0x16
     bfe:	0e 94 c2 32 	call	0x6584	; 0x6584 <__usmulhisi3>
     c02:	6f 96       	adiw	r28, 0x1f	; 31
     c04:	6c af       	std	Y+60, r22	; 0x3c
     c06:	7d af       	std	Y+61, r23	; 0x3d
     c08:	8e af       	std	Y+62, r24	; 0x3e
     c0a:	9f af       	std	Y+63, r25	; 0x3f
     c0c:	6f 97       	sbiw	r28, 0x1f	; 31
     c0e:	29 81       	ldd	r18, Y+1	; 0x01
     c10:	3a 81       	ldd	r19, Y+2	; 0x02
     c12:	4b 81       	ldd	r20, Y+3	; 0x03
     c14:	5c 81       	ldd	r21, Y+4	; 0x04
     c16:	26 0f       	add	r18, r22
     c18:	37 1f       	adc	r19, r23
     c1a:	48 1f       	adc	r20, r24
     c1c:	59 1f       	adc	r21, r25
     c1e:	29 83       	std	Y+1, r18	; 0x01
     c20:	3a 83       	std	Y+2, r19	; 0x02
     c22:	4b 83       	std	Y+3, r20	; 0x03
     c24:	5c 83       	std	Y+4, r21	; 0x04
    acc += (int32_t)W_hr[3][3] * (int32_t)h_state[3];
     c26:	91 01       	movw	r18, r2
     c28:	a9 ec       	ldi	r26, 0xC9	; 201
     c2a:	bf ef       	ldi	r27, 0xFF	; 255
     c2c:	0e 94 ab 32 	call	0x6556	; 0x6556 <__mulhisi3>
     c30:	29 81       	ldd	r18, Y+1	; 0x01
     c32:	3a 81       	ldd	r19, Y+2	; 0x02
     c34:	4b 81       	ldd	r20, Y+3	; 0x03
     c36:	5c 81       	ldd	r21, Y+4	; 0x04
     c38:	26 0f       	add	r18, r22
     c3a:	37 1f       	adc	r19, r23
     c3c:	48 1f       	adc	r20, r24
     c3e:	59 1f       	adc	r21, r25
     c40:	29 83       	std	Y+1, r18	; 0x01
     c42:	3a 83       	std	Y+2, r19	; 0x02
     c44:	4b 83       	std	Y+3, r20	; 0x03
     c46:	5c 83       	std	Y+4, r21	; 0x04
    acc += (int32_t)W_hr[3][4] * (int32_t)h_state[4];
     c48:	2a e2       	ldi	r18, 0x2A	; 42
     c4a:	30 e0       	ldi	r19, 0x00	; 0
     c4c:	ad 81       	ldd	r26, Y+5	; 0x05
     c4e:	be 81       	ldd	r27, Y+6	; 0x06
     c50:	0e 94 c2 32 	call	0x6584	; 0x6584 <__usmulhisi3>
     c54:	29 81       	ldd	r18, Y+1	; 0x01
     c56:	3a 81       	ldd	r19, Y+2	; 0x02
     c58:	4b 81       	ldd	r20, Y+3	; 0x03
     c5a:	5c 81       	ldd	r21, Y+4	; 0x04
     c5c:	26 0f       	add	r18, r22
     c5e:	37 1f       	adc	r19, r23
     c60:	48 1f       	adc	r20, r24
     c62:	59 1f       	adc	r21, r25
     c64:	29 83       	std	Y+1, r18	; 0x01
     c66:	3a 83       	std	Y+2, r19	; 0x02
     c68:	4b 83       	std	Y+3, r20	; 0x03
     c6a:	5c 83       	std	Y+4, r21	; 0x04
    acc += (int32_t)W_hr[3][5] * (int32_t)h_state[5];
     c6c:	2d 85       	ldd	r18, Y+13	; 0x0d
     c6e:	3e 85       	ldd	r19, Y+14	; 0x0e
     c70:	ac ec       	ldi	r26, 0xCC	; 204
     c72:	bf ef       	ldi	r27, 0xFF	; 255
     c74:	0e 94 ab 32 	call	0x6556	; 0x6556 <__mulhisi3>
     c78:	cd 51       	subi	r28, 0x1D	; 29
     c7a:	df 4f       	sbci	r29, 0xFF	; 255
     c7c:	68 83       	st	Y, r22
     c7e:	79 83       	std	Y+1, r23	; 0x01
     c80:	8a 83       	std	Y+2, r24	; 0x02
     c82:	9b 83       	std	Y+3, r25	; 0x03
     c84:	c3 5e       	subi	r28, 0xE3	; 227
     c86:	d0 40       	sbci	r29, 0x00	; 0
     c88:	29 81       	ldd	r18, Y+1	; 0x01
     c8a:	3a 81       	ldd	r19, Y+2	; 0x02
     c8c:	4b 81       	ldd	r20, Y+3	; 0x03
     c8e:	5c 81       	ldd	r21, Y+4	; 0x04
     c90:	26 0f       	add	r18, r22
     c92:	37 1f       	adc	r19, r23
     c94:	48 1f       	adc	r20, r24
     c96:	59 1f       	adc	r21, r25
     c98:	29 83       	std	Y+1, r18	; 0x01
     c9a:	3a 83       	std	Y+2, r19	; 0x02
     c9c:	4b 83       	std	Y+3, r20	; 0x03
     c9e:	5c 83       	std	Y+4, r21	; 0x04
    acc += (int32_t)W_hr[3][6] * (int32_t)h_state[6];
     ca0:	c9 56       	subi	r28, 0x69	; 105
     ca2:	de 4f       	sbci	r29, 0xFE	; 254
     ca4:	28 81       	ld	r18, Y
     ca6:	39 81       	ldd	r19, Y+1	; 0x01
     ca8:	c7 59       	subi	r28, 0x97	; 151
     caa:	d1 40       	sbci	r29, 0x01	; 1
     cac:	0e 94 ab 32 	call	0x6556	; 0x6556 <__mulhisi3>
     cb0:	29 81       	ldd	r18, Y+1	; 0x01
     cb2:	3a 81       	ldd	r19, Y+2	; 0x02
     cb4:	4b 81       	ldd	r20, Y+3	; 0x03
     cb6:	5c 81       	ldd	r21, Y+4	; 0x04
     cb8:	26 0f       	add	r18, r22
     cba:	37 1f       	adc	r19, r23
     cbc:	48 1f       	adc	r20, r24
     cbe:	59 1f       	adc	r21, r25
     cc0:	29 83       	std	Y+1, r18	; 0x01
     cc2:	3a 83       	std	Y+2, r19	; 0x02
     cc4:	4b 83       	std	Y+3, r20	; 0x03
     cc6:	5c 83       	std	Y+4, r21	; 0x04
    acc += (int32_t)W_hr[3][7] * (int32_t)h_state[7];
     cc8:	2f e1       	ldi	r18, 0x1F	; 31
     cca:	30 e0       	ldi	r19, 0x00	; 0
     ccc:	a9 89       	ldd	r26, Y+17	; 0x11
     cce:	ba 89       	ldd	r27, Y+18	; 0x12
     cd0:	0e 94 c2 32 	call	0x6584	; 0x6584 <__usmulhisi3>
     cd4:	c9 51       	subi	r28, 0x19	; 25
     cd6:	df 4f       	sbci	r29, 0xFF	; 255
     cd8:	68 83       	st	Y, r22
     cda:	79 83       	std	Y+1, r23	; 0x01
     cdc:	8a 83       	std	Y+2, r24	; 0x02
     cde:	9b 83       	std	Y+3, r25	; 0x03
     ce0:	c7 5e       	subi	r28, 0xE7	; 231
     ce2:	d0 40       	sbci	r29, 0x00	; 0
     ce4:	29 81       	ldd	r18, Y+1	; 0x01
     ce6:	3a 81       	ldd	r19, Y+2	; 0x02
     ce8:	4b 81       	ldd	r20, Y+3	; 0x03
     cea:	5c 81       	ldd	r21, Y+4	; 0x04
     cec:	26 0f       	add	r18, r22
     cee:	37 1f       	adc	r19, r23
     cf0:	48 1f       	adc	r20, r24
     cf2:	59 1f       	adc	r21, r25
     cf4:	29 83       	std	Y+1, r18	; 0x01
     cf6:	3a 83       	std	Y+2, r19	; 0x02
     cf8:	4b 83       	std	Y+3, r20	; 0x03
     cfa:	5c 83       	std	Y+4, r21	; 0x04
    acc += (int32_t)W_hr[3][8] * (int32_t)h_state[8];
     cfc:	28 e2       	ldi	r18, 0x28	; 40
     cfe:	30 e0       	ldi	r19, 0x00	; 0
     d00:	af 89       	ldd	r26, Y+23	; 0x17
     d02:	b8 8d       	ldd	r27, Y+24	; 0x18
     d04:	0e 94 c2 32 	call	0x6584	; 0x6584 <__usmulhisi3>
     d08:	a7 96       	adiw	r28, 0x27	; 39
     d0a:	6c af       	std	Y+60, r22	; 0x3c
     d0c:	7d af       	std	Y+61, r23	; 0x3d
     d0e:	8e af       	std	Y+62, r24	; 0x3e
     d10:	9f af       	std	Y+63, r25	; 0x3f
     d12:	a7 97       	sbiw	r28, 0x27	; 39
     d14:	29 81       	ldd	r18, Y+1	; 0x01
     d16:	3a 81       	ldd	r19, Y+2	; 0x02
     d18:	4b 81       	ldd	r20, Y+3	; 0x03
     d1a:	5c 81       	ldd	r21, Y+4	; 0x04
     d1c:	26 0f       	add	r18, r22
     d1e:	37 1f       	adc	r19, r23
     d20:	48 1f       	adc	r20, r24
     d22:	59 1f       	adc	r21, r25
     d24:	29 83       	std	Y+1, r18	; 0x01
     d26:	3a 83       	std	Y+2, r19	; 0x02
     d28:	4b 83       	std	Y+3, r20	; 0x03
     d2a:	5c 83       	std	Y+4, r21	; 0x04
    acc += (int32_t)W_hr[3][9] * (int32_t)h_state[9];
     d2c:	27 e0       	ldi	r18, 0x07	; 7
     d2e:	30 e0       	ldi	r19, 0x00	; 0
     d30:	a9 85       	ldd	r26, Y+9	; 0x09
     d32:	ba 85       	ldd	r27, Y+10	; 0x0a
     d34:	0e 94 c2 32 	call	0x6584	; 0x6584 <__usmulhisi3>
     d38:	29 81       	ldd	r18, Y+1	; 0x01
     d3a:	3a 81       	ldd	r19, Y+2	; 0x02
     d3c:	4b 81       	ldd	r20, Y+3	; 0x03
     d3e:	5c 81       	ldd	r21, Y+4	; 0x04
     d40:	26 0f       	add	r18, r22
     d42:	37 1f       	adc	r19, r23
     d44:	48 1f       	adc	r20, r24
     d46:	59 1f       	adc	r21, r25
     d48:	29 83       	std	Y+1, r18	; 0x01
     d4a:	3a 83       	std	Y+2, r19	; 0x02
     d4c:	4b 83       	std	Y+3, r20	; 0x03
     d4e:	5c 83       	std	Y+4, r21	; 0x04
    acc += (int32_t)W_hr[3][10] * (int32_t)h_state[10];
     d50:	2b e0       	ldi	r18, 0x0B	; 11
     d52:	30 e0       	ldi	r19, 0x00	; 0
     d54:	af 85       	ldd	r26, Y+15	; 0x0f
     d56:	b8 89       	ldd	r27, Y+16	; 0x10
     d58:	0e 94 c2 32 	call	0x6584	; 0x6584 <__usmulhisi3>
     d5c:	29 81       	ldd	r18, Y+1	; 0x01
     d5e:	3a 81       	ldd	r19, Y+2	; 0x02
     d60:	4b 81       	ldd	r20, Y+3	; 0x03
     d62:	5c 81       	ldd	r21, Y+4	; 0x04
     d64:	26 0f       	add	r18, r22
     d66:	37 1f       	adc	r19, r23
     d68:	48 1f       	adc	r20, r24
     d6a:	59 1f       	adc	r21, r25
    acc += (int32_t)W_hr[3][11] * (int32_t)h_state[11];
     d6c:	8f a9       	ldd	r24, Y+55	; 0x37
     d6e:	98 ad       	ldd	r25, Y+56	; 0x38
     d70:	a9 ad       	ldd	r26, Y+57	; 0x39
     d72:	ba ad       	ldd	r27, Y+58	; 0x3a
     d74:	f3 e0       	ldi	r31, 0x03	; 3
     d76:	88 0f       	add	r24, r24
     d78:	99 1f       	adc	r25, r25
     d7a:	aa 1f       	adc	r26, r26
     d7c:	bb 1f       	adc	r27, r27
     d7e:	fa 95       	dec	r31
     d80:	d1 f7       	brne	.-12     	; 0xd76 <__LOCK_REGION_LENGTH__+0x976>
     d82:	82 0f       	add	r24, r18
     d84:	93 1f       	adc	r25, r19
     d86:	a4 1f       	adc	r26, r20
     d88:	b5 1f       	adc	r27, r21
    acc += (int32_t)W_hr[3][12] * (int32_t)h_state[12];
     d8a:	48 0e       	add	r4, r24
     d8c:	59 1e       	adc	r5, r25
     d8e:	6a 1e       	adc	r6, r26
     d90:	7b 1e       	adc	r7, r27
    acc += (int32_t)W_hr[3][13] * (int32_t)h_state[13];
     d92:	2b 8d       	ldd	r18, Y+27	; 0x1b
     d94:	3c 8d       	ldd	r19, Y+28	; 0x1c
     d96:	a0 ed       	ldi	r26, 0xD0	; 208
     d98:	bf ef       	ldi	r27, 0xFF	; 255
     d9a:	0e 94 ab 32 	call	0x6556	; 0x6556 <__mulhisi3>
     d9e:	46 0e       	add	r4, r22
     da0:	57 1e       	adc	r5, r23
     da2:	68 1e       	adc	r6, r24
     da4:	79 1e       	adc	r7, r25
    acc += (int32_t)W_hr[3][14] * (int32_t)h_state[14];
     da6:	2d 8d       	ldd	r18, Y+29	; 0x1d
     da8:	3e 8d       	ldd	r19, Y+30	; 0x1e
     daa:	ad ee       	ldi	r26, 0xED	; 237
     dac:	bf ef       	ldi	r27, 0xFF	; 255
     dae:	0e 94 ab 32 	call	0x6556	; 0x6556 <__mulhisi3>
     db2:	dc 01       	movw	r26, r24
     db4:	cb 01       	movw	r24, r22
     db6:	84 0d       	add	r24, r4
     db8:	95 1d       	adc	r25, r5
     dba:	a6 1d       	adc	r26, r6
     dbc:	b7 1d       	adc	r27, r7
    acc += (int32_t)W_hr[3][15] * (int32_t)h_state[15];
     dbe:	88 0d       	add	r24, r8
     dc0:	99 1d       	adc	r25, r9
     dc2:	aa 1d       	adc	r26, r10
     dc4:	bb 1d       	adc	r27, r11
    acc >>= FRAC_BITS;
     dc6:	26 e0       	ldi	r18, 0x06	; 6
     dc8:	b5 95       	asr	r27
     dca:	a7 95       	ror	r26
     dcc:	97 95       	ror	r25
     dce:	87 95       	ror	r24
     dd0:	2a 95       	dec	r18
     dd2:	d1 f7       	brne	.-12     	; 0xdc8 <__LOCK_REGION_LENGTH__+0x9c8>
static inline int16_t fp_mul(int16_t a, int16_t b) {
    return (int16_t)(((int32_t)a * (int32_t)b) >> FRAC_BITS);
}

static inline int16_t fp_sat32(int32_t v) {
    if (v > FP_MAX) return FP_MAX;
     dd4:	81 15       	cp	r24, r1
     dd6:	30 e8       	ldi	r19, 0x80	; 128
     dd8:	93 07       	cpc	r25, r19
     dda:	a1 05       	cpc	r26, r1
     ddc:	b1 05       	cpc	r27, r1
     dde:	14 f0       	brlt	.+4      	; 0xde4 <__LOCK_REGION_LENGTH__+0x9e4>
     de0:	0c 94 9a 31 	jmp	0x6334	; 0x6334 <__stack+0x4135>
    if (v < FP_MIN) return FP_MIN;
     de4:	81 15       	cp	r24, r1
     de6:	40 e8       	ldi	r20, 0x80	; 128
     de8:	94 07       	cpc	r25, r20
     dea:	4f ef       	ldi	r20, 0xFF	; 255
     dec:	a4 07       	cpc	r26, r20
     dee:	b4 07       	cpc	r27, r20
     df0:	14 f4       	brge	.+4      	; 0xdf6 <__LOCK_REGION_LENGTH__+0x9f6>
     df2:	0c 94 9e 31 	jmp	0x633c	; 0x633c <__stack+0x413d>
    acc += (int32_t)W_hr[3][12] * (int32_t)h_state[12];
    acc += (int32_t)W_hr[3][13] * (int32_t)h_state[13];
    acc += (int32_t)W_hr[3][14] * (int32_t)h_state[14];
    acc += (int32_t)W_hr[3][15] * (int32_t)h_state[15];
    acc >>= FRAC_BITS;
    r[3] = fp_sigmoid(fp_sat32(acc));
     df6:	0e 94 b5 00 	call	0x16a	; 0x16a <_ZL10fp_sigmoidi>
     dfa:	c3 58       	subi	r28, 0x83	; 131
     dfc:	de 4f       	sbci	r29, 0xFE	; 254
     dfe:	99 83       	std	Y+1, r25	; 0x01
     e00:	88 83       	st	Y, r24
     e02:	cd 57       	subi	r28, 0x7D	; 125
     e04:	d1 40       	sbci	r29, 0x01	; 1
    acc += (int32_t)W_ir[4][61] * (int32_t)x[61];
    acc += (int32_t)W_ir[4][62] * (int32_t)x[62];
    acc += (int32_t)W_ir[4][63] * (int32_t)x[63];
    acc >>= FRAC_BITS;
    acc += (int32_t)b_hr[4];
    acc += (int32_t)W_hr[4][0] * (int32_t)h_state[0];
     e06:	8b 85       	ldd	r24, Y+11	; 0x0b
     e08:	9c 85       	ldd	r25, Y+12	; 0x0c
     e0a:	09 2e       	mov	r0, r25
     e0c:	00 0c       	add	r0, r0
     e0e:	aa 0b       	sbc	r26, r26
     e10:	bb 0b       	sbc	r27, r27
     e12:	8b ab       	std	Y+51, r24	; 0x33
     e14:	9c ab       	std	Y+52, r25	; 0x34
     e16:	ad ab       	std	Y+53, r26	; 0x35
     e18:	be ab       	std	Y+54, r27	; 0x36
     e1a:	4c 01       	movw	r8, r24
     e1c:	5d 01       	movw	r10, r26
     e1e:	75 e0       	ldi	r23, 0x05	; 5
     e20:	88 0c       	add	r8, r8
     e22:	99 1c       	adc	r9, r9
     e24:	aa 1c       	adc	r10, r10
     e26:	bb 1c       	adc	r11, r11
     e28:	7a 95       	dec	r23
     e2a:	d1 f7       	brne	.-12     	; 0xe20 <__LOCK_REGION_LENGTH__+0xa20>
     e2c:	96 e1       	ldi	r25, 0x16	; 22
     e2e:	89 0e       	add	r8, r25
     e30:	91 1c       	adc	r9, r1
     e32:	a1 1c       	adc	r10, r1
     e34:	b1 1c       	adc	r11, r1
    acc += (int32_t)W_hr[4][1] * (int32_t)h_state[1];
     e36:	2f e2       	ldi	r18, 0x2F	; 47
     e38:	30 e0       	ldi	r19, 0x00	; 0
     e3a:	af 81       	ldd	r26, Y+7	; 0x07
     e3c:	b8 85       	ldd	r27, Y+8	; 0x08
     e3e:	0e 94 c2 32 	call	0x6584	; 0x6584 <__usmulhisi3>
     e42:	a3 96       	adiw	r28, 0x23	; 35
     e44:	6c af       	std	Y+60, r22	; 0x3c
     e46:	7d af       	std	Y+61, r23	; 0x3d
     e48:	8e af       	std	Y+62, r24	; 0x3e
     e4a:	9f af       	std	Y+63, r25	; 0x3f
     e4c:	a3 97       	sbiw	r28, 0x23	; 35
     e4e:	86 0e       	add	r8, r22
     e50:	97 1e       	adc	r9, r23
     e52:	a8 1e       	adc	r10, r24
     e54:	b9 1e       	adc	r11, r25
    acc += (int32_t)W_hr[4][2] * (int32_t)h_state[2];
     e56:	2c e1       	ldi	r18, 0x1C	; 28
     e58:	30 e0       	ldi	r19, 0x00	; 0
     e5a:	ad 89       	ldd	r26, Y+21	; 0x15
     e5c:	be 89       	ldd	r27, Y+22	; 0x16
     e5e:	0e 94 c2 32 	call	0x6584	; 0x6584 <__usmulhisi3>
     e62:	86 0e       	add	r8, r22
     e64:	97 1e       	adc	r9, r23
     e66:	a8 1e       	adc	r10, r24
     e68:	b9 1e       	adc	r11, r25
    acc += (int32_t)W_hr[4][3] * (int32_t)h_state[3];
     e6a:	2c e3       	ldi	r18, 0x3C	; 60
     e6c:	30 e0       	ldi	r19, 0x00	; 0
     e6e:	d1 01       	movw	r26, r2
     e70:	0e 94 c2 32 	call	0x6584	; 0x6584 <__usmulhisi3>
     e74:	86 0e       	add	r8, r22
     e76:	97 1e       	adc	r9, r23
     e78:	a8 1e       	adc	r10, r24
     e7a:	b9 1e       	adc	r11, r25
    acc += (int32_t)W_hr[4][4] * (int32_t)h_state[4];
     e7c:	2d e0       	ldi	r18, 0x0D	; 13
     e7e:	30 e0       	ldi	r19, 0x00	; 0
     e80:	ad 81       	ldd	r26, Y+5	; 0x05
     e82:	be 81       	ldd	r27, Y+6	; 0x06
     e84:	0e 94 c2 32 	call	0x6584	; 0x6584 <__usmulhisi3>
     e88:	23 96       	adiw	r28, 0x03	; 3
     e8a:	6c af       	std	Y+60, r22	; 0x3c
     e8c:	7d af       	std	Y+61, r23	; 0x3d
     e8e:	8e af       	std	Y+62, r24	; 0x3e
     e90:	9f af       	std	Y+63, r25	; 0x3f
     e92:	23 97       	sbiw	r28, 0x03	; 3
     e94:	86 0e       	add	r8, r22
     e96:	97 1e       	adc	r9, r23
     e98:	a8 1e       	adc	r10, r24
     e9a:	b9 1e       	adc	r11, r25
    acc += (int32_t)W_hr[4][5] * (int32_t)h_state[5];
     e9c:	2d 85       	ldd	r18, Y+13	; 0x0d
     e9e:	3e 85       	ldd	r19, Y+14	; 0x0e
     ea0:	ad ee       	ldi	r26, 0xED	; 237
     ea2:	bf ef       	ldi	r27, 0xFF	; 255
     ea4:	0e 94 ab 32 	call	0x6556	; 0x6556 <__mulhisi3>
     ea8:	86 0e       	add	r8, r22
     eaa:	97 1e       	adc	r9, r23
     eac:	a8 1e       	adc	r10, r24
     eae:	b9 1e       	adc	r11, r25
    acc += (int32_t)W_hr[4][6] * (int32_t)h_state[6];
     eb0:	2a e0       	ldi	r18, 0x0A	; 10
     eb2:	30 e0       	ldi	r19, 0x00	; 0
     eb4:	c9 56       	subi	r28, 0x69	; 105
     eb6:	de 4f       	sbci	r29, 0xFE	; 254
     eb8:	a8 81       	ld	r26, Y
     eba:	b9 81       	ldd	r27, Y+1	; 0x01
     ebc:	c7 59       	subi	r28, 0x97	; 151
     ebe:	d1 40       	sbci	r29, 0x01	; 1
     ec0:	0e 94 c2 32 	call	0x6584	; 0x6584 <__usmulhisi3>
     ec4:	86 0e       	add	r8, r22
     ec6:	97 1e       	adc	r9, r23
     ec8:	a8 1e       	adc	r10, r24
     eca:	b9 1e       	adc	r11, r25
    acc += (int32_t)W_hr[4][7] * (int32_t)h_state[7];
     ecc:	29 89       	ldd	r18, Y+17	; 0x11
     ece:	3a 89       	ldd	r19, Y+18	; 0x12
     ed0:	ab ed       	ldi	r26, 0xDB	; 219
     ed2:	bf ef       	ldi	r27, 0xFF	; 255
     ed4:	0e 94 ab 32 	call	0x6556	; 0x6556 <__mulhisi3>
     ed8:	c5 51       	subi	r28, 0x15	; 21
     eda:	df 4f       	sbci	r29, 0xFF	; 255
     edc:	68 83       	st	Y, r22
     ede:	79 83       	std	Y+1, r23	; 0x01
     ee0:	8a 83       	std	Y+2, r24	; 0x02
     ee2:	9b 83       	std	Y+3, r25	; 0x03
     ee4:	cb 5e       	subi	r28, 0xEB	; 235
     ee6:	d0 40       	sbci	r29, 0x00	; 0
     ee8:	86 0e       	add	r8, r22
     eea:	97 1e       	adc	r9, r23
     eec:	a8 1e       	adc	r10, r24
     eee:	b9 1e       	adc	r11, r25
    acc += (int32_t)W_hr[4][8] * (int32_t)h_state[8];
     ef0:	24 e1       	ldi	r18, 0x14	; 20
     ef2:	30 e0       	ldi	r19, 0x00	; 0
     ef4:	af 89       	ldd	r26, Y+23	; 0x17
     ef6:	b8 8d       	ldd	r27, Y+24	; 0x18
     ef8:	0e 94 c2 32 	call	0x6584	; 0x6584 <__usmulhisi3>
     efc:	c9 57       	subi	r28, 0x79	; 121
     efe:	df 4f       	sbci	r29, 0xFF	; 255
     f00:	68 83       	st	Y, r22
     f02:	79 83       	std	Y+1, r23	; 0x01
     f04:	8a 83       	std	Y+2, r24	; 0x02
     f06:	9b 83       	std	Y+3, r25	; 0x03
     f08:	c7 58       	subi	r28, 0x87	; 135
     f0a:	d0 40       	sbci	r29, 0x00	; 0
     f0c:	86 0e       	add	r8, r22
     f0e:	97 1e       	adc	r9, r23
     f10:	a8 1e       	adc	r10, r24
     f12:	b9 1e       	adc	r11, r25
    acc += (int32_t)W_hr[4][9] * (int32_t)h_state[9];
     f14:	c8 0c       	add	r12, r8
     f16:	d9 1c       	adc	r13, r9
     f18:	ea 1c       	adc	r14, r10
     f1a:	fb 1c       	adc	r15, r11
    acc += (int32_t)W_hr[4][10] * (int32_t)h_state[10];
     f1c:	2f 85       	ldd	r18, Y+15	; 0x0f
     f1e:	38 89       	ldd	r19, Y+16	; 0x10
     f20:	ae ec       	ldi	r26, 0xCE	; 206
     f22:	bf ef       	ldi	r27, 0xFF	; 255
     f24:	0e 94 ab 32 	call	0x6556	; 0x6556 <__mulhisi3>
     f28:	c6 0e       	add	r12, r22
     f2a:	d7 1e       	adc	r13, r23
     f2c:	e8 1e       	adc	r14, r24
     f2e:	f9 1e       	adc	r15, r25
    acc += (int32_t)W_hr[4][11] * (int32_t)h_state[11];
     f30:	2c e2       	ldi	r18, 0x2C	; 44
     f32:	30 e0       	ldi	r19, 0x00	; 0
     f34:	a9 8d       	ldd	r26, Y+25	; 0x19
     f36:	ba 8d       	ldd	r27, Y+26	; 0x1a
     f38:	0e 94 c2 32 	call	0x6584	; 0x6584 <__usmulhisi3>
     f3c:	c6 0e       	add	r12, r22
     f3e:	d7 1e       	adc	r13, r23
     f40:	e8 1e       	adc	r14, r24
     f42:	f9 1e       	adc	r15, r25
    acc += (int32_t)W_hr[4][12] * (int32_t)h_state[12];
     f44:	98 01       	movw	r18, r16
     f46:	af ee       	ldi	r26, 0xEF	; 239
     f48:	bf ef       	ldi	r27, 0xFF	; 255
     f4a:	0e 94 ab 32 	call	0x6556	; 0x6556 <__mulhisi3>
     f4e:	c6 0e       	add	r12, r22
     f50:	d7 1e       	adc	r13, r23
     f52:	e8 1e       	adc	r14, r24
     f54:	f9 1e       	adc	r15, r25
    acc += (int32_t)W_hr[4][13] * (int32_t)h_state[13];
     f56:	22 e2       	ldi	r18, 0x22	; 34
     f58:	30 e0       	ldi	r19, 0x00	; 0
     f5a:	ab 8d       	ldd	r26, Y+27	; 0x1b
     f5c:	bc 8d       	ldd	r27, Y+28	; 0x1c
     f5e:	0e 94 c2 32 	call	0x6584	; 0x6584 <__usmulhisi3>
     f62:	c5 57       	subi	r28, 0x75	; 117
     f64:	df 4f       	sbci	r29, 0xFF	; 255
     f66:	68 83       	st	Y, r22
     f68:	79 83       	std	Y+1, r23	; 0x01
     f6a:	8a 83       	std	Y+2, r24	; 0x02
     f6c:	9b 83       	std	Y+3, r25	; 0x03
     f6e:	cb 58       	subi	r28, 0x8B	; 139
     f70:	d0 40       	sbci	r29, 0x00	; 0
     f72:	c6 0e       	add	r12, r22
     f74:	d7 1e       	adc	r13, r23
     f76:	e8 1e       	adc	r14, r24
     f78:	f9 1e       	adc	r15, r25
    acc += (int32_t)W_hr[4][14] * (int32_t)h_state[14];
     f7a:	29 e0       	ldi	r18, 0x09	; 9
     f7c:	30 e0       	ldi	r19, 0x00	; 0
     f7e:	ad 8d       	ldd	r26, Y+29	; 0x1d
     f80:	be 8d       	ldd	r27, Y+30	; 0x1e
     f82:	0e 94 c2 32 	call	0x6584	; 0x6584 <__usmulhisi3>
     f86:	c6 0e       	add	r12, r22
     f88:	d7 1e       	adc	r13, r23
     f8a:	e8 1e       	adc	r14, r24
     f8c:	f9 1e       	adc	r15, r25
    acc += (int32_t)W_hr[4][15] * (int32_t)h_state[15];
     f8e:	27 e2       	ldi	r18, 0x27	; 39
     f90:	30 e0       	ldi	r19, 0x00	; 0
     f92:	ab 89       	ldd	r26, Y+19	; 0x13
     f94:	bc 89       	ldd	r27, Y+20	; 0x14
     f96:	0e 94 c2 32 	call	0x6584	; 0x6584 <__usmulhisi3>
     f9a:	dc 01       	movw	r26, r24
     f9c:	cb 01       	movw	r24, r22
     f9e:	8c 0d       	add	r24, r12
     fa0:	9d 1d       	adc	r25, r13
     fa2:	ae 1d       	adc	r26, r14
     fa4:	bf 1d       	adc	r27, r15
    acc >>= FRAC_BITS;
     fa6:	e6 e0       	ldi	r30, 0x06	; 6
     fa8:	b5 95       	asr	r27
     faa:	a7 95       	ror	r26
     fac:	97 95       	ror	r25
     fae:	87 95       	ror	r24
     fb0:	ea 95       	dec	r30
     fb2:	d1 f7       	brne	.-12     	; 0xfa8 <__LOCK_REGION_LENGTH__+0xba8>
static inline int16_t fp_mul(int16_t a, int16_t b) {
    return (int16_t)(((int32_t)a * (int32_t)b) >> FRAC_BITS);
}

static inline int16_t fp_sat32(int32_t v) {
    if (v > FP_MAX) return FP_MAX;
     fb4:	81 15       	cp	r24, r1
     fb6:	e0 e8       	ldi	r30, 0x80	; 128
     fb8:	9e 07       	cpc	r25, r30
     fba:	a1 05       	cpc	r26, r1
     fbc:	b1 05       	cpc	r27, r1
     fbe:	14 f0       	brlt	.+4      	; 0xfc4 <__LOCK_REGION_LENGTH__+0xbc4>
     fc0:	0c 94 a2 31 	jmp	0x6344	; 0x6344 <__stack+0x4145>
    if (v < FP_MIN) return FP_MIN;
     fc4:	81 15       	cp	r24, r1
     fc6:	f0 e8       	ldi	r31, 0x80	; 128
     fc8:	9f 07       	cpc	r25, r31
     fca:	ff ef       	ldi	r31, 0xFF	; 255
     fcc:	af 07       	cpc	r26, r31
     fce:	bf 07       	cpc	r27, r31
     fd0:	14 f4       	brge	.+4      	; 0xfd6 <__LOCK_REGION_LENGTH__+0xbd6>
     fd2:	0c 94 a6 31 	jmp	0x634c	; 0x634c <__stack+0x414d>
    acc += (int32_t)W_hr[4][12] * (int32_t)h_state[12];
    acc += (int32_t)W_hr[4][13] * (int32_t)h_state[13];
    acc += (int32_t)W_hr[4][14] * (int32_t)h_state[14];
    acc += (int32_t)W_hr[4][15] * (int32_t)h_state[15];
    acc >>= FRAC_BITS;
    r[4] = fp_sigmoid(fp_sat32(acc));
     fd6:	0e 94 b5 00 	call	0x16a	; 0x16a <_ZL10fp_sigmoidi>
     fda:	c1 58       	subi	r28, 0x81	; 129
     fdc:	de 4f       	sbci	r29, 0xFE	; 254
     fde:	99 83       	std	Y+1, r25	; 0x01
     fe0:	88 83       	st	Y, r24
     fe2:	cf 57       	subi	r28, 0x7F	; 127
     fe4:	d1 40       	sbci	r29, 0x01	; 1
    acc += (int32_t)W_ir[5][61] * (int32_t)x[61];
    acc += (int32_t)W_ir[5][62] * (int32_t)x[62];
    acc += (int32_t)W_ir[5][63] * (int32_t)x[63];
    acc >>= FRAC_BITS;
    acc += (int32_t)b_hr[5];
    acc += (int32_t)W_hr[5][0] * (int32_t)h_state[0];
     fe6:	2c e2       	ldi	r18, 0x2C	; 44
     fe8:	30 e0       	ldi	r19, 0x00	; 0
     fea:	ab 85       	ldd	r26, Y+11	; 0x0b
     fec:	bc 85       	ldd	r27, Y+12	; 0x0c
     fee:	0e 94 c2 32 	call	0x6584	; 0x6584 <__usmulhisi3>
     ff2:	6b 01       	movw	r12, r22
     ff4:	7c 01       	movw	r14, r24
     ff6:	4b 01       	movw	r8, r22
     ff8:	5c 01       	movw	r10, r24
     ffa:	2b e3       	ldi	r18, 0x3B	; 59
     ffc:	82 0e       	add	r8, r18
     ffe:	91 1c       	adc	r9, r1
    1000:	a1 1c       	adc	r10, r1
    1002:	b1 1c       	adc	r11, r1
    acc += (int32_t)W_hr[5][1] * (int32_t)h_state[1];
    1004:	2d e3       	ldi	r18, 0x3D	; 61
    1006:	30 e0       	ldi	r19, 0x00	; 0
    1008:	af 81       	ldd	r26, Y+7	; 0x07
    100a:	b8 85       	ldd	r27, Y+8	; 0x08
    100c:	0e 94 c2 32 	call	0x6584	; 0x6584 <__usmulhisi3>
    1010:	86 0e       	add	r8, r22
    1012:	97 1e       	adc	r9, r23
    1014:	a8 1e       	adc	r10, r24
    1016:	b9 1e       	adc	r11, r25
    acc += (int32_t)W_hr[5][2] * (int32_t)h_state[2];
    1018:	29 e2       	ldi	r18, 0x29	; 41
    101a:	30 e0       	ldi	r19, 0x00	; 0
    101c:	ad 89       	ldd	r26, Y+21	; 0x15
    101e:	be 89       	ldd	r27, Y+22	; 0x16
    1020:	0e 94 c2 32 	call	0x6584	; 0x6584 <__usmulhisi3>
    1024:	c1 57       	subi	r28, 0x71	; 113
    1026:	df 4f       	sbci	r29, 0xFF	; 255
    1028:	68 83       	st	Y, r22
    102a:	79 83       	std	Y+1, r23	; 0x01
    102c:	8a 83       	std	Y+2, r24	; 0x02
    102e:	9b 83       	std	Y+3, r25	; 0x03
    1030:	cf 58       	subi	r28, 0x8F	; 143
    1032:	d0 40       	sbci	r29, 0x00	; 0
    1034:	86 0e       	add	r8, r22
    1036:	97 1e       	adc	r9, r23
    1038:	a8 1e       	adc	r10, r24
    103a:	b9 1e       	adc	r11, r25
    acc += (int32_t)W_hr[5][3] * (int32_t)h_state[3];
    103c:	2f e0       	ldi	r18, 0x0F	; 15
    103e:	30 e0       	ldi	r19, 0x00	; 0
    1040:	d1 01       	movw	r26, r2
    1042:	0e 94 c2 32 	call	0x6584	; 0x6584 <__usmulhisi3>
    1046:	c1 54       	subi	r28, 0x41	; 65
    1048:	df 4f       	sbci	r29, 0xFF	; 255
    104a:	68 83       	st	Y, r22
    104c:	79 83       	std	Y+1, r23	; 0x01
    104e:	8a 83       	std	Y+2, r24	; 0x02
    1050:	9b 83       	std	Y+3, r25	; 0x03
    1052:	cf 5b       	subi	r28, 0xBF	; 191
    1054:	d0 40       	sbci	r29, 0x00	; 0
    1056:	86 0e       	add	r8, r22
    1058:	97 1e       	adc	r9, r23
    105a:	a8 1e       	adc	r10, r24
    105c:	b9 1e       	adc	r11, r25
    acc += (int32_t)W_hr[5][4] * (int32_t)h_state[4];
    105e:	22 e1       	ldi	r18, 0x12	; 18
    1060:	30 e0       	ldi	r19, 0x00	; 0
    1062:	ad 81       	ldd	r26, Y+5	; 0x05
    1064:	be 81       	ldd	r27, Y+6	; 0x06
    1066:	0e 94 c2 32 	call	0x6584	; 0x6584 <__usmulhisi3>
    106a:	86 0e       	add	r8, r22
    106c:	97 1e       	adc	r9, r23
    106e:	a8 1e       	adc	r10, r24
    1070:	b9 1e       	adc	r11, r25
    acc += (int32_t)W_hr[5][5] * (int32_t)h_state[5];
    1072:	2d 85       	ldd	r18, Y+13	; 0x0d
    1074:	3e 85       	ldd	r19, Y+14	; 0x0e
    1076:	a3 ec       	ldi	r26, 0xC3	; 195
    1078:	bf ef       	ldi	r27, 0xFF	; 255
    107a:	0e 94 ab 32 	call	0x6556	; 0x6556 <__mulhisi3>
    107e:	86 0e       	add	r8, r22
    1080:	97 1e       	adc	r9, r23
    1082:	a8 1e       	adc	r10, r24
    1084:	b9 1e       	adc	r11, r25
    acc += (int32_t)W_hr[5][6] * (int32_t)h_state[6];
    1086:	27 e3       	ldi	r18, 0x37	; 55
    1088:	30 e0       	ldi	r19, 0x00	; 0
    108a:	c9 56       	subi	r28, 0x69	; 105
    108c:	de 4f       	sbci	r29, 0xFE	; 254
    108e:	a8 81       	ld	r26, Y
    1090:	b9 81       	ldd	r27, Y+1	; 0x01
    1092:	c7 59       	subi	r28, 0x97	; 151
    1094:	d1 40       	sbci	r29, 0x01	; 1
    1096:	0e 94 c2 32 	call	0x6584	; 0x6584 <__usmulhisi3>
    109a:	cd 56       	subi	r28, 0x6D	; 109
    109c:	df 4f       	sbci	r29, 0xFF	; 255
    109e:	68 83       	st	Y, r22
    10a0:	79 83       	std	Y+1, r23	; 0x01
    10a2:	8a 83       	std	Y+2, r24	; 0x02
    10a4:	9b 83       	std	Y+3, r25	; 0x03
    10a6:	c3 59       	subi	r28, 0x93	; 147
    10a8:	d0 40       	sbci	r29, 0x00	; 0
    10aa:	86 0e       	add	r8, r22
    10ac:	97 1e       	adc	r9, r23
    10ae:	a8 1e       	adc	r10, r24
    10b0:	b9 1e       	adc	r11, r25
    acc += (int32_t)W_hr[5][7] * (int32_t)h_state[7];
    10b2:	2a e2       	ldi	r18, 0x2A	; 42
    10b4:	30 e0       	ldi	r19, 0x00	; 0
    10b6:	a9 89       	ldd	r26, Y+17	; 0x11
    10b8:	ba 89       	ldd	r27, Y+18	; 0x12
    10ba:	0e 94 c2 32 	call	0x6584	; 0x6584 <__usmulhisi3>
    10be:	86 0e       	add	r8, r22
    10c0:	97 1e       	adc	r9, r23
    10c2:	a8 1e       	adc	r10, r24
    10c4:	b9 1e       	adc	r11, r25
    acc += (int32_t)W_hr[5][8] * (int32_t)h_state[8];
    10c6:	2f 89       	ldd	r18, Y+23	; 0x17
    10c8:	38 8d       	ldd	r19, Y+24	; 0x18
    10ca:	a2 ee       	ldi	r26, 0xE2	; 226
    10cc:	bf ef       	ldi	r27, 0xFF	; 255
    10ce:	0e 94 ab 32 	call	0x6556	; 0x6556 <__mulhisi3>
    10d2:	c9 56       	subi	r28, 0x69	; 105
    10d4:	df 4f       	sbci	r29, 0xFF	; 255
    10d6:	68 83       	st	Y, r22
    10d8:	79 83       	std	Y+1, r23	; 0x01
    10da:	8a 83       	std	Y+2, r24	; 0x02
    10dc:	9b 83       	std	Y+3, r25	; 0x03
    10de:	c7 59       	subi	r28, 0x97	; 151
    10e0:	d0 40       	sbci	r29, 0x00	; 0
    10e2:	86 0e       	add	r8, r22
    10e4:	97 1e       	adc	r9, r23
    10e6:	a8 1e       	adc	r10, r24
    10e8:	b9 1e       	adc	r11, r25
    acc += (int32_t)W_hr[5][9] * (int32_t)h_state[9];
    10ea:	29 85       	ldd	r18, Y+9	; 0x09
    10ec:	3a 85       	ldd	r19, Y+10	; 0x0a
    10ee:	a7 ed       	ldi	r26, 0xD7	; 215
    10f0:	bf ef       	ldi	r27, 0xFF	; 255
    10f2:	0e 94 ab 32 	call	0x6556	; 0x6556 <__mulhisi3>
    10f6:	86 0e       	add	r8, r22
    10f8:	97 1e       	adc	r9, r23
    10fa:	a8 1e       	adc	r10, r24
    10fc:	b9 1e       	adc	r11, r25
    acc += (int32_t)W_hr[5][10] * (int32_t)h_state[10];
    10fe:	2a e1       	ldi	r18, 0x1A	; 26
    1100:	30 e0       	ldi	r19, 0x00	; 0
    1102:	af 85       	ldd	r26, Y+15	; 0x0f
    1104:	b8 89       	ldd	r27, Y+16	; 0x10
    1106:	0e 94 c2 32 	call	0x6584	; 0x6584 <__usmulhisi3>
    110a:	2b 01       	movw	r4, r22
    110c:	3c 01       	movw	r6, r24
    110e:	84 0c       	add	r8, r4
    1110:	95 1c       	adc	r9, r5
    1112:	a6 1c       	adc	r10, r6
    1114:	b7 1c       	adc	r11, r7
    acc += (int32_t)W_hr[5][11] * (int32_t)h_state[11];
    1116:	29 8d       	ldd	r18, Y+25	; 0x19
    1118:	3a 8d       	ldd	r19, Y+26	; 0x1a
    111a:	a8 ee       	ldi	r26, 0xE8	; 232
    111c:	bf ef       	ldi	r27, 0xFF	; 255
    111e:	0e 94 ab 32 	call	0x6556	; 0x6556 <__mulhisi3>
    1122:	86 0e       	add	r8, r22
    1124:	97 1e       	adc	r9, r23
    1126:	a8 1e       	adc	r10, r24
    1128:	b9 1e       	adc	r11, r25
    acc += (int32_t)W_hr[5][12] * (int32_t)h_state[12];
    112a:	98 01       	movw	r18, r16
    112c:	ab ee       	ldi	r26, 0xEB	; 235
    112e:	bf ef       	ldi	r27, 0xFF	; 255
    1130:	0e 94 ab 32 	call	0x6556	; 0x6556 <__mulhisi3>
    1134:	27 96       	adiw	r28, 0x07	; 7
    1136:	6c af       	std	Y+60, r22	; 0x3c
    1138:	7d af       	std	Y+61, r23	; 0x3d
    113a:	8e af       	std	Y+62, r24	; 0x3e
    113c:	9f af       	std	Y+63, r25	; 0x3f
    113e:	27 97       	sbiw	r28, 0x07	; 7
    1140:	86 0e       	add	r8, r22
    1142:	97 1e       	adc	r9, r23
    1144:	a8 1e       	adc	r10, r24
    1146:	b9 1e       	adc	r11, r25
    acc += (int32_t)W_hr[5][13] * (int32_t)h_state[13];
    1148:	2b 8d       	ldd	r18, Y+27	; 0x1b
    114a:	3c 8d       	ldd	r19, Y+28	; 0x1c
    114c:	a1 ec       	ldi	r26, 0xC1	; 193
    114e:	bf ef       	ldi	r27, 0xFF	; 255
    1150:	0e 94 ab 32 	call	0x6556	; 0x6556 <__mulhisi3>
    1154:	86 0e       	add	r8, r22
    1156:	97 1e       	adc	r9, r23
    1158:	a8 1e       	adc	r10, r24
    115a:	b9 1e       	adc	r11, r25
    acc += (int32_t)W_hr[5][14] * (int32_t)h_state[14];
    115c:	2f e2       	ldi	r18, 0x2F	; 47
    115e:	30 e0       	ldi	r19, 0x00	; 0
    1160:	ad 8d       	ldd	r26, Y+29	; 0x1d
    1162:	be 8d       	ldd	r27, Y+30	; 0x1e
    1164:	0e 94 c2 32 	call	0x6584	; 0x6584 <__usmulhisi3>
    1168:	c5 56       	subi	r28, 0x65	; 101
    116a:	df 4f       	sbci	r29, 0xFF	; 255
    116c:	68 83       	st	Y, r22
    116e:	79 83       	std	Y+1, r23	; 0x01
    1170:	8a 83       	std	Y+2, r24	; 0x02
    1172:	9b 83       	std	Y+3, r25	; 0x03
    1174:	cb 59       	subi	r28, 0x9B	; 155
    1176:	d0 40       	sbci	r29, 0x00	; 0
    1178:	86 0e       	add	r8, r22
    117a:	97 1e       	adc	r9, r23
    117c:	a8 1e       	adc	r10, r24
    117e:	b9 1e       	adc	r11, r25
    acc += (int32_t)W_hr[5][15] * (int32_t)h_state[15];
    1180:	67 96       	adiw	r28, 0x17	; 23
    1182:	8c ad       	ldd	r24, Y+60	; 0x3c
    1184:	9d ad       	ldd	r25, Y+61	; 0x3d
    1186:	ae ad       	ldd	r26, Y+62	; 0x3e
    1188:	bf ad       	ldd	r27, Y+63	; 0x3f
    118a:	67 97       	sbiw	r28, 0x17	; 23
    118c:	53 e0       	ldi	r21, 0x03	; 3
    118e:	88 0f       	add	r24, r24
    1190:	99 1f       	adc	r25, r25
    1192:	aa 1f       	adc	r26, r26
    1194:	bb 1f       	adc	r27, r27
    1196:	5a 95       	dec	r21
    1198:	d1 f7       	brne	.-12     	; 0x118e <__LOCK_REGION_LENGTH__+0xd8e>
    119a:	88 0d       	add	r24, r8
    119c:	99 1d       	adc	r25, r9
    119e:	aa 1d       	adc	r26, r10
    11a0:	bb 1d       	adc	r27, r11
    acc >>= FRAC_BITS;
    11a2:	66 e0       	ldi	r22, 0x06	; 6
    11a4:	b5 95       	asr	r27
    11a6:	a7 95       	ror	r26
    11a8:	97 95       	ror	r25
    11aa:	87 95       	ror	r24
    11ac:	6a 95       	dec	r22
    11ae:	d1 f7       	brne	.-12     	; 0x11a4 <__LOCK_REGION_LENGTH__+0xda4>
static inline int16_t fp_mul(int16_t a, int16_t b) {
    return (int16_t)(((int32_t)a * (int32_t)b) >> FRAC_BITS);
}

static inline int16_t fp_sat32(int32_t v) {
    if (v > FP_MAX) return FP_MAX;
    11b0:	81 15       	cp	r24, r1
    11b2:	30 e8       	ldi	r19, 0x80	; 128
    11b4:	93 07       	cpc	r25, r19
    11b6:	a1 05       	cpc	r26, r1
    11b8:	b1 05       	cpc	r27, r1
    11ba:	14 f0       	brlt	.+4      	; 0x11c0 <__LOCK_REGION_LENGTH__+0xdc0>
    11bc:	0c 94 aa 31 	jmp	0x6354	; 0x6354 <__stack+0x4155>
    if (v < FP_MIN) return FP_MIN;
    11c0:	81 15       	cp	r24, r1
    11c2:	40 e8       	ldi	r20, 0x80	; 128
    11c4:	94 07       	cpc	r25, r20
    11c6:	4f ef       	ldi	r20, 0xFF	; 255
    11c8:	a4 07       	cpc	r26, r20
    11ca:	b4 07       	cpc	r27, r20
    11cc:	14 f4       	brge	.+4      	; 0x11d2 <__LOCK_REGION_LENGTH__+0xdd2>
    11ce:	0c 94 ae 31 	jmp	0x635c	; 0x635c <__stack+0x415d>
    acc += (int32_t)W_hr[5][12] * (int32_t)h_state[12];
    acc += (int32_t)W_hr[5][13] * (int32_t)h_state[13];
    acc += (int32_t)W_hr[5][14] * (int32_t)h_state[14];
    acc += (int32_t)W_hr[5][15] * (int32_t)h_state[15];
    acc >>= FRAC_BITS;
    r[5] = fp_sigmoid(fp_sat32(acc));
    11d2:	0e 94 b5 00 	call	0x16a	; 0x16a <_ZL10fp_sigmoidi>
    11d6:	cf 57       	subi	r28, 0x7F	; 127
    11d8:	de 4f       	sbci	r29, 0xFE	; 254
    11da:	99 83       	std	Y+1, r25	; 0x01
    11dc:	88 83       	st	Y, r24
    11de:	c1 58       	subi	r28, 0x81	; 129
    11e0:	d1 40       	sbci	r29, 0x01	; 1
    acc += (int32_t)W_ir[6][61] * (int32_t)x[61];
    acc += (int32_t)W_ir[6][62] * (int32_t)x[62];
    acc += (int32_t)W_ir[6][63] * (int32_t)x[63];
    acc >>= FRAC_BITS;
    acc += (int32_t)b_hr[6];
    acc += (int32_t)W_hr[6][0] * (int32_t)h_state[0];
    11e2:	2b 85       	ldd	r18, Y+11	; 0x0b
    11e4:	3c 85       	ldd	r19, Y+12	; 0x0c
    11e6:	a3 ef       	ldi	r26, 0xF3	; 243
    11e8:	bf ef       	ldi	r27, 0xFF	; 255
    11ea:	0e 94 ab 32 	call	0x6556	; 0x6556 <__mulhisi3>
    11ee:	4b 01       	movw	r8, r22
    11f0:	5c 01       	movw	r10, r24
    11f2:	50 e2       	ldi	r21, 0x20	; 32
    11f4:	85 0e       	add	r8, r21
    11f6:	91 1c       	adc	r9, r1
    11f8:	a1 1c       	adc	r10, r1
    11fa:	b1 1c       	adc	r11, r1
    acc += (int32_t)W_hr[6][1] * (int32_t)h_state[1];
    11fc:	2f 81       	ldd	r18, Y+7	; 0x07
    11fe:	38 85       	ldd	r19, Y+8	; 0x08
    1200:	a2 ed       	ldi	r26, 0xD2	; 210
    1202:	bf ef       	ldi	r27, 0xFF	; 255
    1204:	0e 94 ab 32 	call	0x6556	; 0x6556 <__mulhisi3>
    1208:	86 0e       	add	r8, r22
    120a:	97 1e       	adc	r9, r23
    120c:	a8 1e       	adc	r10, r24
    120e:	b9 1e       	adc	r11, r25
    acc += (int32_t)W_hr[6][2] * (int32_t)h_state[2];
    1210:	21 e1       	ldi	r18, 0x11	; 17
    1212:	30 e0       	ldi	r19, 0x00	; 0
    1214:	ad 89       	ldd	r26, Y+21	; 0x15
    1216:	be 89       	ldd	r27, Y+22	; 0x16
    1218:	0e 94 c2 32 	call	0x6584	; 0x6584 <__usmulhisi3>
    121c:	86 0e       	add	r8, r22
    121e:	97 1e       	adc	r9, r23
    1220:	a8 1e       	adc	r10, r24
    1222:	b9 1e       	adc	r11, r25
    acc += (int32_t)W_hr[6][3] * (int32_t)h_state[3];
    1224:	91 01       	movw	r18, r2
    1226:	a4 ec       	ldi	r26, 0xC4	; 196
    1228:	bf ef       	ldi	r27, 0xFF	; 255
    122a:	0e 94 ab 32 	call	0x6556	; 0x6556 <__mulhisi3>
    122e:	86 0e       	add	r8, r22
    1230:	97 1e       	adc	r9, r23
    1232:	a8 1e       	adc	r10, r24
    1234:	b9 1e       	adc	r11, r25
    acc += (int32_t)W_hr[6][4] * (int32_t)h_state[4];
    1236:	63 96       	adiw	r28, 0x13	; 19
    1238:	8c ad       	ldd	r24, Y+60	; 0x3c
    123a:	9d ad       	ldd	r25, Y+61	; 0x3d
    123c:	ae ad       	ldd	r26, Y+62	; 0x3e
    123e:	bf ad       	ldd	r27, Y+63	; 0x3f
    1240:	63 97       	sbiw	r28, 0x13	; 19
    1242:	35 e0       	ldi	r19, 0x05	; 5
    1244:	88 0f       	add	r24, r24
    1246:	99 1f       	adc	r25, r25
    1248:	aa 1f       	adc	r26, r26
    124a:	bb 1f       	adc	r27, r27
    124c:	3a 95       	dec	r19
    124e:	d1 f7       	brne	.-12     	; 0x1244 <__LOCK_REGION_LENGTH__+0xe44>
    1250:	88 0e       	add	r8, r24
    1252:	99 1e       	adc	r9, r25
    1254:	aa 1e       	adc	r10, r26
    1256:	bb 1e       	adc	r11, r27
    acc += (int32_t)W_hr[6][5] * (int32_t)h_state[5];
    1258:	2d 85       	ldd	r18, Y+13	; 0x0d
    125a:	3e 85       	ldd	r19, Y+14	; 0x0e
    125c:	ac ed       	ldi	r26, 0xDC	; 220
    125e:	bf ef       	ldi	r27, 0xFF	; 255
    1260:	0e 94 ab 32 	call	0x6556	; 0x6556 <__mulhisi3>
    1264:	6b af       	std	Y+59, r22	; 0x3b
    1266:	7c af       	std	Y+60, r23	; 0x3c
    1268:	8d af       	std	Y+61, r24	; 0x3d
    126a:	9e af       	std	Y+62, r25	; 0x3e
    126c:	86 0e       	add	r8, r22
    126e:	97 1e       	adc	r9, r23
    1270:	a8 1e       	adc	r10, r24
    1272:	b9 1e       	adc	r11, r25
    acc += (int32_t)W_hr[6][6] * (int32_t)h_state[6];
    1274:	c9 56       	subi	r28, 0x69	; 105
    1276:	de 4f       	sbci	r29, 0xFE	; 254
    1278:	28 81       	ld	r18, Y
    127a:	39 81       	ldd	r19, Y+1	; 0x01
    127c:	c7 59       	subi	r28, 0x97	; 151
    127e:	d1 40       	sbci	r29, 0x01	; 1
    1280:	a6 ef       	ldi	r26, 0xF6	; 246
    1282:	bf ef       	ldi	r27, 0xFF	; 255
    1284:	0e 94 ab 32 	call	0x6556	; 0x6556 <__mulhisi3>
    1288:	86 0e       	add	r8, r22
    128a:	97 1e       	adc	r9, r23
    128c:	a8 1e       	adc	r10, r24
    128e:	b9 1e       	adc	r11, r25
    acc += (int32_t)W_hr[6][7] * (int32_t)h_state[7];
    1290:	29 89       	ldd	r18, Y+17	; 0x11
    1292:	3a 89       	ldd	r19, Y+18	; 0x12
    1294:	ac ee       	ldi	r26, 0xEC	; 236
    1296:	bf ef       	ldi	r27, 0xFF	; 255
    1298:	0e 94 ab 32 	call	0x6556	; 0x6556 <__mulhisi3>
    129c:	86 0e       	add	r8, r22
    129e:	97 1e       	adc	r9, r23
    12a0:	a8 1e       	adc	r10, r24
    12a2:	b9 1e       	adc	r11, r25
    acc += (int32_t)W_hr[6][8] * (int32_t)h_state[8];
    12a4:	2f 89       	ldd	r18, Y+23	; 0x17
    12a6:	38 8d       	ldd	r19, Y+24	; 0x18
    12a8:	af ee       	ldi	r26, 0xEF	; 239
    12aa:	bf ef       	ldi	r27, 0xFF	; 255
    12ac:	0e 94 ab 32 	call	0x6556	; 0x6556 <__mulhisi3>
    12b0:	86 0e       	add	r8, r22
    12b2:	97 1e       	adc	r9, r23
    12b4:	a8 1e       	adc	r10, r24
    12b6:	b9 1e       	adc	r11, r25
    acc += (int32_t)W_hr[6][9] * (int32_t)h_state[9];
    12b8:	2c e1       	ldi	r18, 0x1C	; 28
    12ba:	30 e0       	ldi	r19, 0x00	; 0
    12bc:	a9 85       	ldd	r26, Y+9	; 0x09
    12be:	ba 85       	ldd	r27, Y+10	; 0x0a
    12c0:	0e 94 c2 32 	call	0x6584	; 0x6584 <__usmulhisi3>
    12c4:	86 0e       	add	r8, r22
    12c6:	97 1e       	adc	r9, r23
    12c8:	a8 1e       	adc	r10, r24
    12ca:	b9 1e       	adc	r11, r25
    acc += (int32_t)W_hr[6][10] * (int32_t)h_state[10];
    12cc:	23 e2       	ldi	r18, 0x23	; 35
    12ce:	30 e0       	ldi	r19, 0x00	; 0
    12d0:	af 85       	ldd	r26, Y+15	; 0x0f
    12d2:	b8 89       	ldd	r27, Y+16	; 0x10
    12d4:	0e 94 c2 32 	call	0x6584	; 0x6584 <__usmulhisi3>
    12d8:	86 0e       	add	r8, r22
    12da:	97 1e       	adc	r9, r23
    12dc:	a8 1e       	adc	r10, r24
    12de:	b9 1e       	adc	r11, r25
    acc += (int32_t)W_hr[6][11] * (int32_t)h_state[11];
    12e0:	29 e0       	ldi	r18, 0x09	; 9
    12e2:	30 e0       	ldi	r19, 0x00	; 0
    12e4:	a9 8d       	ldd	r26, Y+25	; 0x19
    12e6:	ba 8d       	ldd	r27, Y+26	; 0x1a
    12e8:	0e 94 c2 32 	call	0x6584	; 0x6584 <__usmulhisi3>
    12ec:	c1 51       	subi	r28, 0x11	; 17
    12ee:	df 4f       	sbci	r29, 0xFF	; 255
    12f0:	68 83       	st	Y, r22
    12f2:	79 83       	std	Y+1, r23	; 0x01
    12f4:	8a 83       	std	Y+2, r24	; 0x02
    12f6:	9b 83       	std	Y+3, r25	; 0x03
    12f8:	cf 5e       	subi	r28, 0xEF	; 239
    12fa:	d0 40       	sbci	r29, 0x00	; 0
    12fc:	86 0e       	add	r8, r22
    12fe:	97 1e       	adc	r9, r23
    1300:	a8 1e       	adc	r10, r24
    1302:	b9 1e       	adc	r11, r25
    acc += (int32_t)W_hr[6][12] * (int32_t)h_state[12];
    1304:	98 01       	movw	r18, r16
    1306:	ab ec       	ldi	r26, 0xCB	; 203
    1308:	bf ef       	ldi	r27, 0xFF	; 255
    130a:	0e 94 ab 32 	call	0x6556	; 0x6556 <__mulhisi3>
    130e:	cd 50       	subi	r28, 0x0D	; 13
    1310:	df 4f       	sbci	r29, 0xFF	; 255
    1312:	68 83       	st	Y, r22
    1314:	79 83       	std	Y+1, r23	; 0x01
    1316:	8a 83       	std	Y+2, r24	; 0x02
    1318:	9b 83       	std	Y+3, r25	; 0x03
    131a:	c3 5f       	subi	r28, 0xF3	; 243
    131c:	d0 40       	sbci	r29, 0x00	; 0
    131e:	86 0e       	add	r8, r22
    1320:	97 1e       	adc	r9, r23
    1322:	a8 1e       	adc	r10, r24
    1324:	b9 1e       	adc	r11, r25
    acc += (int32_t)W_hr[6][13] * (int32_t)h_state[13];
    1326:	2b 8d       	ldd	r18, Y+27	; 0x1b
    1328:	3c 8d       	ldd	r19, Y+28	; 0x1c
    132a:	a7 ec       	ldi	r26, 0xC7	; 199
    132c:	bf ef       	ldi	r27, 0xFF	; 255
    132e:	0e 94 ab 32 	call	0x6556	; 0x6556 <__mulhisi3>
    1332:	c9 50       	subi	r28, 0x09	; 9
    1334:	df 4f       	sbci	r29, 0xFF	; 255
    1336:	68 83       	st	Y, r22
    1338:	79 83       	std	Y+1, r23	; 0x01
    133a:	8a 83       	std	Y+2, r24	; 0x02
    133c:	9b 83       	std	Y+3, r25	; 0x03
    133e:	c7 5f       	subi	r28, 0xF7	; 247
    1340:	d0 40       	sbci	r29, 0x00	; 0
    1342:	86 0e       	add	r8, r22
    1344:	97 1e       	adc	r9, r23
    1346:	a8 1e       	adc	r10, r24
    1348:	b9 1e       	adc	r11, r25
    acc += (int32_t)W_hr[6][14] * (int32_t)h_state[14];
    134a:	2d 8d       	ldd	r18, Y+29	; 0x1d
    134c:	3e 8d       	ldd	r19, Y+30	; 0x1e
    134e:	a4 ed       	ldi	r26, 0xD4	; 212
    1350:	bf ef       	ldi	r27, 0xFF	; 255
    1352:	0e 94 ab 32 	call	0x6556	; 0x6556 <__mulhisi3>
    1356:	86 0e       	add	r8, r22
    1358:	97 1e       	adc	r9, r23
    135a:	a8 1e       	adc	r10, r24
    135c:	b9 1e       	adc	r11, r25
    acc += (int32_t)W_hr[6][15] * (int32_t)h_state[15];
    135e:	2f e0       	ldi	r18, 0x0F	; 15
    1360:	30 e0       	ldi	r19, 0x00	; 0
    1362:	ab 89       	ldd	r26, Y+19	; 0x13
    1364:	bc 89       	ldd	r27, Y+20	; 0x14
    1366:	0e 94 c2 32 	call	0x6584	; 0x6584 <__usmulhisi3>
    136a:	c1 56       	subi	r28, 0x61	; 97
    136c:	df 4f       	sbci	r29, 0xFF	; 255
    136e:	68 83       	st	Y, r22
    1370:	79 83       	std	Y+1, r23	; 0x01
    1372:	8a 83       	std	Y+2, r24	; 0x02
    1374:	9b 83       	std	Y+3, r25	; 0x03
    1376:	cf 59       	subi	r28, 0x9F	; 159
    1378:	d0 40       	sbci	r29, 0x00	; 0
    137a:	dc 01       	movw	r26, r24
    137c:	cb 01       	movw	r24, r22
    137e:	88 0d       	add	r24, r8
    1380:	99 1d       	adc	r25, r9
    1382:	aa 1d       	adc	r26, r10
    1384:	bb 1d       	adc	r27, r11
    acc >>= FRAC_BITS;
    1386:	46 e0       	ldi	r20, 0x06	; 6
    1388:	b5 95       	asr	r27
    138a:	a7 95       	ror	r26
    138c:	97 95       	ror	r25
    138e:	87 95       	ror	r24
    1390:	4a 95       	dec	r20
    1392:	d1 f7       	brne	.-12     	; 0x1388 <__LOCK_REGION_LENGTH__+0xf88>
static inline int16_t fp_mul(int16_t a, int16_t b) {
    return (int16_t)(((int32_t)a * (int32_t)b) >> FRAC_BITS);
}

static inline int16_t fp_sat32(int32_t v) {
    if (v > FP_MAX) return FP_MAX;
    1394:	81 15       	cp	r24, r1
    1396:	e0 e8       	ldi	r30, 0x80	; 128
    1398:	9e 07       	cpc	r25, r30
    139a:	a1 05       	cpc	r26, r1
    139c:	b1 05       	cpc	r27, r1
    139e:	14 f0       	brlt	.+4      	; 0x13a4 <__LOCK_REGION_LENGTH__+0xfa4>
    13a0:	0c 94 b2 31 	jmp	0x6364	; 0x6364 <__stack+0x4165>
    if (v < FP_MIN) return FP_MIN;
    13a4:	81 15       	cp	r24, r1
    13a6:	f0 e8       	ldi	r31, 0x80	; 128
    13a8:	9f 07       	cpc	r25, r31
    13aa:	ff ef       	ldi	r31, 0xFF	; 255
    13ac:	af 07       	cpc	r26, r31
    13ae:	bf 07       	cpc	r27, r31
    13b0:	14 f4       	brge	.+4      	; 0x13b6 <__LOCK_REGION_LENGTH__+0xfb6>
    13b2:	0c 94 b6 31 	jmp	0x636c	; 0x636c <__stack+0x416d>
    acc += (int32_t)W_hr[6][12] * (int32_t)h_state[12];
    acc += (int32_t)W_hr[6][13] * (int32_t)h_state[13];
    acc += (int32_t)W_hr[6][14] * (int32_t)h_state[14];
    acc += (int32_t)W_hr[6][15] * (int32_t)h_state[15];
    acc >>= FRAC_BITS;
    r[6] = fp_sigmoid(fp_sat32(acc));
    13b6:	0e 94 b5 00 	call	0x16a	; 0x16a <_ZL10fp_sigmoidi>
    13ba:	cd 57       	subi	r28, 0x7D	; 125
    13bc:	de 4f       	sbci	r29, 0xFE	; 254
    13be:	99 83       	std	Y+1, r25	; 0x01
    13c0:	88 83       	st	Y, r24
    13c2:	c3 58       	subi	r28, 0x83	; 131
    13c4:	d1 40       	sbci	r29, 0x01	; 1
    acc += (int32_t)W_ir[7][61] * (int32_t)x[61];
    acc += (int32_t)W_ir[7][62] * (int32_t)x[62];
    acc += (int32_t)W_ir[7][63] * (int32_t)x[63];
    acc >>= FRAC_BITS;
    acc += (int32_t)b_hr[7];
    acc += (int32_t)W_hr[7][0] * (int32_t)h_state[0];
    13c6:	26 e1       	ldi	r18, 0x16	; 22
    13c8:	30 e0       	ldi	r19, 0x00	; 0
    13ca:	ab 85       	ldd	r26, Y+11	; 0x0b
    13cc:	bc 85       	ldd	r27, Y+12	; 0x0c
    13ce:	0e 94 c2 32 	call	0x6584	; 0x6584 <__usmulhisi3>
    13d2:	4b 01       	movw	r8, r22
    13d4:	5c 01       	movw	r10, r24
    13d6:	23 e4       	ldi	r18, 0x43	; 67
    13d8:	82 1a       	sub	r8, r18
    13da:	91 08       	sbc	r9, r1
    13dc:	a1 08       	sbc	r10, r1
    13de:	b1 08       	sbc	r11, r1
    acc += (int32_t)W_hr[7][1] * (int32_t)h_state[1];
    13e0:	2f 81       	ldd	r18, Y+7	; 0x07
    13e2:	38 85       	ldd	r19, Y+8	; 0x08
    13e4:	a3 ee       	ldi	r26, 0xE3	; 227
    13e6:	bf ef       	ldi	r27, 0xFF	; 255
    13e8:	0e 94 ab 32 	call	0x6556	; 0x6556 <__mulhisi3>
    13ec:	86 0e       	add	r8, r22
    13ee:	97 1e       	adc	r9, r23
    13f0:	a8 1e       	adc	r10, r24
    13f2:	b9 1e       	adc	r11, r25
    acc += (int32_t)W_hr[7][2] * (int32_t)h_state[2];
    13f4:	25 e1       	ldi	r18, 0x15	; 21
    13f6:	30 e0       	ldi	r19, 0x00	; 0
    13f8:	ad 89       	ldd	r26, Y+21	; 0x15
    13fa:	be 89       	ldd	r27, Y+22	; 0x16
    13fc:	0e 94 c2 32 	call	0x6584	; 0x6584 <__usmulhisi3>
    1400:	86 0e       	add	r8, r22
    1402:	97 1e       	adc	r9, r23
    1404:	a8 1e       	adc	r10, r24
    1406:	b9 1e       	adc	r11, r25
    acc += (int32_t)W_hr[7][3] * (int32_t)h_state[3];
    1408:	91 01       	movw	r18, r2
    140a:	ae ef       	ldi	r26, 0xFE	; 254
    140c:	bf ef       	ldi	r27, 0xFF	; 255
    140e:	0e 94 ab 32 	call	0x6556	; 0x6556 <__mulhisi3>
    1412:	86 0e       	add	r8, r22
    1414:	97 1e       	adc	r9, r23
    1416:	a8 1e       	adc	r10, r24
    1418:	b9 1e       	adc	r11, r25
    acc += (int32_t)W_hr[7][4] * (int32_t)h_state[4];
    141a:	2d 81       	ldd	r18, Y+5	; 0x05
    141c:	3e 81       	ldd	r19, Y+6	; 0x06
    141e:	a9 ef       	ldi	r26, 0xF9	; 249
    1420:	bf ef       	ldi	r27, 0xFF	; 255
    1422:	0e 94 ab 32 	call	0x6556	; 0x6556 <__mulhisi3>
    1426:	86 0e       	add	r8, r22
    1428:	97 1e       	adc	r9, r23
    142a:	a8 1e       	adc	r10, r24
    142c:	b9 1e       	adc	r11, r25
    acc += (int32_t)W_hr[7][5] * (int32_t)h_state[5];
    142e:	2d 85       	ldd	r18, Y+13	; 0x0d
    1430:	3e 85       	ldd	r19, Y+14	; 0x0e
    1432:	a3 ee       	ldi	r26, 0xE3	; 227
    1434:	bf ef       	ldi	r27, 0xFF	; 255
    1436:	0e 94 ab 32 	call	0x6556	; 0x6556 <__mulhisi3>
    143a:	86 0e       	add	r8, r22
    143c:	97 1e       	adc	r9, r23
    143e:	a8 1e       	adc	r10, r24
    1440:	b9 1e       	adc	r11, r25
    acc += (int32_t)W_hr[7][6] * (int32_t)h_state[6];
    1442:	21 e2       	ldi	r18, 0x21	; 33
    1444:	30 e0       	ldi	r19, 0x00	; 0
    1446:	c9 56       	subi	r28, 0x69	; 105
    1448:	de 4f       	sbci	r29, 0xFE	; 254
    144a:	a8 81       	ld	r26, Y
    144c:	b9 81       	ldd	r27, Y+1	; 0x01
    144e:	c7 59       	subi	r28, 0x97	; 151
    1450:	d1 40       	sbci	r29, 0x01	; 1
    1452:	0e 94 c2 32 	call	0x6584	; 0x6584 <__usmulhisi3>
    1456:	cd 55       	subi	r28, 0x5D	; 93
    1458:	df 4f       	sbci	r29, 0xFF	; 255
    145a:	68 83       	st	Y, r22
    145c:	79 83       	std	Y+1, r23	; 0x01
    145e:	8a 83       	std	Y+2, r24	; 0x02
    1460:	9b 83       	std	Y+3, r25	; 0x03
    1462:	c3 5a       	subi	r28, 0xA3	; 163
    1464:	d0 40       	sbci	r29, 0x00	; 0
    1466:	86 0e       	add	r8, r22
    1468:	97 1e       	adc	r9, r23
    146a:	a8 1e       	adc	r10, r24
    146c:	b9 1e       	adc	r11, r25
    acc += (int32_t)W_hr[7][7] * (int32_t)h_state[7];
    146e:	29 89       	ldd	r18, Y+17	; 0x11
    1470:	3a 89       	ldd	r19, Y+18	; 0x12
    1472:	af ec       	ldi	r26, 0xCF	; 207
    1474:	bf ef       	ldi	r27, 0xFF	; 255
    1476:	0e 94 ab 32 	call	0x6556	; 0x6556 <__mulhisi3>
    147a:	c9 55       	subi	r28, 0x59	; 89
    147c:	df 4f       	sbci	r29, 0xFF	; 255
    147e:	68 83       	st	Y, r22
    1480:	79 83       	std	Y+1, r23	; 0x01
    1482:	8a 83       	std	Y+2, r24	; 0x02
    1484:	9b 83       	std	Y+3, r25	; 0x03
    1486:	c7 5a       	subi	r28, 0xA7	; 167
    1488:	d0 40       	sbci	r29, 0x00	; 0
    148a:	86 0e       	add	r8, r22
    148c:	97 1e       	adc	r9, r23
    148e:	a8 1e       	adc	r10, r24
    1490:	b9 1e       	adc	r11, r25
    acc += (int32_t)W_hr[7][8] * (int32_t)h_state[8];
    1492:	2f 89       	ldd	r18, Y+23	; 0x17
    1494:	38 8d       	ldd	r19, Y+24	; 0x18
    1496:	a7 ef       	ldi	r26, 0xF7	; 247
    1498:	bf ef       	ldi	r27, 0xFF	; 255
    149a:	0e 94 ab 32 	call	0x6556	; 0x6556 <__mulhisi3>
    149e:	86 0e       	add	r8, r22
    14a0:	97 1e       	adc	r9, r23
    14a2:	a8 1e       	adc	r10, r24
    14a4:	b9 1e       	adc	r11, r25
    acc += (int32_t)W_hr[7][9] * (int32_t)h_state[9];
    14a6:	29 85       	ldd	r18, Y+9	; 0x09
    14a8:	3a 85       	ldd	r19, Y+10	; 0x0a
    14aa:	a4 ee       	ldi	r26, 0xE4	; 228
    14ac:	bf ef       	ldi	r27, 0xFF	; 255
    14ae:	0e 94 ab 32 	call	0x6556	; 0x6556 <__mulhisi3>
    14b2:	86 0e       	add	r8, r22
    14b4:	97 1e       	adc	r9, r23
    14b6:	a8 1e       	adc	r10, r24
    14b8:	b9 1e       	adc	r11, r25
    acc += (int32_t)W_hr[7][10] * (int32_t)h_state[10];
    14ba:	27 e1       	ldi	r18, 0x17	; 23
    14bc:	30 e0       	ldi	r19, 0x00	; 0
    14be:	af 85       	ldd	r26, Y+15	; 0x0f
    14c0:	b8 89       	ldd	r27, Y+16	; 0x10
    14c2:	0e 94 c2 32 	call	0x6584	; 0x6584 <__usmulhisi3>
    14c6:	c5 55       	subi	r28, 0x55	; 85
    14c8:	df 4f       	sbci	r29, 0xFF	; 255
    14ca:	68 83       	st	Y, r22
    14cc:	79 83       	std	Y+1, r23	; 0x01
    14ce:	8a 83       	std	Y+2, r24	; 0x02
    14d0:	9b 83       	std	Y+3, r25	; 0x03
    14d2:	cb 5a       	subi	r28, 0xAB	; 171
    14d4:	d0 40       	sbci	r29, 0x00	; 0
    14d6:	86 0e       	add	r8, r22
    14d8:	97 1e       	adc	r9, r23
    14da:	a8 1e       	adc	r10, r24
    14dc:	b9 1e       	adc	r11, r25
    acc += (int32_t)W_hr[7][11] * (int32_t)h_state[11];
    14de:	29 8d       	ldd	r18, Y+25	; 0x19
    14e0:	3a 8d       	ldd	r19, Y+26	; 0x1a
    14e2:	ae ef       	ldi	r26, 0xFE	; 254
    14e4:	bf ef       	ldi	r27, 0xFF	; 255
    14e6:	0e 94 ab 32 	call	0x6556	; 0x6556 <__mulhisi3>
    14ea:	86 0e       	add	r8, r22
    14ec:	97 1e       	adc	r9, r23
    14ee:	a8 1e       	adc	r10, r24
    14f0:	b9 1e       	adc	r11, r25
    acc += (int32_t)W_hr[7][12] * (int32_t)h_state[12];
    14f2:	25 e1       	ldi	r18, 0x15	; 21
    14f4:	30 e0       	ldi	r19, 0x00	; 0
    14f6:	d8 01       	movw	r26, r16
    14f8:	0e 94 c2 32 	call	0x6584	; 0x6584 <__usmulhisi3>
    14fc:	86 0e       	add	r8, r22
    14fe:	97 1e       	adc	r9, r23
    1500:	a8 1e       	adc	r10, r24
    1502:	b9 1e       	adc	r11, r25
    acc += (int32_t)W_hr[7][13] * (int32_t)h_state[13];
    1504:	2b 8d       	ldd	r18, Y+27	; 0x1b
    1506:	3c 8d       	ldd	r19, Y+28	; 0x1c
    1508:	a6 ec       	ldi	r26, 0xC6	; 198
    150a:	bf ef       	ldi	r27, 0xFF	; 255
    150c:	0e 94 ab 32 	call	0x6556	; 0x6556 <__mulhisi3>
    1510:	86 0e       	add	r8, r22
    1512:	97 1e       	adc	r9, r23
    1514:	a8 1e       	adc	r10, r24
    1516:	b9 1e       	adc	r11, r25
    acc += (int32_t)W_hr[7][14] * (int32_t)h_state[14];
    1518:	2d 8d       	ldd	r18, Y+29	; 0x1d
    151a:	3e 8d       	ldd	r19, Y+30	; 0x1e
    151c:	a3 ef       	ldi	r26, 0xF3	; 243
    151e:	bf ef       	ldi	r27, 0xFF	; 255
    1520:	0e 94 ab 32 	call	0x6556	; 0x6556 <__mulhisi3>
    1524:	c5 50       	subi	r28, 0x05	; 5
    1526:	df 4f       	sbci	r29, 0xFF	; 255
    1528:	68 83       	st	Y, r22
    152a:	79 83       	std	Y+1, r23	; 0x01
    152c:	8a 83       	std	Y+2, r24	; 0x02
    152e:	9b 83       	std	Y+3, r25	; 0x03
    1530:	cb 5f       	subi	r28, 0xFB	; 251
    1532:	d0 40       	sbci	r29, 0x00	; 0
    1534:	86 0e       	add	r8, r22
    1536:	97 1e       	adc	r9, r23
    1538:	a8 1e       	adc	r10, r24
    153a:	b9 1e       	adc	r11, r25
    acc += (int32_t)W_hr[7][15] * (int32_t)h_state[15];
    153c:	2d e0       	ldi	r18, 0x0D	; 13
    153e:	30 e0       	ldi	r19, 0x00	; 0
    1540:	ab 89       	ldd	r26, Y+19	; 0x13
    1542:	bc 89       	ldd	r27, Y+20	; 0x14
    1544:	0e 94 c2 32 	call	0x6584	; 0x6584 <__usmulhisi3>
    1548:	c1 50       	subi	r28, 0x01	; 1
    154a:	df 4f       	sbci	r29, 0xFF	; 255
    154c:	68 83       	st	Y, r22
    154e:	79 83       	std	Y+1, r23	; 0x01
    1550:	8a 83       	std	Y+2, r24	; 0x02
    1552:	9b 83       	std	Y+3, r25	; 0x03
    1554:	cf 5f       	subi	r28, 0xFF	; 255
    1556:	d0 40       	sbci	r29, 0x00	; 0
    1558:	dc 01       	movw	r26, r24
    155a:	cb 01       	movw	r24, r22
    155c:	88 0d       	add	r24, r8
    155e:	99 1d       	adc	r25, r9
    1560:	aa 1d       	adc	r26, r10
    1562:	bb 1d       	adc	r27, r11
    acc >>= FRAC_BITS;
    1564:	26 e0       	ldi	r18, 0x06	; 6
    1566:	b5 95       	asr	r27
    1568:	a7 95       	ror	r26
    156a:	97 95       	ror	r25
    156c:	87 95       	ror	r24
    156e:	2a 95       	dec	r18
    1570:	d1 f7       	brne	.-12     	; 0x1566 <__LOCK_REGION_LENGTH__+0x1166>
static inline int16_t fp_mul(int16_t a, int16_t b) {
    return (int16_t)(((int32_t)a * (int32_t)b) >> FRAC_BITS);
}

static inline int16_t fp_sat32(int32_t v) {
    if (v > FP_MAX) return FP_MAX;
    1572:	81 15       	cp	r24, r1
    1574:	30 e8       	ldi	r19, 0x80	; 128
    1576:	93 07       	cpc	r25, r19
    1578:	a1 05       	cpc	r26, r1
    157a:	b1 05       	cpc	r27, r1
    157c:	14 f0       	brlt	.+4      	; 0x1582 <__LOCK_REGION_LENGTH__+0x1182>
    157e:	0c 94 ba 31 	jmp	0x6374	; 0x6374 <__stack+0x4175>
    if (v < FP_MIN) return FP_MIN;
    1582:	81 15       	cp	r24, r1
    1584:	40 e8       	ldi	r20, 0x80	; 128
    1586:	94 07       	cpc	r25, r20
    1588:	4f ef       	ldi	r20, 0xFF	; 255
    158a:	a4 07       	cpc	r26, r20
    158c:	b4 07       	cpc	r27, r20
    158e:	14 f4       	brge	.+4      	; 0x1594 <__LOCK_REGION_LENGTH__+0x1194>
    1590:	0c 94 be 31 	jmp	0x637c	; 0x637c <__stack+0x417d>
    acc += (int32_t)W_hr[7][12] * (int32_t)h_state[12];
    acc += (int32_t)W_hr[7][13] * (int32_t)h_state[13];
    acc += (int32_t)W_hr[7][14] * (int32_t)h_state[14];
    acc += (int32_t)W_hr[7][15] * (int32_t)h_state[15];
    acc >>= FRAC_BITS;
    r[7] = fp_sigmoid(fp_sat32(acc));
    1594:	0e 94 b5 00 	call	0x16a	; 0x16a <_ZL10fp_sigmoidi>
    1598:	cb 57       	subi	r28, 0x7B	; 123
    159a:	de 4f       	sbci	r29, 0xFE	; 254
    159c:	99 83       	std	Y+1, r25	; 0x01
    159e:	88 83       	st	Y, r24
    15a0:	c5 58       	subi	r28, 0x85	; 133
    15a2:	d1 40       	sbci	r29, 0x01	; 1
    acc += (int32_t)W_ir[8][61] * (int32_t)x[61];
    acc += (int32_t)W_ir[8][62] * (int32_t)x[62];
    acc += (int32_t)W_ir[8][63] * (int32_t)x[63];
    acc >>= FRAC_BITS;
    acc += (int32_t)b_hr[8];
    acc += (int32_t)W_hr[8][0] * (int32_t)h_state[0];
    15a4:	2b 85       	ldd	r18, Y+11	; 0x0b
    15a6:	3c 85       	ldd	r19, Y+12	; 0x0c
    15a8:	a1 ec       	ldi	r26, 0xC1	; 193
    15aa:	bf ef       	ldi	r27, 0xFF	; 255
    15ac:	0e 94 ab 32 	call	0x6556	; 0x6556 <__mulhisi3>
    15b0:	cd 5f       	subi	r28, 0xFD	; 253
    15b2:	de 4f       	sbci	r29, 0xFE	; 254
    15b4:	68 83       	st	Y, r22
    15b6:	79 83       	std	Y+1, r23	; 0x01
    15b8:	8a 83       	std	Y+2, r24	; 0x02
    15ba:	9b 83       	std	Y+3, r25	; 0x03
    15bc:	c3 50       	subi	r28, 0x03	; 3
    15be:	d1 40       	sbci	r29, 0x01	; 1
    15c0:	4b 01       	movw	r8, r22
    15c2:	5c 01       	movw	r10, r24
    15c4:	59 e0       	ldi	r21, 0x09	; 9
    15c6:	85 1a       	sub	r8, r21
    15c8:	91 08       	sbc	r9, r1
    15ca:	a1 08       	sbc	r10, r1
    15cc:	b1 08       	sbc	r11, r1
    acc += (int32_t)W_hr[8][1] * (int32_t)h_state[1];
    15ce:	2f 81       	ldd	r18, Y+7	; 0x07
    15d0:	38 85       	ldd	r19, Y+8	; 0x08
    15d2:	a7 ee       	ldi	r26, 0xE7	; 231
    15d4:	bf ef       	ldi	r27, 0xFF	; 255
    15d6:	0e 94 ab 32 	call	0x6556	; 0x6556 <__mulhisi3>
    15da:	86 0e       	add	r8, r22
    15dc:	97 1e       	adc	r9, r23
    15de:	a8 1e       	adc	r10, r24
    15e0:	b9 1e       	adc	r11, r25
    acc += (int32_t)W_hr[8][2] * (int32_t)h_state[2];
    15e2:	2d 89       	ldd	r18, Y+21	; 0x15
    15e4:	3e 89       	ldd	r19, Y+22	; 0x16
    15e6:	ab ed       	ldi	r26, 0xDB	; 219
    15e8:	bf ef       	ldi	r27, 0xFF	; 255
    15ea:	0e 94 ab 32 	call	0x6556	; 0x6556 <__mulhisi3>
    15ee:	86 0e       	add	r8, r22
    15f0:	97 1e       	adc	r9, r23
    15f2:	a8 1e       	adc	r10, r24
    15f4:	b9 1e       	adc	r11, r25
    acc += (int32_t)W_hr[8][3] * (int32_t)h_state[3];
    15f6:	91 01       	movw	r18, r2
    15f8:	a2 ed       	ldi	r26, 0xD2	; 210
    15fa:	bf ef       	ldi	r27, 0xFF	; 255
    15fc:	0e 94 ab 32 	call	0x6556	; 0x6556 <__mulhisi3>
    1600:	86 0e       	add	r8, r22
    1602:	97 1e       	adc	r9, r23
    1604:	a8 1e       	adc	r10, r24
    1606:	b9 1e       	adc	r11, r25
    acc += (int32_t)W_hr[8][4] * (int32_t)h_state[4];
    1608:	2d 81       	ldd	r18, Y+5	; 0x05
    160a:	3e 81       	ldd	r19, Y+6	; 0x06
    160c:	a1 ee       	ldi	r26, 0xE1	; 225
    160e:	bf ef       	ldi	r27, 0xFF	; 255
    1610:	0e 94 ab 32 	call	0x6556	; 0x6556 <__mulhisi3>
    1614:	86 0e       	add	r8, r22
    1616:	97 1e       	adc	r9, r23
    1618:	a8 1e       	adc	r10, r24
    161a:	b9 1e       	adc	r11, r25
    acc += (int32_t)W_hr[8][5] * (int32_t)h_state[5];
    161c:	2d 85       	ldd	r18, Y+13	; 0x0d
    161e:	3e 85       	ldd	r19, Y+14	; 0x0e
    1620:	aa ee       	ldi	r26, 0xEA	; 234
    1622:	bf ef       	ldi	r27, 0xFF	; 255
    1624:	0e 94 ab 32 	call	0x6556	; 0x6556 <__mulhisi3>
    1628:	c9 5f       	subi	r28, 0xF9	; 249
    162a:	de 4f       	sbci	r29, 0xFE	; 254
    162c:	68 83       	st	Y, r22
    162e:	79 83       	std	Y+1, r23	; 0x01
    1630:	8a 83       	std	Y+2, r24	; 0x02
    1632:	9b 83       	std	Y+3, r25	; 0x03
    1634:	c7 50       	subi	r28, 0x07	; 7
    1636:	d1 40       	sbci	r29, 0x01	; 1
    1638:	86 0e       	add	r8, r22
    163a:	97 1e       	adc	r9, r23
    163c:	a8 1e       	adc	r10, r24
    163e:	b9 1e       	adc	r11, r25
    acc += (int32_t)W_hr[8][6] * (int32_t)h_state[6];
    1640:	c9 56       	subi	r28, 0x69	; 105
    1642:	de 4f       	sbci	r29, 0xFE	; 254
    1644:	28 81       	ld	r18, Y
    1646:	39 81       	ldd	r19, Y+1	; 0x01
    1648:	c7 59       	subi	r28, 0x97	; 151
    164a:	d1 40       	sbci	r29, 0x01	; 1
    164c:	a1 ec       	ldi	r26, 0xC1	; 193
    164e:	bf ef       	ldi	r27, 0xFF	; 255
    1650:	0e 94 ab 32 	call	0x6556	; 0x6556 <__mulhisi3>
    1654:	86 0e       	add	r8, r22
    1656:	97 1e       	adc	r9, r23
    1658:	a8 1e       	adc	r10, r24
    165a:	b9 1e       	adc	r11, r25
    acc += (int32_t)W_hr[8][7] * (int32_t)h_state[7];
    165c:	a9 89       	ldd	r26, Y+17	; 0x11
    165e:	ba 89       	ldd	r27, Y+18	; 0x12
    1660:	bd 01       	movw	r22, r26
    1662:	bb 0f       	add	r27, r27
    1664:	88 0b       	sbc	r24, r24
    1666:	99 0b       	sbc	r25, r25
    1668:	e5 e0       	ldi	r30, 0x05	; 5
    166a:	66 0f       	add	r22, r22
    166c:	77 1f       	adc	r23, r23
    166e:	88 1f       	adc	r24, r24
    1670:	99 1f       	adc	r25, r25
    1672:	ea 95       	dec	r30
    1674:	d1 f7       	brne	.-12     	; 0x166a <__LOCK_REGION_LENGTH__+0x126a>
    1676:	9b 01       	movw	r18, r22
    1678:	ac 01       	movw	r20, r24
    167a:	28 0d       	add	r18, r8
    167c:	39 1d       	adc	r19, r9
    167e:	4a 1d       	adc	r20, r10
    1680:	5b 1d       	adc	r21, r11
    1682:	29 83       	std	Y+1, r18	; 0x01
    1684:	3a 83       	std	Y+2, r19	; 0x02
    1686:	4b 83       	std	Y+3, r20	; 0x03
    1688:	5c 83       	std	Y+4, r21	; 0x04
    acc += (int32_t)W_hr[8][8] * (int32_t)h_state[8];
    168a:	2f 89       	ldd	r18, Y+23	; 0x17
    168c:	38 8d       	ldd	r19, Y+24	; 0x18
    168e:	a6 ed       	ldi	r26, 0xD6	; 214
    1690:	bf ef       	ldi	r27, 0xFF	; 255
    1692:	0e 94 ab 32 	call	0x6556	; 0x6556 <__mulhisi3>
    1696:	4b 01       	movw	r8, r22
    1698:	5c 01       	movw	r10, r24
    169a:	89 81       	ldd	r24, Y+1	; 0x01
    169c:	9a 81       	ldd	r25, Y+2	; 0x02
    169e:	ab 81       	ldd	r26, Y+3	; 0x03
    16a0:	bc 81       	ldd	r27, Y+4	; 0x04
    16a2:	88 0d       	add	r24, r8
    16a4:	99 1d       	adc	r25, r9
    16a6:	aa 1d       	adc	r26, r10
    16a8:	bb 1d       	adc	r27, r11
    16aa:	89 83       	std	Y+1, r24	; 0x01
    16ac:	9a 83       	std	Y+2, r25	; 0x02
    16ae:	ab 83       	std	Y+3, r26	; 0x03
    16b0:	bc 83       	std	Y+4, r27	; 0x04
    acc += (int32_t)W_hr[8][9] * (int32_t)h_state[9];
    16b2:	29 85       	ldd	r18, Y+9	; 0x09
    16b4:	3a 85       	ldd	r19, Y+10	; 0x0a
    16b6:	a1 ef       	ldi	r26, 0xF1	; 241
    16b8:	bf ef       	ldi	r27, 0xFF	; 255
    16ba:	0e 94 ab 32 	call	0x6556	; 0x6556 <__mulhisi3>
    16be:	29 81       	ldd	r18, Y+1	; 0x01
    16c0:	3a 81       	ldd	r19, Y+2	; 0x02
    16c2:	4b 81       	ldd	r20, Y+3	; 0x03
    16c4:	5c 81       	ldd	r21, Y+4	; 0x04
    16c6:	62 0f       	add	r22, r18
    16c8:	73 1f       	adc	r23, r19
    16ca:	84 1f       	adc	r24, r20
    16cc:	95 1f       	adc	r25, r21
    acc += (int32_t)W_hr[8][10] * (int32_t)h_state[10];
    16ce:	46 0e       	add	r4, r22
    16d0:	57 1e       	adc	r5, r23
    16d2:	68 1e       	adc	r6, r24
    16d4:	79 1e       	adc	r7, r25
    acc += (int32_t)W_hr[8][11] * (int32_t)h_state[11];
    acc += (int32_t)W_hr[8][12] * (int32_t)h_state[12];
    16d6:	2b e2       	ldi	r18, 0x2B	; 43
    16d8:	30 e0       	ldi	r19, 0x00	; 0
    16da:	d8 01       	movw	r26, r16
    16dc:	0e 94 c2 32 	call	0x6584	; 0x6584 <__usmulhisi3>
    16e0:	46 0e       	add	r4, r22
    16e2:	57 1e       	adc	r5, r23
    16e4:	68 1e       	adc	r6, r24
    16e6:	79 1e       	adc	r7, r25
    acc += (int32_t)W_hr[8][13] * (int32_t)h_state[13];
    16e8:	27 e2       	ldi	r18, 0x27	; 39
    16ea:	30 e0       	ldi	r19, 0x00	; 0
    16ec:	ab 8d       	ldd	r26, Y+27	; 0x1b
    16ee:	bc 8d       	ldd	r27, Y+28	; 0x1c
    16f0:	0e 94 c2 32 	call	0x6584	; 0x6584 <__usmulhisi3>
    16f4:	46 0e       	add	r4, r22
    16f6:	57 1e       	adc	r5, r23
    16f8:	68 1e       	adc	r6, r24
    16fa:	79 1e       	adc	r7, r25
    acc += (int32_t)W_hr[8][14] * (int32_t)h_state[14];
    16fc:	2d 8d       	ldd	r18, Y+29	; 0x1d
    16fe:	3e 8d       	ldd	r19, Y+30	; 0x1e
    1700:	a9 ec       	ldi	r26, 0xC9	; 201
    1702:	bf ef       	ldi	r27, 0xFF	; 255
    1704:	0e 94 ab 32 	call	0x6556	; 0x6556 <__mulhisi3>
    1708:	e3 96       	adiw	r28, 0x33	; 51
    170a:	6c af       	std	Y+60, r22	; 0x3c
    170c:	7d af       	std	Y+61, r23	; 0x3d
    170e:	8e af       	std	Y+62, r24	; 0x3e
    1710:	9f af       	std	Y+63, r25	; 0x3f
    1712:	e3 97       	sbiw	r28, 0x33	; 51
    1714:	46 0e       	add	r4, r22
    1716:	57 1e       	adc	r5, r23
    1718:	68 1e       	adc	r6, r24
    171a:	79 1e       	adc	r7, r25
    acc += (int32_t)W_hr[8][15] * (int32_t)h_state[15];
    171c:	2e e2       	ldi	r18, 0x2E	; 46
    171e:	30 e0       	ldi	r19, 0x00	; 0
    1720:	ab 89       	ldd	r26, Y+19	; 0x13
    1722:	bc 89       	ldd	r27, Y+20	; 0x14
    1724:	0e 94 c2 32 	call	0x6584	; 0x6584 <__usmulhisi3>
    1728:	dc 01       	movw	r26, r24
    172a:	cb 01       	movw	r24, r22
    172c:	84 0d       	add	r24, r4
    172e:	95 1d       	adc	r25, r5
    1730:	a6 1d       	adc	r26, r6
    1732:	b7 1d       	adc	r27, r7
    acc >>= FRAC_BITS;
    1734:	f6 e0       	ldi	r31, 0x06	; 6
    1736:	b5 95       	asr	r27
    1738:	a7 95       	ror	r26
    173a:	97 95       	ror	r25
    173c:	87 95       	ror	r24
    173e:	fa 95       	dec	r31
    1740:	d1 f7       	brne	.-12     	; 0x1736 <__LOCK_REGION_LENGTH__+0x1336>
static inline int16_t fp_mul(int16_t a, int16_t b) {
    return (int16_t)(((int32_t)a * (int32_t)b) >> FRAC_BITS);
}

static inline int16_t fp_sat32(int32_t v) {
    if (v > FP_MAX) return FP_MAX;
    1742:	81 15       	cp	r24, r1
    1744:	30 e8       	ldi	r19, 0x80	; 128
    1746:	93 07       	cpc	r25, r19
    1748:	a1 05       	cpc	r26, r1
    174a:	b1 05       	cpc	r27, r1
    174c:	14 f0       	brlt	.+4      	; 0x1752 <__LOCK_REGION_LENGTH__+0x1352>
    174e:	0c 94 c2 31 	jmp	0x6384	; 0x6384 <__stack+0x4185>
    if (v < FP_MIN) return FP_MIN;
    1752:	81 15       	cp	r24, r1
    1754:	40 e8       	ldi	r20, 0x80	; 128
    1756:	94 07       	cpc	r25, r20
    1758:	4f ef       	ldi	r20, 0xFF	; 255
    175a:	a4 07       	cpc	r26, r20
    175c:	b4 07       	cpc	r27, r20
    175e:	14 f4       	brge	.+4      	; 0x1764 <__LOCK_REGION_LENGTH__+0x1364>
    1760:	0c 94 c6 31 	jmp	0x638c	; 0x638c <__stack+0x418d>
    acc += (int32_t)W_hr[8][12] * (int32_t)h_state[12];
    acc += (int32_t)W_hr[8][13] * (int32_t)h_state[13];
    acc += (int32_t)W_hr[8][14] * (int32_t)h_state[14];
    acc += (int32_t)W_hr[8][15] * (int32_t)h_state[15];
    acc >>= FRAC_BITS;
    r[8] = fp_sigmoid(fp_sat32(acc));
    1764:	0e 94 b5 00 	call	0x16a	; 0x16a <_ZL10fp_sigmoidi>
    1768:	c9 57       	subi	r28, 0x79	; 121
    176a:	de 4f       	sbci	r29, 0xFE	; 254
    176c:	99 83       	std	Y+1, r25	; 0x01
    176e:	88 83       	st	Y, r24
    1770:	c7 58       	subi	r28, 0x87	; 135
    1772:	d1 40       	sbci	r29, 0x01	; 1
    acc += (int32_t)W_ir[9][61] * (int32_t)x[61];
    acc += (int32_t)W_ir[9][62] * (int32_t)x[62];
    acc += (int32_t)W_ir[9][63] * (int32_t)x[63];
    acc >>= FRAC_BITS;
    acc += (int32_t)b_hr[9];
    acc += (int32_t)W_hr[9][0] * (int32_t)h_state[0];
    1774:	2b 85       	ldd	r18, Y+11	; 0x0b
    1776:	3c 85       	ldd	r19, Y+12	; 0x0c
    1778:	a5 ec       	ldi	r26, 0xC5	; 197
    177a:	bf ef       	ldi	r27, 0xFF	; 255
    177c:	0e 94 ab 32 	call	0x6556	; 0x6556 <__mulhisi3>
    1780:	2b 01       	movw	r4, r22
    1782:	3c 01       	movw	r6, r24
    1784:	5a e5       	ldi	r21, 0x5A	; 90
    1786:	45 1a       	sub	r4, r21
    1788:	51 08       	sbc	r5, r1
    178a:	61 08       	sbc	r6, r1
    178c:	71 08       	sbc	r7, r1
    acc += (int32_t)W_hr[9][1] * (int32_t)h_state[1];
    178e:	2f 81       	ldd	r18, Y+7	; 0x07
    1790:	38 85       	ldd	r19, Y+8	; 0x08
    1792:	a2 ec       	ldi	r26, 0xC2	; 194
    1794:	bf ef       	ldi	r27, 0xFF	; 255
    1796:	0e 94 ab 32 	call	0x6556	; 0x6556 <__mulhisi3>
    179a:	46 0e       	add	r4, r22
    179c:	57 1e       	adc	r5, r23
    179e:	68 1e       	adc	r6, r24
    17a0:	79 1e       	adc	r7, r25
    acc += (int32_t)W_hr[9][2] * (int32_t)h_state[2];
    17a2:	6f 96       	adiw	r28, 0x1f	; 31
    17a4:	8c ad       	ldd	r24, Y+60	; 0x3c
    17a6:	9d ad       	ldd	r25, Y+61	; 0x3d
    17a8:	ae ad       	ldd	r26, Y+62	; 0x3e
    17aa:	bf ad       	ldd	r27, Y+63	; 0x3f
    17ac:	6f 97       	sbiw	r28, 0x1f	; 31
    17ae:	48 0e       	add	r4, r24
    17b0:	59 1e       	adc	r5, r25
    17b2:	6a 1e       	adc	r6, r26
    17b4:	7b 1e       	adc	r7, r27
    acc += (int32_t)W_hr[9][3] * (int32_t)h_state[3];
    17b6:	2e e2       	ldi	r18, 0x2E	; 46
    17b8:	30 e0       	ldi	r19, 0x00	; 0
    17ba:	d1 01       	movw	r26, r2
    17bc:	0e 94 c2 32 	call	0x6584	; 0x6584 <__usmulhisi3>
    17c0:	c5 5f       	subi	r28, 0xF5	; 245
    17c2:	de 4f       	sbci	r29, 0xFE	; 254
    17c4:	68 83       	st	Y, r22
    17c6:	79 83       	std	Y+1, r23	; 0x01
    17c8:	8a 83       	std	Y+2, r24	; 0x02
    17ca:	9b 83       	std	Y+3, r25	; 0x03
    17cc:	cb 50       	subi	r28, 0x0B	; 11
    17ce:	d1 40       	sbci	r29, 0x01	; 1
    17d0:	46 0e       	add	r4, r22
    17d2:	57 1e       	adc	r5, r23
    17d4:	68 1e       	adc	r6, r24
    17d6:	79 1e       	adc	r7, r25
    acc += (int32_t)W_hr[9][4] * (int32_t)h_state[4];
    17d8:	2a e0       	ldi	r18, 0x0A	; 10
    17da:	30 e0       	ldi	r19, 0x00	; 0
    17dc:	ad 81       	ldd	r26, Y+5	; 0x05
    17de:	be 81       	ldd	r27, Y+6	; 0x06
    17e0:	0e 94 c2 32 	call	0x6584	; 0x6584 <__usmulhisi3>
    17e4:	46 0e       	add	r4, r22
    17e6:	57 1e       	adc	r5, r23
    17e8:	68 1e       	adc	r6, r24
    17ea:	79 1e       	adc	r7, r25
    acc += (int32_t)W_hr[9][5] * (int32_t)h_state[5];
    17ec:	29 e0       	ldi	r18, 0x09	; 9
    17ee:	30 e0       	ldi	r19, 0x00	; 0
    17f0:	ad 85       	ldd	r26, Y+13	; 0x0d
    17f2:	be 85       	ldd	r27, Y+14	; 0x0e
    17f4:	0e 94 c2 32 	call	0x6584	; 0x6584 <__usmulhisi3>
    17f8:	46 0e       	add	r4, r22
    17fa:	57 1e       	adc	r5, r23
    17fc:	68 1e       	adc	r6, r24
    17fe:	79 1e       	adc	r7, r25
    acc += (int32_t)W_hr[9][6] * (int32_t)h_state[6];
    1800:	2b e1       	ldi	r18, 0x1B	; 27
    1802:	30 e0       	ldi	r19, 0x00	; 0
    1804:	c9 56       	subi	r28, 0x69	; 105
    1806:	de 4f       	sbci	r29, 0xFE	; 254
    1808:	a8 81       	ld	r26, Y
    180a:	b9 81       	ldd	r27, Y+1	; 0x01
    180c:	c7 59       	subi	r28, 0x97	; 151
    180e:	d1 40       	sbci	r29, 0x01	; 1
    1810:	0e 94 c2 32 	call	0x6584	; 0x6584 <__usmulhisi3>
    1814:	46 0e       	add	r4, r22
    1816:	57 1e       	adc	r5, r23
    1818:	68 1e       	adc	r6, r24
    181a:	79 1e       	adc	r7, r25
    acc += (int32_t)W_hr[9][7] * (int32_t)h_state[7];
    181c:	29 89       	ldd	r18, Y+17	; 0x11
    181e:	3a 89       	ldd	r19, Y+18	; 0x12
    1820:	a5 ef       	ldi	r26, 0xF5	; 245
    1822:	bf ef       	ldi	r27, 0xFF	; 255
    1824:	0e 94 ab 32 	call	0x6556	; 0x6556 <__mulhisi3>
    1828:	46 0e       	add	r4, r22
    182a:	57 1e       	adc	r5, r23
    182c:	68 1e       	adc	r6, r24
    182e:	79 1e       	adc	r7, r25
    acc += (int32_t)W_hr[9][8] * (int32_t)h_state[8];
    1830:	2f 89       	ldd	r18, Y+23	; 0x17
    1832:	38 8d       	ldd	r19, Y+24	; 0x18
    1834:	af ec       	ldi	r26, 0xCF	; 207
    1836:	bf ef       	ldi	r27, 0xFF	; 255
    1838:	0e 94 ab 32 	call	0x6556	; 0x6556 <__mulhisi3>
    183c:	46 0e       	add	r4, r22
    183e:	57 1e       	adc	r5, r23
    1840:	68 1e       	adc	r6, r24
    1842:	79 1e       	adc	r7, r25
    acc += (int32_t)W_hr[9][9] * (int32_t)h_state[9];
    1844:	29 85       	ldd	r18, Y+9	; 0x09
    1846:	3a 85       	ldd	r19, Y+10	; 0x0a
    1848:	a3 ec       	ldi	r26, 0xC3	; 195
    184a:	bf ef       	ldi	r27, 0xFF	; 255
    184c:	0e 94 ab 32 	call	0x6556	; 0x6556 <__mulhisi3>
    1850:	46 0e       	add	r4, r22
    1852:	57 1e       	adc	r5, r23
    1854:	68 1e       	adc	r6, r24
    1856:	79 1e       	adc	r7, r25
    acc += (int32_t)W_hr[9][10] * (int32_t)h_state[10];
    1858:	2f 85       	ldd	r18, Y+15	; 0x0f
    185a:	38 89       	ldd	r19, Y+16	; 0x10
    185c:	aa ee       	ldi	r26, 0xEA	; 234
    185e:	bf ef       	ldi	r27, 0xFF	; 255
    1860:	0e 94 ab 32 	call	0x6556	; 0x6556 <__mulhisi3>
    1864:	46 0e       	add	r4, r22
    1866:	57 1e       	adc	r5, r23
    1868:	68 1e       	adc	r6, r24
    186a:	79 1e       	adc	r7, r25
    acc += (int32_t)W_hr[9][11] * (int32_t)h_state[11];
    186c:	27 e2       	ldi	r18, 0x27	; 39
    186e:	30 e0       	ldi	r19, 0x00	; 0
    1870:	a9 8d       	ldd	r26, Y+25	; 0x19
    1872:	ba 8d       	ldd	r27, Y+26	; 0x1a
    1874:	0e 94 c2 32 	call	0x6584	; 0x6584 <__usmulhisi3>
    1878:	46 0e       	add	r4, r22
    187a:	57 1e       	adc	r5, r23
    187c:	68 1e       	adc	r6, r24
    187e:	79 1e       	adc	r7, r25
    acc += (int32_t)W_hr[9][12] * (int32_t)h_state[12];
    1880:	2f e0       	ldi	r18, 0x0F	; 15
    1882:	30 e0       	ldi	r19, 0x00	; 0
    1884:	d8 01       	movw	r26, r16
    1886:	0e 94 c2 32 	call	0x6584	; 0x6584 <__usmulhisi3>
    188a:	46 0e       	add	r4, r22
    188c:	57 1e       	adc	r5, r23
    188e:	68 1e       	adc	r6, r24
    1890:	79 1e       	adc	r7, r25
    acc += (int32_t)W_hr[9][13] * (int32_t)h_state[13];
    1892:	2a e2       	ldi	r18, 0x2A	; 42
    1894:	30 e0       	ldi	r19, 0x00	; 0
    1896:	ab 8d       	ldd	r26, Y+27	; 0x1b
    1898:	bc 8d       	ldd	r27, Y+28	; 0x1c
    189a:	0e 94 c2 32 	call	0x6584	; 0x6584 <__usmulhisi3>
    189e:	6f 96       	adiw	r28, 0x1f	; 31
    18a0:	6c af       	std	Y+60, r22	; 0x3c
    18a2:	7d af       	std	Y+61, r23	; 0x3d
    18a4:	8e af       	std	Y+62, r24	; 0x3e
    18a6:	9f af       	std	Y+63, r25	; 0x3f
    18a8:	6f 97       	sbiw	r28, 0x1f	; 31
    18aa:	46 0e       	add	r4, r22
    18ac:	57 1e       	adc	r5, r23
    18ae:	68 1e       	adc	r6, r24
    18b0:	79 1e       	adc	r7, r25
    acc += (int32_t)W_hr[9][14] * (int32_t)h_state[14];
    18b2:	26 e3       	ldi	r18, 0x36	; 54
    18b4:	30 e0       	ldi	r19, 0x00	; 0
    18b6:	ad 8d       	ldd	r26, Y+29	; 0x1d
    18b8:	be 8d       	ldd	r27, Y+30	; 0x1e
    18ba:	0e 94 c2 32 	call	0x6584	; 0x6584 <__usmulhisi3>
    18be:	46 0e       	add	r4, r22
    18c0:	57 1e       	adc	r5, r23
    18c2:	68 1e       	adc	r6, r24
    18c4:	79 1e       	adc	r7, r25
    acc += (int32_t)W_hr[9][15] * (int32_t)h_state[15];
    18c6:	2b 89       	ldd	r18, Y+19	; 0x13
    18c8:	3c 89       	ldd	r19, Y+20	; 0x14
    18ca:	ab ec       	ldi	r26, 0xCB	; 203
    18cc:	bf ef       	ldi	r27, 0xFF	; 255
    18ce:	0e 94 ab 32 	call	0x6556	; 0x6556 <__mulhisi3>
    18d2:	dc 01       	movw	r26, r24
    18d4:	cb 01       	movw	r24, r22
    18d6:	84 0d       	add	r24, r4
    18d8:	95 1d       	adc	r25, r5
    18da:	a6 1d       	adc	r26, r6
    18dc:	b7 1d       	adc	r27, r7
    acc >>= FRAC_BITS;
    18de:	56 e0       	ldi	r21, 0x06	; 6
    18e0:	b5 95       	asr	r27
    18e2:	a7 95       	ror	r26
    18e4:	97 95       	ror	r25
    18e6:	87 95       	ror	r24
    18e8:	5a 95       	dec	r21
    18ea:	d1 f7       	brne	.-12     	; 0x18e0 <__LOCK_REGION_LENGTH__+0x14e0>
static inline int16_t fp_mul(int16_t a, int16_t b) {
    return (int16_t)(((int32_t)a * (int32_t)b) >> FRAC_BITS);
}

static inline int16_t fp_sat32(int32_t v) {
    if (v > FP_MAX) return FP_MAX;
    18ec:	81 15       	cp	r24, r1
    18ee:	e0 e8       	ldi	r30, 0x80	; 128
    18f0:	9e 07       	cpc	r25, r30
    18f2:	a1 05       	cpc	r26, r1
    18f4:	b1 05       	cpc	r27, r1
    18f6:	14 f0       	brlt	.+4      	; 0x18fc <__LOCK_REGION_LENGTH__+0x14fc>
    18f8:	0c 94 ca 31 	jmp	0x6394	; 0x6394 <__stack+0x4195>
    if (v < FP_MIN) return FP_MIN;
    18fc:	81 15       	cp	r24, r1
    18fe:	f0 e8       	ldi	r31, 0x80	; 128
    1900:	9f 07       	cpc	r25, r31
    1902:	ff ef       	ldi	r31, 0xFF	; 255
    1904:	af 07       	cpc	r26, r31
    1906:	bf 07       	cpc	r27, r31
    1908:	14 f4       	brge	.+4      	; 0x190e <__LOCK_REGION_LENGTH__+0x150e>
    190a:	0c 94 ce 31 	jmp	0x639c	; 0x639c <__stack+0x419d>
    acc += (int32_t)W_hr[9][12] * (int32_t)h_state[12];
    acc += (int32_t)W_hr[9][13] * (int32_t)h_state[13];
    acc += (int32_t)W_hr[9][14] * (int32_t)h_state[14];
    acc += (int32_t)W_hr[9][15] * (int32_t)h_state[15];
    acc >>= FRAC_BITS;
    r[9] = fp_sigmoid(fp_sat32(acc));
    190e:	0e 94 b5 00 	call	0x16a	; 0x16a <_ZL10fp_sigmoidi>
    1912:	c7 57       	subi	r28, 0x77	; 119
    1914:	de 4f       	sbci	r29, 0xFE	; 254
    1916:	99 83       	std	Y+1, r25	; 0x01
    1918:	88 83       	st	Y, r24
    191a:	c9 58       	subi	r28, 0x89	; 137
    191c:	d1 40       	sbci	r29, 0x01	; 1
    acc += (int32_t)W_ir[10][61] * (int32_t)x[61];
    acc += (int32_t)W_ir[10][62] * (int32_t)x[62];
    acc += (int32_t)W_ir[10][63] * (int32_t)x[63];
    acc >>= FRAC_BITS;
    acc += (int32_t)b_hr[10];
    acc += (int32_t)W_hr[10][0] * (int32_t)h_state[0];
    191e:	2c e3       	ldi	r18, 0x3C	; 60
    1920:	c2 0e       	add	r12, r18
    1922:	d1 1c       	adc	r13, r1
    1924:	e1 1c       	adc	r14, r1
    1926:	f1 1c       	adc	r15, r1
    acc += (int32_t)W_hr[10][1] * (int32_t)h_state[1];
    1928:	2f 81       	ldd	r18, Y+7	; 0x07
    192a:	38 85       	ldd	r19, Y+8	; 0x08
    192c:	af ed       	ldi	r26, 0xDF	; 223
    192e:	bf ef       	ldi	r27, 0xFF	; 255
    1930:	0e 94 ab 32 	call	0x6556	; 0x6556 <__mulhisi3>
    1934:	c6 0e       	add	r12, r22
    1936:	d7 1e       	adc	r13, r23
    1938:	e8 1e       	adc	r14, r24
    193a:	f9 1e       	adc	r15, r25
    acc += (int32_t)W_hr[10][2] * (int32_t)h_state[2];
    193c:	2b e0       	ldi	r18, 0x0B	; 11
    193e:	30 e0       	ldi	r19, 0x00	; 0
    1940:	ad 89       	ldd	r26, Y+21	; 0x15
    1942:	be 89       	ldd	r27, Y+22	; 0x16
    1944:	0e 94 c2 32 	call	0x6584	; 0x6584 <__usmulhisi3>
    1948:	c6 0e       	add	r12, r22
    194a:	d7 1e       	adc	r13, r23
    194c:	e8 1e       	adc	r14, r24
    194e:	f9 1e       	adc	r15, r25
    acc += (int32_t)W_hr[10][3] * (int32_t)h_state[3];
    1950:	23 e0       	ldi	r18, 0x03	; 3
    1952:	30 e0       	ldi	r19, 0x00	; 0
    1954:	d1 01       	movw	r26, r2
    1956:	0e 94 c2 32 	call	0x6584	; 0x6584 <__usmulhisi3>
    195a:	c6 0e       	add	r12, r22
    195c:	d7 1e       	adc	r13, r23
    195e:	e8 1e       	adc	r14, r24
    1960:	f9 1e       	adc	r15, r25
    acc += (int32_t)W_hr[10][4] * (int32_t)h_state[4];
    1962:	2d 81       	ldd	r18, Y+5	; 0x05
    1964:	3e 81       	ldd	r19, Y+6	; 0x06
    1966:	a3 ef       	ldi	r26, 0xF3	; 243
    1968:	bf ef       	ldi	r27, 0xFF	; 255
    196a:	0e 94 ab 32 	call	0x6556	; 0x6556 <__mulhisi3>
    196e:	c6 0e       	add	r12, r22
    1970:	d7 1e       	adc	r13, r23
    1972:	e8 1e       	adc	r14, r24
    1974:	f9 1e       	adc	r15, r25
    acc += (int32_t)W_hr[10][5] * (int32_t)h_state[5];
    1976:	2d 85       	ldd	r18, Y+13	; 0x0d
    1978:	3e 85       	ldd	r19, Y+14	; 0x0e
    197a:	a8 ee       	ldi	r26, 0xE8	; 232
    197c:	bf ef       	ldi	r27, 0xFF	; 255
    197e:	0e 94 ab 32 	call	0x6556	; 0x6556 <__mulhisi3>
    1982:	c6 0e       	add	r12, r22
    1984:	d7 1e       	adc	r13, r23
    1986:	e8 1e       	adc	r14, r24
    1988:	f9 1e       	adc	r15, r25
    acc += (int32_t)W_hr[10][6] * (int32_t)h_state[6];
    198a:	c9 56       	subi	r28, 0x69	; 105
    198c:	de 4f       	sbci	r29, 0xFE	; 254
    198e:	28 81       	ld	r18, Y
    1990:	39 81       	ldd	r19, Y+1	; 0x01
    1992:	c7 59       	subi	r28, 0x97	; 151
    1994:	d1 40       	sbci	r29, 0x01	; 1
    1996:	ab ee       	ldi	r26, 0xEB	; 235
    1998:	bf ef       	ldi	r27, 0xFF	; 255
    199a:	0e 94 ab 32 	call	0x6556	; 0x6556 <__mulhisi3>
    199e:	c6 0e       	add	r12, r22
    19a0:	d7 1e       	adc	r13, r23
    19a2:	e8 1e       	adc	r14, r24
    19a4:	f9 1e       	adc	r15, r25
    acc += (int32_t)W_hr[10][7] * (int32_t)h_state[7];
    19a6:	29 89       	ldd	r18, Y+17	; 0x11
    19a8:	3a 89       	ldd	r19, Y+18	; 0x12
    19aa:	0e 94 ab 32 	call	0x6556	; 0x6556 <__mulhisi3>
    19ae:	c6 0e       	add	r12, r22
    19b0:	d7 1e       	adc	r13, r23
    19b2:	e8 1e       	adc	r14, r24
    19b4:	f9 1e       	adc	r15, r25
    acc += (int32_t)W_hr[10][8] * (int32_t)h_state[8];
    19b6:	8c 0c       	add	r8, r12
    19b8:	9d 1c       	adc	r9, r13
    19ba:	ae 1c       	adc	r10, r14
    19bc:	bf 1c       	adc	r11, r15
    acc += (int32_t)W_hr[10][9] * (int32_t)h_state[9];
    19be:	8f 8d       	ldd	r24, Y+31	; 0x1f
    19c0:	98 a1       	ldd	r25, Y+32	; 0x20
    19c2:	a9 a1       	ldd	r26, Y+33	; 0x21
    19c4:	ba a1       	ldd	r27, Y+34	; 0x22
    19c6:	88 0e       	add	r8, r24
    19c8:	99 1e       	adc	r9, r25
    19ca:	aa 1e       	adc	r10, r26
    19cc:	bb 1e       	adc	r11, r27
    acc += (int32_t)W_hr[10][10] * (int32_t)h_state[10];
    19ce:	2f 85       	ldd	r18, Y+15	; 0x0f
    19d0:	38 89       	ldd	r19, Y+16	; 0x10
    19d2:	af ec       	ldi	r26, 0xCF	; 207
    19d4:	bf ef       	ldi	r27, 0xFF	; 255
    19d6:	0e 94 ab 32 	call	0x6556	; 0x6556 <__mulhisi3>
    19da:	86 0e       	add	r8, r22
    19dc:	97 1e       	adc	r9, r23
    19de:	a8 1e       	adc	r10, r24
    19e0:	b9 1e       	adc	r11, r25
    acc += (int32_t)W_hr[10][11] * (int32_t)h_state[11];
    19e2:	2f a9       	ldd	r18, Y+55	; 0x37
    19e4:	38 ad       	ldd	r19, Y+56	; 0x38
    19e6:	49 ad       	ldd	r20, Y+57	; 0x39
    19e8:	5a ad       	ldd	r21, Y+58	; 0x3a
    19ea:	82 0e       	add	r8, r18
    19ec:	93 1e       	adc	r9, r19
    19ee:	a4 1e       	adc	r10, r20
    19f0:	b5 1e       	adc	r11, r21
    acc += (int32_t)W_hr[10][12] * (int32_t)h_state[12];
    19f2:	24 e3       	ldi	r18, 0x34	; 52
    19f4:	30 e0       	ldi	r19, 0x00	; 0
    19f6:	d8 01       	movw	r26, r16
    19f8:	0e 94 c2 32 	call	0x6584	; 0x6584 <__usmulhisi3>
    19fc:	86 0e       	add	r8, r22
    19fe:	97 1e       	adc	r9, r23
    1a00:	a8 1e       	adc	r10, r24
    1a02:	b9 1e       	adc	r11, r25
    acc += (int32_t)W_hr[10][13] * (int32_t)h_state[13];
    1a04:	2b 8d       	ldd	r18, Y+27	; 0x1b
    1a06:	3c 8d       	ldd	r19, Y+28	; 0x1c
    1a08:	ad ee       	ldi	r26, 0xED	; 237
    1a0a:	bf ef       	ldi	r27, 0xFF	; 255
    1a0c:	0e 94 ab 32 	call	0x6556	; 0x6556 <__mulhisi3>
    1a10:	6b 01       	movw	r12, r22
    1a12:	7c 01       	movw	r14, r24
    1a14:	8c 0c       	add	r8, r12
    1a16:	9d 1c       	adc	r9, r13
    1a18:	ae 1c       	adc	r10, r14
    1a1a:	bf 1c       	adc	r11, r15
    acc += (int32_t)W_hr[10][14] * (int32_t)h_state[14];
    1a1c:	2d e1       	ldi	r18, 0x1D	; 29
    1a1e:	30 e0       	ldi	r19, 0x00	; 0
    1a20:	ad 8d       	ldd	r26, Y+29	; 0x1d
    1a22:	be 8d       	ldd	r27, Y+30	; 0x1e
    1a24:	0e 94 c2 32 	call	0x6584	; 0x6584 <__usmulhisi3>
    1a28:	86 0e       	add	r8, r22
    1a2a:	97 1e       	adc	r9, r23
    1a2c:	a8 1e       	adc	r10, r24
    1a2e:	b9 1e       	adc	r11, r25
    acc += (int32_t)W_hr[10][15] * (int32_t)h_state[15];
    1a30:	29 e2       	ldi	r18, 0x29	; 41
    1a32:	30 e0       	ldi	r19, 0x00	; 0
    1a34:	ab 89       	ldd	r26, Y+19	; 0x13
    1a36:	bc 89       	ldd	r27, Y+20	; 0x14
    1a38:	0e 94 c2 32 	call	0x6584	; 0x6584 <__usmulhisi3>
    1a3c:	c1 5f       	subi	r28, 0xF1	; 241
    1a3e:	de 4f       	sbci	r29, 0xFE	; 254
    1a40:	68 83       	st	Y, r22
    1a42:	79 83       	std	Y+1, r23	; 0x01
    1a44:	8a 83       	std	Y+2, r24	; 0x02
    1a46:	9b 83       	std	Y+3, r25	; 0x03
    1a48:	cf 50       	subi	r28, 0x0F	; 15
    1a4a:	d1 40       	sbci	r29, 0x01	; 1
    1a4c:	dc 01       	movw	r26, r24
    1a4e:	cb 01       	movw	r24, r22
    1a50:	88 0d       	add	r24, r8
    1a52:	99 1d       	adc	r25, r9
    1a54:	aa 1d       	adc	r26, r10
    1a56:	bb 1d       	adc	r27, r11
    acc >>= FRAC_BITS;
    1a58:	46 e0       	ldi	r20, 0x06	; 6
    1a5a:	b5 95       	asr	r27
    1a5c:	a7 95       	ror	r26
    1a5e:	97 95       	ror	r25
    1a60:	87 95       	ror	r24
    1a62:	4a 95       	dec	r20
    1a64:	d1 f7       	brne	.-12     	; 0x1a5a <__LOCK_REGION_LENGTH__+0x165a>
static inline int16_t fp_mul(int16_t a, int16_t b) {
    return (int16_t)(((int32_t)a * (int32_t)b) >> FRAC_BITS);
}

static inline int16_t fp_sat32(int32_t v) {
    if (v > FP_MAX) return FP_MAX;
    1a66:	81 15       	cp	r24, r1
    1a68:	30 e8       	ldi	r19, 0x80	; 128
    1a6a:	93 07       	cpc	r25, r19
    1a6c:	a1 05       	cpc	r26, r1
    1a6e:	b1 05       	cpc	r27, r1
    1a70:	14 f0       	brlt	.+4      	; 0x1a76 <__LOCK_REGION_LENGTH__+0x1676>
    1a72:	0c 94 d2 31 	jmp	0x63a4	; 0x63a4 <__stack+0x41a5>
    if (v < FP_MIN) return FP_MIN;
    1a76:	81 15       	cp	r24, r1
    1a78:	40 e8       	ldi	r20, 0x80	; 128
    1a7a:	94 07       	cpc	r25, r20
    1a7c:	4f ef       	ldi	r20, 0xFF	; 255
    1a7e:	a4 07       	cpc	r26, r20
    1a80:	b4 07       	cpc	r27, r20
    1a82:	14 f4       	brge	.+4      	; 0x1a88 <__LOCK_REGION_LENGTH__+0x1688>
    1a84:	0c 94 d6 31 	jmp	0x63ac	; 0x63ac <__stack+0x41ad>
    acc += (int32_t)W_hr[10][12] * (int32_t)h_state[12];
    acc += (int32_t)W_hr[10][13] * (int32_t)h_state[13];
    acc += (int32_t)W_hr[10][14] * (int32_t)h_state[14];
    acc += (int32_t)W_hr[10][15] * (int32_t)h_state[15];
    acc >>= FRAC_BITS;
    r[10] = fp_sigmoid(fp_sat32(acc));
    1a88:	0e 94 b5 00 	call	0x16a	; 0x16a <_ZL10fp_sigmoidi>
    1a8c:	c5 57       	subi	r28, 0x75	; 117
    1a8e:	de 4f       	sbci	r29, 0xFE	; 254
    1a90:	99 83       	std	Y+1, r25	; 0x01
    1a92:	88 83       	st	Y, r24
    1a94:	cb 58       	subi	r28, 0x8B	; 139
    1a96:	d1 40       	sbci	r29, 0x01	; 1
    acc += (int32_t)W_ir[11][61] * (int32_t)x[61];
    acc += (int32_t)W_ir[11][62] * (int32_t)x[62];
    acc += (int32_t)W_ir[11][63] * (int32_t)x[63];
    acc >>= FRAC_BITS;
    acc += (int32_t)b_hr[11];
    acc += (int32_t)W_hr[11][0] * (int32_t)h_state[0];
    1a98:	28 e2       	ldi	r18, 0x28	; 40
    1a9a:	30 e0       	ldi	r19, 0x00	; 0
    1a9c:	ab 85       	ldd	r26, Y+11	; 0x0b
    1a9e:	bc 85       	ldd	r27, Y+12	; 0x0c
    1aa0:	0e 94 c2 32 	call	0x6584	; 0x6584 <__usmulhisi3>
    1aa4:	69 83       	std	Y+1, r22	; 0x01
    1aa6:	7a 83       	std	Y+2, r23	; 0x02
    1aa8:	8b 83       	std	Y+3, r24	; 0x03
    1aaa:	9c 83       	std	Y+4, r25	; 0x04
    1aac:	4b 01       	movw	r8, r22
    1aae:	5c 01       	movw	r10, r24
    1ab0:	5a e1       	ldi	r21, 0x1A	; 26
    1ab2:	85 0e       	add	r8, r21
    1ab4:	91 1c       	adc	r9, r1
    1ab6:	a1 1c       	adc	r10, r1
    1ab8:	b1 1c       	adc	r11, r1
    acc += (int32_t)W_hr[11][1] * (int32_t)h_state[1];
    1aba:	2f 81       	ldd	r18, Y+7	; 0x07
    1abc:	38 85       	ldd	r19, Y+8	; 0x08
    1abe:	ae ed       	ldi	r26, 0xDE	; 222
    1ac0:	bf ef       	ldi	r27, 0xFF	; 255
    1ac2:	0e 94 ab 32 	call	0x6556	; 0x6556 <__mulhisi3>
    1ac6:	86 0e       	add	r8, r22
    1ac8:	97 1e       	adc	r9, r23
    1aca:	a8 1e       	adc	r10, r24
    1acc:	b9 1e       	adc	r11, r25
    acc += (int32_t)W_hr[11][2] * (int32_t)h_state[2];
    1ace:	2d 89       	ldd	r18, Y+21	; 0x15
    1ad0:	3e 89       	ldd	r19, Y+22	; 0x16
    1ad2:	a3 ed       	ldi	r26, 0xD3	; 211
    1ad4:	bf ef       	ldi	r27, 0xFF	; 255
    1ad6:	0e 94 ab 32 	call	0x6556	; 0x6556 <__mulhisi3>
    1ada:	86 0e       	add	r8, r22
    1adc:	97 1e       	adc	r9, r23
    1ade:	a8 1e       	adc	r10, r24
    1ae0:	b9 1e       	adc	r11, r25
    acc += (int32_t)W_hr[11][3] * (int32_t)h_state[3];
    1ae2:	91 01       	movw	r18, r2
    1ae4:	a9 ed       	ldi	r26, 0xD9	; 217
    1ae6:	bf ef       	ldi	r27, 0xFF	; 255
    1ae8:	0e 94 ab 32 	call	0x6556	; 0x6556 <__mulhisi3>
    1aec:	86 0e       	add	r8, r22
    1aee:	97 1e       	adc	r9, r23
    1af0:	a8 1e       	adc	r10, r24
    1af2:	b9 1e       	adc	r11, r25
    acc += (int32_t)W_hr[11][4] * (int32_t)h_state[4];
    1af4:	23 96       	adiw	r28, 0x03	; 3
    1af6:	8c ad       	ldd	r24, Y+60	; 0x3c
    1af8:	9d ad       	ldd	r25, Y+61	; 0x3d
    1afa:	ae ad       	ldd	r26, Y+62	; 0x3e
    1afc:	bf ad       	ldd	r27, Y+63	; 0x3f
    1afe:	23 97       	sbiw	r28, 0x03	; 3
    1b00:	88 0e       	add	r8, r24
    1b02:	99 1e       	adc	r9, r25
    1b04:	aa 1e       	adc	r10, r26
    1b06:	bb 1e       	adc	r11, r27
    acc += (int32_t)W_hr[11][5] * (int32_t)h_state[5];
    1b08:	21 e2       	ldi	r18, 0x21	; 33
    1b0a:	30 e0       	ldi	r19, 0x00	; 0
    1b0c:	ad 85       	ldd	r26, Y+13	; 0x0d
    1b0e:	be 85       	ldd	r27, Y+14	; 0x0e
    1b10:	0e 94 c2 32 	call	0x6584	; 0x6584 <__usmulhisi3>
    1b14:	86 0e       	add	r8, r22
    1b16:	97 1e       	adc	r9, r23
    1b18:	a8 1e       	adc	r10, r24
    1b1a:	b9 1e       	adc	r11, r25
    acc += (int32_t)W_hr[11][6] * (int32_t)h_state[6];
    1b1c:	24 e1       	ldi	r18, 0x14	; 20
    1b1e:	30 e0       	ldi	r19, 0x00	; 0
    1b20:	c9 56       	subi	r28, 0x69	; 105
    1b22:	de 4f       	sbci	r29, 0xFE	; 254
    1b24:	a8 81       	ld	r26, Y
    1b26:	b9 81       	ldd	r27, Y+1	; 0x01
    1b28:	c7 59       	subi	r28, 0x97	; 151
    1b2a:	d1 40       	sbci	r29, 0x01	; 1
    1b2c:	0e 94 c2 32 	call	0x6584	; 0x6584 <__usmulhisi3>
    1b30:	86 0e       	add	r8, r22
    1b32:	97 1e       	adc	r9, r23
    1b34:	a8 1e       	adc	r10, r24
    1b36:	b9 1e       	adc	r11, r25
    acc += (int32_t)W_hr[11][7] * (int32_t)h_state[7];
    1b38:	29 89       	ldd	r18, Y+17	; 0x11
    1b3a:	3a 89       	ldd	r19, Y+18	; 0x12
    1b3c:	a7 ed       	ldi	r26, 0xD7	; 215
    1b3e:	bf ef       	ldi	r27, 0xFF	; 255
    1b40:	0e 94 ab 32 	call	0x6556	; 0x6556 <__mulhisi3>
    1b44:	cd 5e       	subi	r28, 0xED	; 237
    1b46:	de 4f       	sbci	r29, 0xFE	; 254
    1b48:	68 83       	st	Y, r22
    1b4a:	79 83       	std	Y+1, r23	; 0x01
    1b4c:	8a 83       	std	Y+2, r24	; 0x02
    1b4e:	9b 83       	std	Y+3, r25	; 0x03
    1b50:	c3 51       	subi	r28, 0x13	; 19
    1b52:	d1 40       	sbci	r29, 0x01	; 1
    1b54:	86 0e       	add	r8, r22
    1b56:	97 1e       	adc	r9, r23
    1b58:	a8 1e       	adc	r10, r24
    1b5a:	b9 1e       	adc	r11, r25
    acc += (int32_t)W_hr[11][8] * (int32_t)h_state[8];
    1b5c:	23 e2       	ldi	r18, 0x23	; 35
    1b5e:	30 e0       	ldi	r19, 0x00	; 0
    1b60:	af 89       	ldd	r26, Y+23	; 0x17
    1b62:	b8 8d       	ldd	r27, Y+24	; 0x18
    1b64:	0e 94 c2 32 	call	0x6584	; 0x6584 <__usmulhisi3>
    1b68:	86 0e       	add	r8, r22
    1b6a:	97 1e       	adc	r9, r23
    1b6c:	a8 1e       	adc	r10, r24
    1b6e:	b9 1e       	adc	r11, r25
    1b70:	2f 8d       	ldd	r18, Y+31	; 0x1f
    1b72:	38 a1       	ldd	r19, Y+32	; 0x20
    1b74:	49 a1       	ldd	r20, Y+33	; 0x21
    1b76:	5a a1       	ldd	r21, Y+34	; 0x22
    1b78:	82 1a       	sub	r8, r18
    1b7a:	93 0a       	sbc	r9, r19
    1b7c:	a4 0a       	sbc	r10, r20
    1b7e:	b5 0a       	sbc	r11, r21
    acc += (int32_t)W_hr[11][9] * (int32_t)h_state[9];
    acc += (int32_t)W_hr[11][10] * (int32_t)h_state[10];
    1b80:	21 e2       	ldi	r18, 0x21	; 33
    1b82:	30 e0       	ldi	r19, 0x00	; 0
    1b84:	af 85       	ldd	r26, Y+15	; 0x0f
    1b86:	b8 89       	ldd	r27, Y+16	; 0x10
    1b88:	0e 94 c2 32 	call	0x6584	; 0x6584 <__usmulhisi3>
    1b8c:	86 0e       	add	r8, r22
    1b8e:	97 1e       	adc	r9, r23
    1b90:	a8 1e       	adc	r10, r24
    1b92:	b9 1e       	adc	r11, r25
    acc += (int32_t)W_hr[11][11] * (int32_t)h_state[11];
    1b94:	a9 8d       	ldd	r26, Y+25	; 0x19
    1b96:	ba 8d       	ldd	r27, Y+26	; 0x1a
    1b98:	0e 94 c2 32 	call	0x6584	; 0x6584 <__usmulhisi3>
    1b9c:	c9 5e       	subi	r28, 0xE9	; 233
    1b9e:	de 4f       	sbci	r29, 0xFE	; 254
    1ba0:	68 83       	st	Y, r22
    1ba2:	79 83       	std	Y+1, r23	; 0x01
    1ba4:	8a 83       	std	Y+2, r24	; 0x02
    1ba6:	9b 83       	std	Y+3, r25	; 0x03
    1ba8:	c7 51       	subi	r28, 0x17	; 23
    1baa:	d1 40       	sbci	r29, 0x01	; 1
    1bac:	86 0e       	add	r8, r22
    1bae:	97 1e       	adc	r9, r23
    1bb0:	a8 1e       	adc	r10, r24
    1bb2:	b9 1e       	adc	r11, r25
    acc += (int32_t)W_hr[11][12] * (int32_t)h_state[12];
    1bb4:	98 01       	movw	r18, r16
    1bb6:	a9 ef       	ldi	r26, 0xF9	; 249
    1bb8:	bf ef       	ldi	r27, 0xFF	; 255
    1bba:	0e 94 ab 32 	call	0x6556	; 0x6556 <__mulhisi3>
    1bbe:	86 0e       	add	r8, r22
    1bc0:	97 1e       	adc	r9, r23
    1bc2:	a8 1e       	adc	r10, r24
    1bc4:	b9 1e       	adc	r11, r25
    acc += (int32_t)W_hr[11][13] * (int32_t)h_state[13];
    1bc6:	26 e3       	ldi	r18, 0x36	; 54
    1bc8:	30 e0       	ldi	r19, 0x00	; 0
    1bca:	ab 8d       	ldd	r26, Y+27	; 0x1b
    1bcc:	bc 8d       	ldd	r27, Y+28	; 0x1c
    1bce:	0e 94 c2 32 	call	0x6584	; 0x6584 <__usmulhisi3>
    1bd2:	86 0e       	add	r8, r22
    1bd4:	97 1e       	adc	r9, r23
    1bd6:	a8 1e       	adc	r10, r24
    1bd8:	b9 1e       	adc	r11, r25
    acc += (int32_t)W_hr[11][14] * (int32_t)h_state[14];
    1bda:	8b a1       	ldd	r24, Y+35	; 0x23
    1bdc:	9c a1       	ldd	r25, Y+36	; 0x24
    1bde:	ad a1       	ldd	r26, Y+37	; 0x25
    1be0:	be a1       	ldd	r27, Y+38	; 0x26
    1be2:	23 e0       	ldi	r18, 0x03	; 3
    1be4:	88 0f       	add	r24, r24
    1be6:	99 1f       	adc	r25, r25
    1be8:	aa 1f       	adc	r26, r26
    1bea:	bb 1f       	adc	r27, r27
    1bec:	2a 95       	dec	r18
    1bee:	d1 f7       	brne	.-12     	; 0x1be4 <__LOCK_REGION_LENGTH__+0x17e4>
    1bf0:	88 0e       	add	r8, r24
    1bf2:	99 1e       	adc	r9, r25
    1bf4:	aa 1e       	adc	r10, r26
    1bf6:	bb 1e       	adc	r11, r27
    acc += (int32_t)W_hr[11][15] * (int32_t)h_state[15];
    1bf8:	21 e1       	ldi	r18, 0x11	; 17
    1bfa:	30 e0       	ldi	r19, 0x00	; 0
    1bfc:	ab 89       	ldd	r26, Y+19	; 0x13
    1bfe:	bc 89       	ldd	r27, Y+20	; 0x14
    1c00:	0e 94 c2 32 	call	0x6584	; 0x6584 <__usmulhisi3>
    1c04:	c1 55       	subi	r28, 0x51	; 81
    1c06:	df 4f       	sbci	r29, 0xFF	; 255
    1c08:	68 83       	st	Y, r22
    1c0a:	79 83       	std	Y+1, r23	; 0x01
    1c0c:	8a 83       	std	Y+2, r24	; 0x02
    1c0e:	9b 83       	std	Y+3, r25	; 0x03
    1c10:	cf 5a       	subi	r28, 0xAF	; 175
    1c12:	d0 40       	sbci	r29, 0x00	; 0
    1c14:	dc 01       	movw	r26, r24
    1c16:	cb 01       	movw	r24, r22
    1c18:	88 0d       	add	r24, r8
    1c1a:	99 1d       	adc	r25, r9
    1c1c:	aa 1d       	adc	r26, r10
    1c1e:	bb 1d       	adc	r27, r11
    acc >>= FRAC_BITS;
    1c20:	36 e0       	ldi	r19, 0x06	; 6
    1c22:	b5 95       	asr	r27
    1c24:	a7 95       	ror	r26
    1c26:	97 95       	ror	r25
    1c28:	87 95       	ror	r24
    1c2a:	3a 95       	dec	r19
    1c2c:	d1 f7       	brne	.-12     	; 0x1c22 <__LOCK_REGION_LENGTH__+0x1822>
static inline int16_t fp_mul(int16_t a, int16_t b) {
    return (int16_t)(((int32_t)a * (int32_t)b) >> FRAC_BITS);
}

static inline int16_t fp_sat32(int32_t v) {
    if (v > FP_MAX) return FP_MAX;
    1c2e:	81 15       	cp	r24, r1
    1c30:	30 e8       	ldi	r19, 0x80	; 128
    1c32:	93 07       	cpc	r25, r19
    1c34:	a1 05       	cpc	r26, r1
    1c36:	b1 05       	cpc	r27, r1
    1c38:	14 f0       	brlt	.+4      	; 0x1c3e <__LOCK_REGION_LENGTH__+0x183e>
    1c3a:	0c 94 da 31 	jmp	0x63b4	; 0x63b4 <__stack+0x41b5>
    if (v < FP_MIN) return FP_MIN;
    1c3e:	81 15       	cp	r24, r1
    1c40:	40 e8       	ldi	r20, 0x80	; 128
    1c42:	94 07       	cpc	r25, r20
    1c44:	4f ef       	ldi	r20, 0xFF	; 255
    1c46:	a4 07       	cpc	r26, r20
    1c48:	b4 07       	cpc	r27, r20
    1c4a:	14 f4       	brge	.+4      	; 0x1c50 <__LOCK_REGION_LENGTH__+0x1850>
    1c4c:	0c 94 de 31 	jmp	0x63bc	; 0x63bc <__stack+0x41bd>
    acc += (int32_t)W_hr[11][12] * (int32_t)h_state[12];
    acc += (int32_t)W_hr[11][13] * (int32_t)h_state[13];
    acc += (int32_t)W_hr[11][14] * (int32_t)h_state[14];
    acc += (int32_t)W_hr[11][15] * (int32_t)h_state[15];
    acc >>= FRAC_BITS;
    r[11] = fp_sigmoid(fp_sat32(acc));
    1c50:	0e 94 b5 00 	call	0x16a	; 0x16a <_ZL10fp_sigmoidi>
    1c54:	c3 57       	subi	r28, 0x73	; 115
    1c56:	de 4f       	sbci	r29, 0xFE	; 254
    1c58:	99 83       	std	Y+1, r25	; 0x01
    1c5a:	88 83       	st	Y, r24
    1c5c:	cd 58       	subi	r28, 0x8D	; 141
    1c5e:	d1 40       	sbci	r29, 0x01	; 1
    acc += (int32_t)W_ir[12][61] * (int32_t)x[61];
    acc += (int32_t)W_ir[12][62] * (int32_t)x[62];
    acc += (int32_t)W_ir[12][63] * (int32_t)x[63];
    acc >>= FRAC_BITS;
    acc += (int32_t)b_hr[12];
    acc += (int32_t)W_hr[12][0] * (int32_t)h_state[0];
    1c60:	8b a8       	ldd	r8, Y+51	; 0x33
    1c62:	9c a8       	ldd	r9, Y+52	; 0x34
    1c64:	ad a8       	ldd	r10, Y+53	; 0x35
    1c66:	be a8       	ldd	r11, Y+54	; 0x36
    1c68:	74 e0       	ldi	r23, 0x04	; 4
    1c6a:	88 0c       	add	r8, r8
    1c6c:	99 1c       	adc	r9, r9
    1c6e:	aa 1c       	adc	r10, r10
    1c70:	bb 1c       	adc	r11, r11
    1c72:	7a 95       	dec	r23
    1c74:	d1 f7       	brne	.-12     	; 0x1c6a <__LOCK_REGION_LENGTH__+0x186a>
    1c76:	55 e5       	ldi	r21, 0x55	; 85
    1c78:	85 1a       	sub	r8, r21
    1c7a:	91 08       	sbc	r9, r1
    1c7c:	a1 08       	sbc	r10, r1
    1c7e:	b1 08       	sbc	r11, r1
    acc += (int32_t)W_hr[12][1] * (int32_t)h_state[1];
    1c80:	a3 96       	adiw	r28, 0x23	; 35
    1c82:	8c ad       	ldd	r24, Y+60	; 0x3c
    1c84:	9d ad       	ldd	r25, Y+61	; 0x3d
    1c86:	ae ad       	ldd	r26, Y+62	; 0x3e
    1c88:	bf ad       	ldd	r27, Y+63	; 0x3f
    1c8a:	a3 97       	sbiw	r28, 0x23	; 35
    1c8c:	88 0e       	add	r8, r24
    1c8e:	99 1e       	adc	r9, r25
    1c90:	aa 1e       	adc	r10, r26
    1c92:	bb 1e       	adc	r11, r27
    acc += (int32_t)W_hr[12][2] * (int32_t)h_state[2];
    1c94:	8b a5       	ldd	r24, Y+43	; 0x2b
    1c96:	9c a5       	ldd	r25, Y+44	; 0x2c
    1c98:	ad a5       	ldd	r26, Y+45	; 0x2d
    1c9a:	be a5       	ldd	r27, Y+46	; 0x2e
    1c9c:	e4 e0       	ldi	r30, 0x04	; 4
    1c9e:	88 0f       	add	r24, r24
    1ca0:	99 1f       	adc	r25, r25
    1ca2:	aa 1f       	adc	r26, r26
    1ca4:	bb 1f       	adc	r27, r27
    1ca6:	ea 95       	dec	r30
    1ca8:	d1 f7       	brne	.-12     	; 0x1c9e <__LOCK_REGION_LENGTH__+0x189e>
    1caa:	88 0e       	add	r8, r24
    1cac:	99 1e       	adc	r9, r25
    1cae:	aa 1e       	adc	r10, r26
    1cb0:	bb 1e       	adc	r11, r27
    acc += (int32_t)W_hr[12][3] * (int32_t)h_state[3];
    1cb2:	91 01       	movw	r18, r2
    1cb4:	a3 ed       	ldi	r26, 0xD3	; 211
    1cb6:	bf ef       	ldi	r27, 0xFF	; 255
    1cb8:	0e 94 ab 32 	call	0x6556	; 0x6556 <__mulhisi3>
    1cbc:	86 0e       	add	r8, r22
    1cbe:	97 1e       	adc	r9, r23
    1cc0:	a8 1e       	adc	r10, r24
    1cc2:	b9 1e       	adc	r11, r25
    acc += (int32_t)W_hr[12][4] * (int32_t)h_state[4];
    1cc4:	2d 81       	ldd	r18, Y+5	; 0x05
    1cc6:	3e 81       	ldd	r19, Y+6	; 0x06
    1cc8:	a9 ec       	ldi	r26, 0xC9	; 201
    1cca:	bf ef       	ldi	r27, 0xFF	; 255
    1ccc:	0e 94 ab 32 	call	0x6556	; 0x6556 <__mulhisi3>
    1cd0:	86 0e       	add	r8, r22
    1cd2:	97 1e       	adc	r9, r23
    1cd4:	a8 1e       	adc	r10, r24
    1cd6:	b9 1e       	adc	r11, r25
    acc += (int32_t)W_hr[12][5] * (int32_t)h_state[5];
    1cd8:	2d 85       	ldd	r18, Y+13	; 0x0d
    1cda:	3e 85       	ldd	r19, Y+14	; 0x0e
    1cdc:	a9 ef       	ldi	r26, 0xF9	; 249
    1cde:	bf ef       	ldi	r27, 0xFF	; 255
    1ce0:	0e 94 ab 32 	call	0x6556	; 0x6556 <__mulhisi3>
    1ce4:	86 0e       	add	r8, r22
    1ce6:	97 1e       	adc	r9, r23
    1ce8:	a8 1e       	adc	r10, r24
    1cea:	b9 1e       	adc	r11, r25
    acc += (int32_t)W_hr[12][6] * (int32_t)h_state[6];
    1cec:	c9 56       	subi	r28, 0x69	; 105
    1cee:	de 4f       	sbci	r29, 0xFE	; 254
    1cf0:	28 81       	ld	r18, Y
    1cf2:	39 81       	ldd	r19, Y+1	; 0x01
    1cf4:	c7 59       	subi	r28, 0x97	; 151
    1cf6:	d1 40       	sbci	r29, 0x01	; 1
    1cf8:	a7 ee       	ldi	r26, 0xE7	; 231
    1cfa:	bf ef       	ldi	r27, 0xFF	; 255
    1cfc:	0e 94 ab 32 	call	0x6556	; 0x6556 <__mulhisi3>
    1d00:	86 0e       	add	r8, r22
    1d02:	97 1e       	adc	r9, r23
    1d04:	a8 1e       	adc	r10, r24
    1d06:	b9 1e       	adc	r11, r25
    acc += (int32_t)W_hr[12][7] * (int32_t)h_state[7];
    1d08:	29 89       	ldd	r18, Y+17	; 0x11
    1d0a:	3a 89       	ldd	r19, Y+18	; 0x12
    1d0c:	a3 ee       	ldi	r26, 0xE3	; 227
    1d0e:	bf ef       	ldi	r27, 0xFF	; 255
    1d10:	0e 94 ab 32 	call	0x6556	; 0x6556 <__mulhisi3>
    1d14:	c5 5e       	subi	r28, 0xE5	; 229
    1d16:	de 4f       	sbci	r29, 0xFE	; 254
    1d18:	68 83       	st	Y, r22
    1d1a:	79 83       	std	Y+1, r23	; 0x01
    1d1c:	8a 83       	std	Y+2, r24	; 0x02
    1d1e:	9b 83       	std	Y+3, r25	; 0x03
    1d20:	cb 51       	subi	r28, 0x1B	; 27
    1d22:	d1 40       	sbci	r29, 0x01	; 1
    1d24:	86 0e       	add	r8, r22
    1d26:	97 1e       	adc	r9, r23
    1d28:	a8 1e       	adc	r10, r24
    1d2a:	b9 1e       	adc	r11, r25
    acc += (int32_t)W_hr[12][8] * (int32_t)h_state[8];
    1d2c:	2f 89       	ldd	r18, Y+23	; 0x17
    1d2e:	38 8d       	ldd	r19, Y+24	; 0x18
    1d30:	a7 ec       	ldi	r26, 0xC7	; 199
    1d32:	bf ef       	ldi	r27, 0xFF	; 255
    1d34:	0e 94 ab 32 	call	0x6556	; 0x6556 <__mulhisi3>
    1d38:	cd 54       	subi	r28, 0x4D	; 77
    1d3a:	df 4f       	sbci	r29, 0xFF	; 255
    1d3c:	68 83       	st	Y, r22
    1d3e:	79 83       	std	Y+1, r23	; 0x01
    1d40:	8a 83       	std	Y+2, r24	; 0x02
    1d42:	9b 83       	std	Y+3, r25	; 0x03
    1d44:	c3 5b       	subi	r28, 0xB3	; 179
    1d46:	d0 40       	sbci	r29, 0x00	; 0
    1d48:	86 0e       	add	r8, r22
    1d4a:	97 1e       	adc	r9, r23
    1d4c:	a8 1e       	adc	r10, r24
    1d4e:	b9 1e       	adc	r11, r25
    acc += (int32_t)W_hr[12][9] * (int32_t)h_state[9];
    1d50:	2f 8d       	ldd	r18, Y+31	; 0x1f
    1d52:	38 a1       	ldd	r19, Y+32	; 0x20
    1d54:	49 a1       	ldd	r20, Y+33	; 0x21
    1d56:	5a a1       	ldd	r21, Y+34	; 0x22
    1d58:	82 0e       	add	r8, r18
    1d5a:	93 1e       	adc	r9, r19
    1d5c:	a4 1e       	adc	r10, r20
    1d5e:	b5 1e       	adc	r11, r21
    acc += (int32_t)W_hr[12][10] * (int32_t)h_state[10];
    1d60:	2f 85       	ldd	r18, Y+15	; 0x0f
    1d62:	38 89       	ldd	r19, Y+16	; 0x10
    1d64:	a8 ee       	ldi	r26, 0xE8	; 232
    1d66:	bf ef       	ldi	r27, 0xFF	; 255
    1d68:	0e 94 ab 32 	call	0x6556	; 0x6556 <__mulhisi3>
    1d6c:	c1 5e       	subi	r28, 0xE1	; 225
    1d6e:	de 4f       	sbci	r29, 0xFE	; 254
    1d70:	68 83       	st	Y, r22
    1d72:	79 83       	std	Y+1, r23	; 0x01
    1d74:	8a 83       	std	Y+2, r24	; 0x02
    1d76:	9b 83       	std	Y+3, r25	; 0x03
    1d78:	cf 51       	subi	r28, 0x1F	; 31
    1d7a:	d1 40       	sbci	r29, 0x01	; 1
    1d7c:	86 0e       	add	r8, r22
    1d7e:	97 1e       	adc	r9, r23
    1d80:	a8 1e       	adc	r10, r24
    1d82:	b9 1e       	adc	r11, r25
    acc += (int32_t)W_hr[12][11] * (int32_t)h_state[11];
    1d84:	8f a1       	ldd	r24, Y+39	; 0x27
    1d86:	98 a5       	ldd	r25, Y+40	; 0x28
    1d88:	a9 a5       	ldd	r26, Y+41	; 0x29
    1d8a:	ba a5       	ldd	r27, Y+42	; 0x2a
    1d8c:	88 0e       	add	r8, r24
    1d8e:	99 1e       	adc	r9, r25
    1d90:	aa 1e       	adc	r10, r26
    1d92:	bb 1e       	adc	r11, r27
    acc += (int32_t)W_hr[12][12] * (int32_t)h_state[12];
    1d94:	98 01       	movw	r18, r16
    1d96:	a7 ec       	ldi	r26, 0xC7	; 199
    1d98:	bf ef       	ldi	r27, 0xFF	; 255
    1d9a:	0e 94 ab 32 	call	0x6556	; 0x6556 <__mulhisi3>
    1d9e:	86 0e       	add	r8, r22
    1da0:	97 1e       	adc	r9, r23
    1da2:	a8 1e       	adc	r10, r24
    1da4:	b9 1e       	adc	r11, r25
    acc += (int32_t)W_hr[12][13] * (int32_t)h_state[13];
    1da6:	6f 96       	adiw	r28, 0x1f	; 31
    1da8:	2c ad       	ldd	r18, Y+60	; 0x3c
    1daa:	3d ad       	ldd	r19, Y+61	; 0x3d
    1dac:	4e ad       	ldd	r20, Y+62	; 0x3e
    1dae:	5f ad       	ldd	r21, Y+63	; 0x3f
    1db0:	6f 97       	sbiw	r28, 0x1f	; 31
    1db2:	82 0e       	add	r8, r18
    1db4:	93 1e       	adc	r9, r19
    1db6:	a4 1e       	adc	r10, r20
    1db8:	b5 1e       	adc	r11, r21
    acc += (int32_t)W_hr[12][14] * (int32_t)h_state[14];
    1dba:	2d 8d       	ldd	r18, Y+29	; 0x1d
    1dbc:	3e 8d       	ldd	r19, Y+30	; 0x1e
    1dbe:	aa ec       	ldi	r26, 0xCA	; 202
    1dc0:	bf ef       	ldi	r27, 0xFF	; 255
    1dc2:	0e 94 ab 32 	call	0x6556	; 0x6556 <__mulhisi3>
    1dc6:	86 0e       	add	r8, r22
    1dc8:	97 1e       	adc	r9, r23
    1dca:	a8 1e       	adc	r10, r24
    1dcc:	b9 1e       	adc	r11, r25
    acc += (int32_t)W_hr[12][15] * (int32_t)h_state[15];
    1dce:	2f e2       	ldi	r18, 0x2F	; 47
    1dd0:	30 e0       	ldi	r19, 0x00	; 0
    1dd2:	ab 89       	ldd	r26, Y+19	; 0x13
    1dd4:	bc 89       	ldd	r27, Y+20	; 0x14
    1dd6:	0e 94 c2 32 	call	0x6584	; 0x6584 <__usmulhisi3>
    1dda:	cd 5d       	subi	r28, 0xDD	; 221
    1ddc:	de 4f       	sbci	r29, 0xFE	; 254
    1dde:	68 83       	st	Y, r22
    1de0:	79 83       	std	Y+1, r23	; 0x01
    1de2:	8a 83       	std	Y+2, r24	; 0x02
    1de4:	9b 83       	std	Y+3, r25	; 0x03
    1de6:	c3 52       	subi	r28, 0x23	; 35
    1de8:	d1 40       	sbci	r29, 0x01	; 1
    1dea:	dc 01       	movw	r26, r24
    1dec:	cb 01       	movw	r24, r22
    1dee:	88 0d       	add	r24, r8
    1df0:	99 1d       	adc	r25, r9
    1df2:	aa 1d       	adc	r26, r10
    1df4:	bb 1d       	adc	r27, r11
    acc >>= FRAC_BITS;
    1df6:	f6 e0       	ldi	r31, 0x06	; 6
    1df8:	b5 95       	asr	r27
    1dfa:	a7 95       	ror	r26
    1dfc:	97 95       	ror	r25
    1dfe:	87 95       	ror	r24
    1e00:	fa 95       	dec	r31
    1e02:	d1 f7       	brne	.-12     	; 0x1df8 <__LOCK_REGION_LENGTH__+0x19f8>
static inline int16_t fp_mul(int16_t a, int16_t b) {
    return (int16_t)(((int32_t)a * (int32_t)b) >> FRAC_BITS);
}

static inline int16_t fp_sat32(int32_t v) {
    if (v > FP_MAX) return FP_MAX;
    1e04:	81 15       	cp	r24, r1
    1e06:	30 e8       	ldi	r19, 0x80	; 128
    1e08:	93 07       	cpc	r25, r19
    1e0a:	a1 05       	cpc	r26, r1
    1e0c:	b1 05       	cpc	r27, r1
    1e0e:	14 f0       	brlt	.+4      	; 0x1e14 <__LOCK_REGION_LENGTH__+0x1a14>
    1e10:	0c 94 e2 31 	jmp	0x63c4	; 0x63c4 <__stack+0x41c5>
    if (v < FP_MIN) return FP_MIN;
    1e14:	81 15       	cp	r24, r1
    1e16:	40 e8       	ldi	r20, 0x80	; 128
    1e18:	94 07       	cpc	r25, r20
    1e1a:	4f ef       	ldi	r20, 0xFF	; 255
    1e1c:	a4 07       	cpc	r26, r20
    1e1e:	b4 07       	cpc	r27, r20
    1e20:	14 f4       	brge	.+4      	; 0x1e26 <__LOCK_REGION_LENGTH__+0x1a26>
    1e22:	0c 94 e6 31 	jmp	0x63cc	; 0x63cc <__stack+0x41cd>
    acc += (int32_t)W_hr[12][12] * (int32_t)h_state[12];
    acc += (int32_t)W_hr[12][13] * (int32_t)h_state[13];
    acc += (int32_t)W_hr[12][14] * (int32_t)h_state[14];
    acc += (int32_t)W_hr[12][15] * (int32_t)h_state[15];
    acc >>= FRAC_BITS;
    r[12] = fp_sigmoid(fp_sat32(acc));
    1e26:	0e 94 b5 00 	call	0x16a	; 0x16a <_ZL10fp_sigmoidi>
    1e2a:	c1 57       	subi	r28, 0x71	; 113
    1e2c:	de 4f       	sbci	r29, 0xFE	; 254
    1e2e:	99 83       	std	Y+1, r25	; 0x01
    1e30:	88 83       	st	Y, r24
    1e32:	cf 58       	subi	r28, 0x8F	; 143
    1e34:	d1 40       	sbci	r29, 0x01	; 1
    acc += (int32_t)W_ir[13][61] * (int32_t)x[61];
    acc += (int32_t)W_ir[13][62] * (int32_t)x[62];
    acc += (int32_t)W_ir[13][63] * (int32_t)x[63];
    acc >>= FRAC_BITS;
    acc += (int32_t)b_hr[13];
    acc += (int32_t)W_hr[13][0] * (int32_t)h_state[0];
    1e36:	2d e2       	ldi	r18, 0x2D	; 45
    1e38:	30 e0       	ldi	r19, 0x00	; 0
    1e3a:	ab 85       	ldd	r26, Y+11	; 0x0b
    1e3c:	bc 85       	ldd	r27, Y+12	; 0x0c
    1e3e:	0e 94 c2 32 	call	0x6584	; 0x6584 <__usmulhisi3>
    1e42:	2b 01       	movw	r4, r22
    1e44:	3c 01       	movw	r6, r24
    1e46:	5e ed       	ldi	r21, 0xDE	; 222
    1e48:	45 1a       	sub	r4, r21
    1e4a:	51 08       	sbc	r5, r1
    1e4c:	61 08       	sbc	r6, r1
    1e4e:	71 08       	sbc	r7, r1
    acc += (int32_t)W_hr[13][1] * (int32_t)h_state[1];
    1e50:	2f e0       	ldi	r18, 0x0F	; 15
    1e52:	30 e0       	ldi	r19, 0x00	; 0
    1e54:	af 81       	ldd	r26, Y+7	; 0x07
    1e56:	b8 85       	ldd	r27, Y+8	; 0x08
    1e58:	0e 94 c2 32 	call	0x6584	; 0x6584 <__usmulhisi3>
    1e5c:	46 0e       	add	r4, r22
    1e5e:	57 1e       	adc	r5, r23
    1e60:	68 1e       	adc	r6, r24
    1e62:	79 1e       	adc	r7, r25
    acc += (int32_t)W_hr[13][2] * (int32_t)h_state[2];
    1e64:	8b a5       	ldd	r24, Y+43	; 0x2b
    1e66:	9c a5       	ldd	r25, Y+44	; 0x2c
    1e68:	ad a5       	ldd	r26, Y+45	; 0x2d
    1e6a:	be a5       	ldd	r27, Y+46	; 0x2e
    1e6c:	48 0e       	add	r4, r24
    1e6e:	59 1e       	adc	r5, r25
    1e70:	6a 1e       	adc	r6, r26
    1e72:	7b 1e       	adc	r7, r27
    acc += (int32_t)W_hr[13][3] * (int32_t)h_state[3];
    1e74:	91 01       	movw	r18, r2
    1e76:	ab ef       	ldi	r26, 0xFB	; 251
    1e78:	bf ef       	ldi	r27, 0xFF	; 255
    1e7a:	0e 94 ab 32 	call	0x6556	; 0x6556 <__mulhisi3>
    1e7e:	46 0e       	add	r4, r22
    1e80:	57 1e       	adc	r5, r23
    1e82:	68 1e       	adc	r6, r24
    1e84:	79 1e       	adc	r7, r25
    acc += (int32_t)W_hr[13][4] * (int32_t)h_state[4];
    1e86:	27 e0       	ldi	r18, 0x07	; 7
    1e88:	30 e0       	ldi	r19, 0x00	; 0
    1e8a:	ad 81       	ldd	r26, Y+5	; 0x05
    1e8c:	be 81       	ldd	r27, Y+6	; 0x06
    1e8e:	0e 94 c2 32 	call	0x6584	; 0x6584 <__usmulhisi3>
    1e92:	46 0e       	add	r4, r22
    1e94:	57 1e       	adc	r5, r23
    1e96:	68 1e       	adc	r6, r24
    1e98:	79 1e       	adc	r7, r25
    acc += (int32_t)W_hr[13][5] * (int32_t)h_state[5];
    1e9a:	25 e2       	ldi	r18, 0x25	; 37
    1e9c:	30 e0       	ldi	r19, 0x00	; 0
    1e9e:	ad 85       	ldd	r26, Y+13	; 0x0d
    1ea0:	be 85       	ldd	r27, Y+14	; 0x0e
    1ea2:	0e 94 c2 32 	call	0x6584	; 0x6584 <__usmulhisi3>
    1ea6:	46 0e       	add	r4, r22
    1ea8:	57 1e       	adc	r5, r23
    1eaa:	68 1e       	adc	r6, r24
    1eac:	79 1e       	adc	r7, r25
    acc += (int32_t)W_hr[13][6] * (int32_t)h_state[6];
    1eae:	23 e3       	ldi	r18, 0x33	; 51
    1eb0:	30 e0       	ldi	r19, 0x00	; 0
    1eb2:	c9 56       	subi	r28, 0x69	; 105
    1eb4:	de 4f       	sbci	r29, 0xFE	; 254
    1eb6:	a8 81       	ld	r26, Y
    1eb8:	b9 81       	ldd	r27, Y+1	; 0x01
    1eba:	c7 59       	subi	r28, 0x97	; 151
    1ebc:	d1 40       	sbci	r29, 0x01	; 1
    1ebe:	0e 94 c2 32 	call	0x6584	; 0x6584 <__usmulhisi3>
    1ec2:	46 0e       	add	r4, r22
    1ec4:	57 1e       	adc	r5, r23
    1ec6:	68 1e       	adc	r6, r24
    1ec8:	79 1e       	adc	r7, r25
    acc += (int32_t)W_hr[13][7] * (int32_t)h_state[7];
    1eca:	29 89       	ldd	r18, Y+17	; 0x11
    1ecc:	3a 89       	ldd	r19, Y+18	; 0x12
    1ece:	aa ef       	ldi	r26, 0xFA	; 250
    1ed0:	bf ef       	ldi	r27, 0xFF	; 255
    1ed2:	0e 94 ab 32 	call	0x6556	; 0x6556 <__mulhisi3>
    1ed6:	a3 96       	adiw	r28, 0x23	; 35
    1ed8:	6c af       	std	Y+60, r22	; 0x3c
    1eda:	7d af       	std	Y+61, r23	; 0x3d
    1edc:	8e af       	std	Y+62, r24	; 0x3e
    1ede:	9f af       	std	Y+63, r25	; 0x3f
    1ee0:	a3 97       	sbiw	r28, 0x23	; 35
    1ee2:	46 0e       	add	r4, r22
    1ee4:	57 1e       	adc	r5, r23
    1ee6:	68 1e       	adc	r6, r24
    1ee8:	79 1e       	adc	r7, r25
    acc += (int32_t)W_hr[13][8] * (int32_t)h_state[8];
    1eea:	a7 96       	adiw	r28, 0x27	; 39
    1eec:	2c ad       	ldd	r18, Y+60	; 0x3c
    1eee:	3d ad       	ldd	r19, Y+61	; 0x3d
    1ef0:	4e ad       	ldd	r20, Y+62	; 0x3e
    1ef2:	5f ad       	ldd	r21, Y+63	; 0x3f
    1ef4:	a7 97       	sbiw	r28, 0x27	; 39
    1ef6:	42 0e       	add	r4, r18
    1ef8:	53 1e       	adc	r5, r19
    1efa:	64 1e       	adc	r6, r20
    1efc:	75 1e       	adc	r7, r21
    acc += (int32_t)W_hr[13][9] * (int32_t)h_state[9];
    1efe:	23 e1       	ldi	r18, 0x13	; 19
    1f00:	30 e0       	ldi	r19, 0x00	; 0
    1f02:	a9 85       	ldd	r26, Y+9	; 0x09
    1f04:	ba 85       	ldd	r27, Y+10	; 0x0a
    1f06:	0e 94 c2 32 	call	0x6584	; 0x6584 <__usmulhisi3>
    1f0a:	4b 01       	movw	r8, r22
    1f0c:	5c 01       	movw	r10, r24
    1f0e:	48 0c       	add	r4, r8
    1f10:	59 1c       	adc	r5, r9
    1f12:	6a 1c       	adc	r6, r10
    1f14:	7b 1c       	adc	r7, r11
    acc += (int32_t)W_hr[13][10] * (int32_t)h_state[10];
    1f16:	2f 85       	ldd	r18, Y+15	; 0x0f
    1f18:	38 89       	ldd	r19, Y+16	; 0x10
    1f1a:	a9 ee       	ldi	r26, 0xE9	; 233
    1f1c:	bf ef       	ldi	r27, 0xFF	; 255
    1f1e:	0e 94 ab 32 	call	0x6556	; 0x6556 <__mulhisi3>
    1f22:	c9 5d       	subi	r28, 0xD9	; 217
    1f24:	de 4f       	sbci	r29, 0xFE	; 254
    1f26:	68 83       	st	Y, r22
    1f28:	79 83       	std	Y+1, r23	; 0x01
    1f2a:	8a 83       	std	Y+2, r24	; 0x02
    1f2c:	9b 83       	std	Y+3, r25	; 0x03
    1f2e:	c7 52       	subi	r28, 0x27	; 39
    1f30:	d1 40       	sbci	r29, 0x01	; 1
    1f32:	46 0e       	add	r4, r22
    1f34:	57 1e       	adc	r5, r23
    1f36:	68 1e       	adc	r6, r24
    1f38:	79 1e       	adc	r7, r25
    acc += (int32_t)W_hr[13][11] * (int32_t)h_state[11];
    1f3a:	29 8d       	ldd	r18, Y+25	; 0x19
    1f3c:	3a 8d       	ldd	r19, Y+26	; 0x1a
    1f3e:	ad ef       	ldi	r26, 0xFD	; 253
    1f40:	bf ef       	ldi	r27, 0xFF	; 255
    1f42:	0e 94 ab 32 	call	0x6556	; 0x6556 <__mulhisi3>
    1f46:	46 0e       	add	r4, r22
    1f48:	57 1e       	adc	r5, r23
    1f4a:	68 1e       	adc	r6, r24
    1f4c:	79 1e       	adc	r7, r25
    acc += (int32_t)W_hr[13][12] * (int32_t)h_state[12];
    1f4e:	98 01       	movw	r18, r16
    1f50:	a3 ed       	ldi	r26, 0xD3	; 211
    1f52:	bf ef       	ldi	r27, 0xFF	; 255
    1f54:	0e 94 ab 32 	call	0x6556	; 0x6556 <__mulhisi3>
    1f58:	46 0e       	add	r4, r22
    1f5a:	57 1e       	adc	r5, r23
    1f5c:	68 1e       	adc	r6, r24
    1f5e:	79 1e       	adc	r7, r25
    acc += (int32_t)W_hr[13][13] * (int32_t)h_state[13];
    1f60:	2b 8d       	ldd	r18, Y+27	; 0x1b
    1f62:	3c 8d       	ldd	r19, Y+28	; 0x1c
    1f64:	a8 ec       	ldi	r26, 0xC8	; 200
    1f66:	bf ef       	ldi	r27, 0xFF	; 255
    1f68:	0e 94 ab 32 	call	0x6556	; 0x6556 <__mulhisi3>
    1f6c:	46 0e       	add	r4, r22
    1f6e:	57 1e       	adc	r5, r23
    1f70:	68 1e       	adc	r6, r24
    1f72:	79 1e       	adc	r7, r25
    acc += (int32_t)W_hr[13][14] * (int32_t)h_state[14];
    1f74:	2d 8d       	ldd	r18, Y+29	; 0x1d
    1f76:	3e 8d       	ldd	r19, Y+30	; 0x1e
    1f78:	ad ec       	ldi	r26, 0xCD	; 205
    1f7a:	bf ef       	ldi	r27, 0xFF	; 255
    1f7c:	0e 94 ab 32 	call	0x6556	; 0x6556 <__mulhisi3>
    1f80:	46 0e       	add	r4, r22
    1f82:	57 1e       	adc	r5, r23
    1f84:	68 1e       	adc	r6, r24
    1f86:	79 1e       	adc	r7, r25
    acc += (int32_t)W_hr[13][15] * (int32_t)h_state[15];
    1f88:	23 e3       	ldi	r18, 0x33	; 51
    1f8a:	30 e0       	ldi	r19, 0x00	; 0
    1f8c:	ab 89       	ldd	r26, Y+19	; 0x13
    1f8e:	bc 89       	ldd	r27, Y+20	; 0x14
    1f90:	0e 94 c2 32 	call	0x6584	; 0x6584 <__usmulhisi3>
    1f94:	dc 01       	movw	r26, r24
    1f96:	cb 01       	movw	r24, r22
    1f98:	84 0d       	add	r24, r4
    1f9a:	95 1d       	adc	r25, r5
    1f9c:	a6 1d       	adc	r26, r6
    1f9e:	b7 1d       	adc	r27, r7
    acc >>= FRAC_BITS;
    1fa0:	66 e0       	ldi	r22, 0x06	; 6
    1fa2:	b5 95       	asr	r27
    1fa4:	a7 95       	ror	r26
    1fa6:	97 95       	ror	r25
    1fa8:	87 95       	ror	r24
    1faa:	6a 95       	dec	r22
    1fac:	d1 f7       	brne	.-12     	; 0x1fa2 <__LOCK_REGION_LENGTH__+0x1ba2>
static inline int16_t fp_mul(int16_t a, int16_t b) {
    return (int16_t)(((int32_t)a * (int32_t)b) >> FRAC_BITS);
}

static inline int16_t fp_sat32(int32_t v) {
    if (v > FP_MAX) return FP_MAX;
    1fae:	81 15       	cp	r24, r1
    1fb0:	30 e8       	ldi	r19, 0x80	; 128
    1fb2:	93 07       	cpc	r25, r19
    1fb4:	a1 05       	cpc	r26, r1
    1fb6:	b1 05       	cpc	r27, r1
    1fb8:	14 f0       	brlt	.+4      	; 0x1fbe <__LOCK_REGION_LENGTH__+0x1bbe>
    1fba:	0c 94 ea 31 	jmp	0x63d4	; 0x63d4 <__stack+0x41d5>
    if (v < FP_MIN) return FP_MIN;
    1fbe:	81 15       	cp	r24, r1
    1fc0:	40 e8       	ldi	r20, 0x80	; 128
    1fc2:	94 07       	cpc	r25, r20
    1fc4:	4f ef       	ldi	r20, 0xFF	; 255
    1fc6:	a4 07       	cpc	r26, r20
    1fc8:	b4 07       	cpc	r27, r20
    1fca:	14 f4       	brge	.+4      	; 0x1fd0 <__LOCK_REGION_LENGTH__+0x1bd0>
    1fcc:	0c 94 ee 31 	jmp	0x63dc	; 0x63dc <__stack+0x41dd>
    acc += (int32_t)W_hr[13][12] * (int32_t)h_state[12];
    acc += (int32_t)W_hr[13][13] * (int32_t)h_state[13];
    acc += (int32_t)W_hr[13][14] * (int32_t)h_state[14];
    acc += (int32_t)W_hr[13][15] * (int32_t)h_state[15];
    acc >>= FRAC_BITS;
    r[13] = fp_sigmoid(fp_sat32(acc));
    1fd0:	0e 94 b5 00 	call	0x16a	; 0x16a <_ZL10fp_sigmoidi>
    1fd4:	cf 56       	subi	r28, 0x6F	; 111
    1fd6:	de 4f       	sbci	r29, 0xFE	; 254
    1fd8:	99 83       	std	Y+1, r25	; 0x01
    1fda:	88 83       	st	Y, r24
    1fdc:	c1 59       	subi	r28, 0x91	; 145
    1fde:	d1 40       	sbci	r29, 0x01	; 1
    acc += (int32_t)W_ir[14][61] * (int32_t)x[61];
    acc += (int32_t)W_ir[14][62] * (int32_t)x[62];
    acc += (int32_t)W_ir[14][63] * (int32_t)x[63];
    acc >>= FRAC_BITS;
    acc += (int32_t)b_hr[14];
    acc += (int32_t)W_hr[14][0] * (int32_t)h_state[0];
    1fe0:	2b 85       	ldd	r18, Y+11	; 0x0b
    1fe2:	3c 85       	ldd	r19, Y+12	; 0x0c
    1fe4:	ac ee       	ldi	r26, 0xEC	; 236
    1fe6:	bf ef       	ldi	r27, 0xFF	; 255
    1fe8:	0e 94 ab 32 	call	0x6556	; 0x6556 <__mulhisi3>
    1fec:	c5 5d       	subi	r28, 0xD5	; 213
    1fee:	de 4f       	sbci	r29, 0xFE	; 254
    1ff0:	68 83       	st	Y, r22
    1ff2:	79 83       	std	Y+1, r23	; 0x01
    1ff4:	8a 83       	std	Y+2, r24	; 0x02
    1ff6:	9b 83       	std	Y+3, r25	; 0x03
    1ff8:	cb 52       	subi	r28, 0x2B	; 43
    1ffa:	d1 40       	sbci	r29, 0x01	; 1
    1ffc:	2b 01       	movw	r4, r22
    1ffe:	3c 01       	movw	r6, r24
    2000:	5b e0       	ldi	r21, 0x0B	; 11
    2002:	45 0e       	add	r4, r21
    2004:	51 1c       	adc	r5, r1
    2006:	61 1c       	adc	r6, r1
    2008:	71 1c       	adc	r7, r1
    acc += (int32_t)W_hr[14][1] * (int32_t)h_state[1];
    200a:	2b e1       	ldi	r18, 0x1B	; 27
    200c:	30 e0       	ldi	r19, 0x00	; 0
    200e:	af 81       	ldd	r26, Y+7	; 0x07
    2010:	b8 85       	ldd	r27, Y+8	; 0x08
    2012:	0e 94 c2 32 	call	0x6584	; 0x6584 <__usmulhisi3>
    2016:	46 0e       	add	r4, r22
    2018:	57 1e       	adc	r5, r23
    201a:	68 1e       	adc	r6, r24
    201c:	79 1e       	adc	r7, r25
    acc += (int32_t)W_hr[14][2] * (int32_t)h_state[2];
    201e:	8b a5       	ldd	r24, Y+43	; 0x2b
    2020:	9c a5       	ldd	r25, Y+44	; 0x2c
    2022:	ad a5       	ldd	r26, Y+45	; 0x2d
    2024:	be a5       	ldd	r27, Y+46	; 0x2e
    2026:	48 0e       	add	r4, r24
    2028:	59 1e       	adc	r5, r25
    202a:	6a 1e       	adc	r6, r26
    202c:	7b 1e       	adc	r7, r27
    acc += (int32_t)W_hr[14][3] * (int32_t)h_state[3];
    202e:	91 01       	movw	r18, r2
    2030:	a6 ed       	ldi	r26, 0xD6	; 214
    2032:	bf ef       	ldi	r27, 0xFF	; 255
    2034:	0e 94 ab 32 	call	0x6556	; 0x6556 <__mulhisi3>
    2038:	46 0e       	add	r4, r22
    203a:	57 1e       	adc	r5, r23
    203c:	68 1e       	adc	r6, r24
    203e:	79 1e       	adc	r7, r25
    acc += (int32_t)W_hr[14][4] * (int32_t)h_state[4];
    2040:	2d 81       	ldd	r18, Y+5	; 0x05
    2042:	3e 81       	ldd	r19, Y+6	; 0x06
    2044:	a0 ee       	ldi	r26, 0xE0	; 224
    2046:	bf ef       	ldi	r27, 0xFF	; 255
    2048:	0e 94 ab 32 	call	0x6556	; 0x6556 <__mulhisi3>
    204c:	46 0e       	add	r4, r22
    204e:	57 1e       	adc	r5, r23
    2050:	68 1e       	adc	r6, r24
    2052:	79 1e       	adc	r7, r25
    acc += (int32_t)W_hr[14][5] * (int32_t)h_state[5];
    2054:	2d 85       	ldd	r18, Y+13	; 0x0d
    2056:	3e 85       	ldd	r19, Y+14	; 0x0e
    2058:	a8 ef       	ldi	r26, 0xF8	; 248
    205a:	bf ef       	ldi	r27, 0xFF	; 255
    205c:	0e 94 ab 32 	call	0x6556	; 0x6556 <__mulhisi3>
    2060:	c1 5d       	subi	r28, 0xD1	; 209
    2062:	de 4f       	sbci	r29, 0xFE	; 254
    2064:	68 83       	st	Y, r22
    2066:	79 83       	std	Y+1, r23	; 0x01
    2068:	8a 83       	std	Y+2, r24	; 0x02
    206a:	9b 83       	std	Y+3, r25	; 0x03
    206c:	cf 52       	subi	r28, 0x2F	; 47
    206e:	d1 40       	sbci	r29, 0x01	; 1
    2070:	46 0e       	add	r4, r22
    2072:	57 1e       	adc	r5, r23
    2074:	68 1e       	adc	r6, r24
    2076:	79 1e       	adc	r7, r25
    acc += (int32_t)W_hr[14][6] * (int32_t)h_state[6];
    2078:	c9 56       	subi	r28, 0x69	; 105
    207a:	de 4f       	sbci	r29, 0xFE	; 254
    207c:	28 81       	ld	r18, Y
    207e:	39 81       	ldd	r19, Y+1	; 0x01
    2080:	c7 59       	subi	r28, 0x97	; 151
    2082:	d1 40       	sbci	r29, 0x01	; 1
    2084:	0e 94 ab 32 	call	0x6556	; 0x6556 <__mulhisi3>
    2088:	46 0e       	add	r4, r22
    208a:	57 1e       	adc	r5, r23
    208c:	68 1e       	adc	r6, r24
    208e:	79 1e       	adc	r7, r25
    acc += (int32_t)W_hr[14][7] * (int32_t)h_state[7];
    2090:	23 e0       	ldi	r18, 0x03	; 3
    2092:	30 e0       	ldi	r19, 0x00	; 0
    2094:	a9 89       	ldd	r26, Y+17	; 0x11
    2096:	ba 89       	ldd	r27, Y+18	; 0x12
    2098:	0e 94 c2 32 	call	0x6584	; 0x6584 <__usmulhisi3>
    209c:	46 0e       	add	r4, r22
    209e:	57 1e       	adc	r5, r23
    20a0:	68 1e       	adc	r6, r24
    20a2:	79 1e       	adc	r7, r25
    acc += (int32_t)W_hr[14][8] * (int32_t)h_state[8];
    20a4:	2f 89       	ldd	r18, Y+23	; 0x17
    20a6:	38 8d       	ldd	r19, Y+24	; 0x18
    20a8:	a4 ed       	ldi	r26, 0xD4	; 212
    20aa:	bf ef       	ldi	r27, 0xFF	; 255
    20ac:	0e 94 ab 32 	call	0x6556	; 0x6556 <__mulhisi3>
    20b0:	46 0e       	add	r4, r22
    20b2:	57 1e       	adc	r5, r23
    20b4:	68 1e       	adc	r6, r24
    20b6:	79 1e       	adc	r7, r25
    acc += (int32_t)W_hr[14][9] * (int32_t)h_state[9];
    20b8:	29 85       	ldd	r18, Y+9	; 0x09
    20ba:	3a 85       	ldd	r19, Y+10	; 0x0a
    20bc:	a0 ef       	ldi	r26, 0xF0	; 240
    20be:	bf ef       	ldi	r27, 0xFF	; 255
    20c0:	0e 94 ab 32 	call	0x6556	; 0x6556 <__mulhisi3>
    20c4:	46 0e       	add	r4, r22
    20c6:	57 1e       	adc	r5, r23
    20c8:	68 1e       	adc	r6, r24
    20ca:	79 1e       	adc	r7, r25
    acc += (int32_t)W_hr[14][10] * (int32_t)h_state[10];
    20cc:	2f 85       	ldd	r18, Y+15	; 0x0f
    20ce:	38 89       	ldd	r19, Y+16	; 0x10
    20d0:	a4 ee       	ldi	r26, 0xE4	; 228
    20d2:	bf ef       	ldi	r27, 0xFF	; 255
    20d4:	0e 94 ab 32 	call	0x6556	; 0x6556 <__mulhisi3>
    20d8:	46 0e       	add	r4, r22
    20da:	57 1e       	adc	r5, r23
    20dc:	68 1e       	adc	r6, r24
    20de:	79 1e       	adc	r7, r25
    acc += (int32_t)W_hr[14][11] * (int32_t)h_state[11];
    20e0:	29 8d       	ldd	r18, Y+25	; 0x19
    20e2:	3a 8d       	ldd	r19, Y+26	; 0x1a
    20e4:	a4 ef       	ldi	r26, 0xF4	; 244
    20e6:	bf ef       	ldi	r27, 0xFF	; 255
    20e8:	0e 94 ab 32 	call	0x6556	; 0x6556 <__mulhisi3>
    20ec:	46 0e       	add	r4, r22
    20ee:	57 1e       	adc	r5, r23
    20f0:	68 1e       	adc	r6, r24
    20f2:	79 1e       	adc	r7, r25
    acc += (int32_t)W_hr[14][12] * (int32_t)h_state[12];
    20f4:	27 96       	adiw	r28, 0x07	; 7
    20f6:	2c ad       	ldd	r18, Y+60	; 0x3c
    20f8:	3d ad       	ldd	r19, Y+61	; 0x3d
    20fa:	4e ad       	ldd	r20, Y+62	; 0x3e
    20fc:	5f ad       	ldd	r21, Y+63	; 0x3f
    20fe:	27 97       	sbiw	r28, 0x07	; 7
    2100:	42 0e       	add	r4, r18
    2102:	53 1e       	adc	r5, r19
    2104:	64 1e       	adc	r6, r20
    2106:	75 1e       	adc	r7, r21
    acc += (int32_t)W_hr[14][13] * (int32_t)h_state[13];
    2108:	2d e0       	ldi	r18, 0x0D	; 13
    210a:	30 e0       	ldi	r19, 0x00	; 0
    210c:	ab 8d       	ldd	r26, Y+27	; 0x1b
    210e:	bc 8d       	ldd	r27, Y+28	; 0x1c
    2110:	0e 94 c2 32 	call	0x6584	; 0x6584 <__usmulhisi3>
    2114:	46 0e       	add	r4, r22
    2116:	57 1e       	adc	r5, r23
    2118:	68 1e       	adc	r6, r24
    211a:	79 1e       	adc	r7, r25
    acc += (int32_t)W_hr[14][14] * (int32_t)h_state[14];
    211c:	25 e2       	ldi	r18, 0x25	; 37
    211e:	30 e0       	ldi	r19, 0x00	; 0
    2120:	ad 8d       	ldd	r26, Y+29	; 0x1d
    2122:	be 8d       	ldd	r27, Y+30	; 0x1e
    2124:	0e 94 c2 32 	call	0x6584	; 0x6584 <__usmulhisi3>
    2128:	46 0e       	add	r4, r22
    212a:	57 1e       	adc	r5, r23
    212c:	68 1e       	adc	r6, r24
    212e:	79 1e       	adc	r7, r25
    acc += (int32_t)W_hr[14][15] * (int32_t)h_state[15];
    2130:	23 e1       	ldi	r18, 0x13	; 19
    2132:	30 e0       	ldi	r19, 0x00	; 0
    2134:	ab 89       	ldd	r26, Y+19	; 0x13
    2136:	bc 89       	ldd	r27, Y+20	; 0x14
    2138:	0e 94 c2 32 	call	0x6584	; 0x6584 <__usmulhisi3>
    213c:	dc 01       	movw	r26, r24
    213e:	cb 01       	movw	r24, r22
    2140:	84 0d       	add	r24, r4
    2142:	95 1d       	adc	r25, r5
    2144:	a6 1d       	adc	r26, r6
    2146:	b7 1d       	adc	r27, r7
    acc >>= FRAC_BITS;
    2148:	56 e0       	ldi	r21, 0x06	; 6
    214a:	b5 95       	asr	r27
    214c:	a7 95       	ror	r26
    214e:	97 95       	ror	r25
    2150:	87 95       	ror	r24
    2152:	5a 95       	dec	r21
    2154:	d1 f7       	brne	.-12     	; 0x214a <__LOCK_REGION_LENGTH__+0x1d4a>
static inline int16_t fp_mul(int16_t a, int16_t b) {
    return (int16_t)(((int32_t)a * (int32_t)b) >> FRAC_BITS);
}

static inline int16_t fp_sat32(int32_t v) {
    if (v > FP_MAX) return FP_MAX;
    2156:	81 15       	cp	r24, r1
    2158:	30 e8       	ldi	r19, 0x80	; 128
    215a:	93 07       	cpc	r25, r19
    215c:	a1 05       	cpc	r26, r1
    215e:	b1 05       	cpc	r27, r1
    2160:	14 f0       	brlt	.+4      	; 0x2166 <__LOCK_REGION_LENGTH__+0x1d66>
    2162:	0c 94 f2 31 	jmp	0x63e4	; 0x63e4 <__stack+0x41e5>
    if (v < FP_MIN) return FP_MIN;
    2166:	81 15       	cp	r24, r1
    2168:	40 e8       	ldi	r20, 0x80	; 128
    216a:	94 07       	cpc	r25, r20
    216c:	4f ef       	ldi	r20, 0xFF	; 255
    216e:	a4 07       	cpc	r26, r20
    2170:	b4 07       	cpc	r27, r20
    2172:	14 f4       	brge	.+4      	; 0x2178 <__LOCK_REGION_LENGTH__+0x1d78>
    2174:	0c 94 f6 31 	jmp	0x63ec	; 0x63ec <__stack+0x41ed>
    acc += (int32_t)W_hr[14][12] * (int32_t)h_state[12];
    acc += (int32_t)W_hr[14][13] * (int32_t)h_state[13];
    acc += (int32_t)W_hr[14][14] * (int32_t)h_state[14];
    acc += (int32_t)W_hr[14][15] * (int32_t)h_state[15];
    acc >>= FRAC_BITS;
    r[14] = fp_sigmoid(fp_sat32(acc));
    2178:	0e 94 b5 00 	call	0x16a	; 0x16a <_ZL10fp_sigmoidi>
    217c:	cd 56       	subi	r28, 0x6D	; 109
    217e:	de 4f       	sbci	r29, 0xFE	; 254
    2180:	99 83       	std	Y+1, r25	; 0x01
    2182:	88 83       	st	Y, r24
    2184:	c3 59       	subi	r28, 0x93	; 147
    2186:	d1 40       	sbci	r29, 0x01	; 1
    acc += (int32_t)W_ir[15][61] * (int32_t)x[61];
    acc += (int32_t)W_ir[15][62] * (int32_t)x[62];
    acc += (int32_t)W_ir[15][63] * (int32_t)x[63];
    acc >>= FRAC_BITS;
    acc += (int32_t)b_hr[15];
    acc += (int32_t)W_hr[15][0] * (int32_t)h_state[0];
    2188:	2b 85       	ldd	r18, Y+11	; 0x0b
    218a:	3c 85       	ldd	r19, Y+12	; 0x0c
    218c:	a8 ec       	ldi	r26, 0xC8	; 200
    218e:	bf ef       	ldi	r27, 0xFF	; 255
    2190:	0e 94 ab 32 	call	0x6556	; 0x6556 <__mulhisi3>
    2194:	a7 96       	adiw	r28, 0x27	; 39
    2196:	6c af       	std	Y+60, r22	; 0x3c
    2198:	7d af       	std	Y+61, r23	; 0x3d
    219a:	8e af       	std	Y+62, r24	; 0x3e
    219c:	9f af       	std	Y+63, r25	; 0x3f
    219e:	a7 97       	sbiw	r28, 0x27	; 39
    21a0:	2b 01       	movw	r4, r22
    21a2:	3c 01       	movw	r6, r24
    21a4:	55 e7       	ldi	r21, 0x75	; 117
    21a6:	45 0e       	add	r4, r21
    21a8:	51 1c       	adc	r5, r1
    21aa:	61 1c       	adc	r6, r1
    21ac:	71 1c       	adc	r7, r1
    acc += (int32_t)W_hr[15][1] * (int32_t)h_state[1];
    21ae:	2f 81       	ldd	r18, Y+7	; 0x07
    21b0:	38 85       	ldd	r19, Y+8	; 0x08
    21b2:	ac ec       	ldi	r26, 0xCC	; 204
    21b4:	bf ef       	ldi	r27, 0xFF	; 255
    21b6:	0e 94 ab 32 	call	0x6556	; 0x6556 <__mulhisi3>
    21ba:	46 0e       	add	r4, r22
    21bc:	57 1e       	adc	r5, r23
    21be:	68 1e       	adc	r6, r24
    21c0:	79 1e       	adc	r7, r25
    acc += (int32_t)W_hr[15][2] * (int32_t)h_state[2];
    21c2:	27 e1       	ldi	r18, 0x17	; 23
    21c4:	30 e0       	ldi	r19, 0x00	; 0
    21c6:	ad 89       	ldd	r26, Y+21	; 0x15
    21c8:	be 89       	ldd	r27, Y+22	; 0x16
    21ca:	0e 94 c2 32 	call	0x6584	; 0x6584 <__usmulhisi3>
    21ce:	46 0e       	add	r4, r22
    21d0:	57 1e       	adc	r5, r23
    21d2:	68 1e       	adc	r6, r24
    21d4:	79 1e       	adc	r7, r25
    acc += (int32_t)W_hr[15][3] * (int32_t)h_state[3];
    21d6:	91 01       	movw	r18, r2
    21d8:	a4 ee       	ldi	r26, 0xE4	; 228
    21da:	bf ef       	ldi	r27, 0xFF	; 255
    21dc:	0e 94 ab 32 	call	0x6556	; 0x6556 <__mulhisi3>
    21e0:	46 0e       	add	r4, r22
    21e2:	57 1e       	adc	r5, r23
    21e4:	68 1e       	adc	r6, r24
    21e6:	79 1e       	adc	r7, r25
    acc += (int32_t)W_hr[15][4] * (int32_t)h_state[4];
    21e8:	2d e1       	ldi	r18, 0x1D	; 29
    21ea:	30 e0       	ldi	r19, 0x00	; 0
    21ec:	ad 81       	ldd	r26, Y+5	; 0x05
    21ee:	be 81       	ldd	r27, Y+6	; 0x06
    21f0:	0e 94 c2 32 	call	0x6584	; 0x6584 <__usmulhisi3>
    21f4:	46 0e       	add	r4, r22
    21f6:	57 1e       	adc	r5, r23
    21f8:	68 1e       	adc	r6, r24
    21fa:	79 1e       	adc	r7, r25
    acc += (int32_t)W_hr[15][5] * (int32_t)h_state[5];
    21fc:	24 e1       	ldi	r18, 0x14	; 20
    21fe:	30 e0       	ldi	r19, 0x00	; 0
    2200:	ad 85       	ldd	r26, Y+13	; 0x0d
    2202:	be 85       	ldd	r27, Y+14	; 0x0e
    2204:	0e 94 c2 32 	call	0x6584	; 0x6584 <__usmulhisi3>
    2208:	46 0e       	add	r4, r22
    220a:	57 1e       	adc	r5, r23
    220c:	68 1e       	adc	r6, r24
    220e:	79 1e       	adc	r7, r25
    acc += (int32_t)W_hr[15][6] * (int32_t)h_state[6];
    2210:	24 e3       	ldi	r18, 0x34	; 52
    2212:	30 e0       	ldi	r19, 0x00	; 0
    2214:	c9 56       	subi	r28, 0x69	; 105
    2216:	de 4f       	sbci	r29, 0xFE	; 254
    2218:	a8 81       	ld	r26, Y
    221a:	b9 81       	ldd	r27, Y+1	; 0x01
    221c:	c7 59       	subi	r28, 0x97	; 151
    221e:	d1 40       	sbci	r29, 0x01	; 1
    2220:	0e 94 c2 32 	call	0x6584	; 0x6584 <__usmulhisi3>
    2224:	46 0e       	add	r4, r22
    2226:	57 1e       	adc	r5, r23
    2228:	68 1e       	adc	r6, r24
    222a:	79 1e       	adc	r7, r25
    acc += (int32_t)W_hr[15][7] * (int32_t)h_state[7];
    222c:	20 e3       	ldi	r18, 0x30	; 48
    222e:	30 e0       	ldi	r19, 0x00	; 0
    2230:	a9 89       	ldd	r26, Y+17	; 0x11
    2232:	ba 89       	ldd	r27, Y+18	; 0x12
    2234:	0e 94 c2 32 	call	0x6584	; 0x6584 <__usmulhisi3>
    2238:	46 0e       	add	r4, r22
    223a:	57 1e       	adc	r5, r23
    223c:	68 1e       	adc	r6, r24
    223e:	79 1e       	adc	r7, r25
    acc += (int32_t)W_hr[15][8] * (int32_t)h_state[8];
    2240:	2f 89       	ldd	r18, Y+23	; 0x17
    2242:	38 8d       	ldd	r19, Y+24	; 0x18
    2244:	ab ee       	ldi	r26, 0xEB	; 235
    2246:	bf ef       	ldi	r27, 0xFF	; 255
    2248:	0e 94 ab 32 	call	0x6556	; 0x6556 <__mulhisi3>
    224c:	46 0e       	add	r4, r22
    224e:	57 1e       	adc	r5, r23
    2250:	68 1e       	adc	r6, r24
    2252:	79 1e       	adc	r7, r25
    acc += (int32_t)W_hr[15][9] * (int32_t)h_state[9];
    2254:	2b e0       	ldi	r18, 0x0B	; 11
    2256:	30 e0       	ldi	r19, 0x00	; 0
    2258:	a9 85       	ldd	r26, Y+9	; 0x09
    225a:	ba 85       	ldd	r27, Y+10	; 0x0a
    225c:	0e 94 c2 32 	call	0x6584	; 0x6584 <__usmulhisi3>
    2260:	46 0e       	add	r4, r22
    2262:	57 1e       	adc	r5, r23
    2264:	68 1e       	adc	r6, r24
    2266:	79 1e       	adc	r7, r25
    acc += (int32_t)W_hr[15][10] * (int32_t)h_state[10];
    2268:	2f 85       	ldd	r18, Y+15	; 0x0f
    226a:	38 89       	ldd	r19, Y+16	; 0x10
    226c:	a2 ed       	ldi	r26, 0xD2	; 210
    226e:	bf ef       	ldi	r27, 0xFF	; 255
    2270:	0e 94 ab 32 	call	0x6556	; 0x6556 <__mulhisi3>
    2274:	46 0e       	add	r4, r22
    2276:	57 1e       	adc	r5, r23
    2278:	68 1e       	adc	r6, r24
    227a:	79 1e       	adc	r7, r25
    acc += (int32_t)W_hr[15][11] * (int32_t)h_state[11];
    227c:	29 8d       	ldd	r18, Y+25	; 0x19
    227e:	3a 8d       	ldd	r19, Y+26	; 0x1a
    2280:	ad ee       	ldi	r26, 0xED	; 237
    2282:	bf ef       	ldi	r27, 0xFF	; 255
    2284:	0e 94 ab 32 	call	0x6556	; 0x6556 <__mulhisi3>
    2288:	46 0e       	add	r4, r22
    228a:	57 1e       	adc	r5, r23
    228c:	68 1e       	adc	r6, r24
    228e:	79 1e       	adc	r7, r25
    acc += (int32_t)W_hr[15][12] * (int32_t)h_state[12];
    2290:	2c e3       	ldi	r18, 0x3C	; 60
    2292:	30 e0       	ldi	r19, 0x00	; 0
    2294:	d8 01       	movw	r26, r16
    2296:	0e 94 c2 32 	call	0x6584	; 0x6584 <__usmulhisi3>
    229a:	46 0e       	add	r4, r22
    229c:	57 1e       	adc	r5, r23
    229e:	68 1e       	adc	r6, r24
    22a0:	79 1e       	adc	r7, r25
    acc += (int32_t)W_hr[15][13] * (int32_t)h_state[13];
    22a2:	29 e1       	ldi	r18, 0x19	; 25
    22a4:	30 e0       	ldi	r19, 0x00	; 0
    22a6:	ab 8d       	ldd	r26, Y+27	; 0x1b
    22a8:	bc 8d       	ldd	r27, Y+28	; 0x1c
    22aa:	0e 94 c2 32 	call	0x6584	; 0x6584 <__usmulhisi3>
    22ae:	46 0e       	add	r4, r22
    22b0:	57 1e       	adc	r5, r23
    22b2:	68 1e       	adc	r6, r24
    22b4:	79 1e       	adc	r7, r25
    acc += (int32_t)W_hr[15][14] * (int32_t)h_state[14];
    22b6:	2d 8d       	ldd	r18, Y+29	; 0x1d
    22b8:	3e 8d       	ldd	r19, Y+30	; 0x1e
    22ba:	a2 ef       	ldi	r26, 0xF2	; 242
    22bc:	bf ef       	ldi	r27, 0xFF	; 255
    22be:	0e 94 ab 32 	call	0x6556	; 0x6556 <__mulhisi3>
    22c2:	46 0e       	add	r4, r22
    22c4:	57 1e       	adc	r5, r23
    22c6:	68 1e       	adc	r6, r24
    22c8:	79 1e       	adc	r7, r25
    acc += (int32_t)W_hr[15][15] * (int32_t)h_state[15];
    22ca:	2c e0       	ldi	r18, 0x0C	; 12
    22cc:	30 e0       	ldi	r19, 0x00	; 0
    22ce:	ab 89       	ldd	r26, Y+19	; 0x13
    22d0:	bc 89       	ldd	r27, Y+20	; 0x14
    22d2:	0e 94 c2 32 	call	0x6584	; 0x6584 <__usmulhisi3>
    22d6:	dc 01       	movw	r26, r24
    22d8:	cb 01       	movw	r24, r22
    22da:	84 0d       	add	r24, r4
    22dc:	95 1d       	adc	r25, r5
    22de:	a6 1d       	adc	r26, r6
    22e0:	b7 1d       	adc	r27, r7
    acc >>= FRAC_BITS;
    22e2:	46 e0       	ldi	r20, 0x06	; 6
    22e4:	b5 95       	asr	r27
    22e6:	a7 95       	ror	r26
    22e8:	97 95       	ror	r25
    22ea:	87 95       	ror	r24
    22ec:	4a 95       	dec	r20
    22ee:	d1 f7       	brne	.-12     	; 0x22e4 <__stack+0xe5>
static inline int16_t fp_mul(int16_t a, int16_t b) {
    return (int16_t)(((int32_t)a * (int32_t)b) >> FRAC_BITS);
}

static inline int16_t fp_sat32(int32_t v) {
    if (v > FP_MAX) return FP_MAX;
    22f0:	81 15       	cp	r24, r1
    22f2:	e0 e8       	ldi	r30, 0x80	; 128
    22f4:	9e 07       	cpc	r25, r30
    22f6:	a1 05       	cpc	r26, r1
    22f8:	b1 05       	cpc	r27, r1
    22fa:	14 f0       	brlt	.+4      	; 0x2300 <__stack+0x101>
    22fc:	0c 94 fa 31 	jmp	0x63f4	; 0x63f4 <__stack+0x41f5>
    if (v < FP_MIN) return FP_MIN;
    2300:	81 15       	cp	r24, r1
    2302:	f0 e8       	ldi	r31, 0x80	; 128
    2304:	9f 07       	cpc	r25, r31
    2306:	ff ef       	ldi	r31, 0xFF	; 255
    2308:	af 07       	cpc	r26, r31
    230a:	bf 07       	cpc	r27, r31
    230c:	14 f4       	brge	.+4      	; 0x2312 <__stack+0x113>
    230e:	0c 94 fe 31 	jmp	0x63fc	; 0x63fc <__stack+0x41fd>
    acc += (int32_t)W_hr[15][12] * (int32_t)h_state[12];
    acc += (int32_t)W_hr[15][13] * (int32_t)h_state[13];
    acc += (int32_t)W_hr[15][14] * (int32_t)h_state[14];
    acc += (int32_t)W_hr[15][15] * (int32_t)h_state[15];
    acc >>= FRAC_BITS;
    r[15] = fp_sigmoid(fp_sat32(acc));
    2312:	0e 94 b5 00 	call	0x16a	; 0x16a <_ZL10fp_sigmoidi>
    2316:	cb 56       	subi	r28, 0x6B	; 107
    2318:	de 4f       	sbci	r29, 0xFE	; 254
    231a:	99 83       	std	Y+1, r25	; 0x01
    231c:	88 83       	st	Y, r24
    231e:	c5 59       	subi	r28, 0x95	; 149
    2320:	d1 40       	sbci	r29, 0x01	; 1
    acc += (int32_t)W_iz[0][61] * (int32_t)x[61];
    acc += (int32_t)W_iz[0][62] * (int32_t)x[62];
    acc += (int32_t)W_iz[0][63] * (int32_t)x[63];
    acc >>= FRAC_BITS;
    acc += (int32_t)b_hz[0];
    acc += (int32_t)W_hz[0][0] * (int32_t)h_state[0];
    2322:	2b 85       	ldd	r18, Y+11	; 0x0b
    2324:	3c 85       	ldd	r19, Y+12	; 0x0c
    2326:	ae ef       	ldi	r26, 0xFE	; 254
    2328:	bf ef       	ldi	r27, 0xFF	; 255
    232a:	0e 94 ab 32 	call	0x6556	; 0x6556 <__mulhisi3>
    232e:	2b 01       	movw	r4, r22
    2330:	3c 01       	movw	r6, r24
    2332:	2c e9       	ldi	r18, 0x9C	; 156
    2334:	42 1a       	sub	r4, r18
    2336:	51 08       	sbc	r5, r1
    2338:	61 08       	sbc	r6, r1
    233a:	71 08       	sbc	r7, r1
    acc += (int32_t)W_hz[0][1] * (int32_t)h_state[1];
    233c:	2f 81       	ldd	r18, Y+7	; 0x07
    233e:	38 85       	ldd	r19, Y+8	; 0x08
    2340:	ad ef       	ldi	r26, 0xFD	; 253
    2342:	bf ef       	ldi	r27, 0xFF	; 255
    2344:	0e 94 ab 32 	call	0x6556	; 0x6556 <__mulhisi3>
    2348:	46 0e       	add	r4, r22
    234a:	57 1e       	adc	r5, r23
    234c:	68 1e       	adc	r6, r24
    234e:	79 1e       	adc	r7, r25
    acc += (int32_t)W_hz[0][2] * (int32_t)h_state[2];
    2350:	2d 89       	ldd	r18, Y+21	; 0x15
    2352:	3e 89       	ldd	r19, Y+22	; 0x16
    2354:	a8 ef       	ldi	r26, 0xF8	; 248
    2356:	bf ef       	ldi	r27, 0xFF	; 255
    2358:	0e 94 ab 32 	call	0x6556	; 0x6556 <__mulhisi3>
    235c:	46 0e       	add	r4, r22
    235e:	57 1e       	adc	r5, r23
    2360:	68 1e       	adc	r6, r24
    2362:	79 1e       	adc	r7, r25
    acc += (int32_t)W_hz[0][3] * (int32_t)h_state[3];
    2364:	29 e1       	ldi	r18, 0x19	; 25
    2366:	30 e0       	ldi	r19, 0x00	; 0
    2368:	d1 01       	movw	r26, r2
    236a:	0e 94 c2 32 	call	0x6584	; 0x6584 <__usmulhisi3>
    236e:	46 0e       	add	r4, r22
    2370:	57 1e       	adc	r5, r23
    2372:	68 1e       	adc	r6, r24
    2374:	79 1e       	adc	r7, r25
    acc += (int32_t)W_hz[0][4] * (int32_t)h_state[4];
    2376:	2d 81       	ldd	r18, Y+5	; 0x05
    2378:	3e 81       	ldd	r19, Y+6	; 0x06
    237a:	a9 ee       	ldi	r26, 0xE9	; 233
    237c:	bf ef       	ldi	r27, 0xFF	; 255
    237e:	0e 94 ab 32 	call	0x6556	; 0x6556 <__mulhisi3>
    2382:	46 0e       	add	r4, r22
    2384:	57 1e       	adc	r5, r23
    2386:	68 1e       	adc	r6, r24
    2388:	79 1e       	adc	r7, r25
    acc += (int32_t)W_hz[0][5] * (int32_t)h_state[5];
    238a:	2d 85       	ldd	r18, Y+13	; 0x0d
    238c:	3e 85       	ldd	r19, Y+14	; 0x0e
    238e:	a6 ee       	ldi	r26, 0xE6	; 230
    2390:	bf ef       	ldi	r27, 0xFF	; 255
    2392:	0e 94 ab 32 	call	0x6556	; 0x6556 <__mulhisi3>
    2396:	cd 5c       	subi	r28, 0xCD	; 205
    2398:	de 4f       	sbci	r29, 0xFE	; 254
    239a:	68 83       	st	Y, r22
    239c:	79 83       	std	Y+1, r23	; 0x01
    239e:	8a 83       	std	Y+2, r24	; 0x02
    23a0:	9b 83       	std	Y+3, r25	; 0x03
    23a2:	c3 53       	subi	r28, 0x33	; 51
    23a4:	d1 40       	sbci	r29, 0x01	; 1
    23a6:	46 0e       	add	r4, r22
    23a8:	57 1e       	adc	r5, r23
    23aa:	68 1e       	adc	r6, r24
    23ac:	79 1e       	adc	r7, r25
    acc += (int32_t)W_hz[0][6] * (int32_t)h_state[6];
    23ae:	28 e2       	ldi	r18, 0x28	; 40
    23b0:	30 e0       	ldi	r19, 0x00	; 0
    23b2:	c9 56       	subi	r28, 0x69	; 105
    23b4:	de 4f       	sbci	r29, 0xFE	; 254
    23b6:	a8 81       	ld	r26, Y
    23b8:	b9 81       	ldd	r27, Y+1	; 0x01
    23ba:	c7 59       	subi	r28, 0x97	; 151
    23bc:	d1 40       	sbci	r29, 0x01	; 1
    23be:	0e 94 c2 32 	call	0x6584	; 0x6584 <__usmulhisi3>
    23c2:	46 0e       	add	r4, r22
    23c4:	57 1e       	adc	r5, r23
    23c6:	68 1e       	adc	r6, r24
    23c8:	79 1e       	adc	r7, r25
    acc += (int32_t)W_hz[0][7] * (int32_t)h_state[7];
    23ca:	c9 55       	subi	r28, 0x59	; 89
    23cc:	df 4f       	sbci	r29, 0xFF	; 255
    23ce:	88 81       	ld	r24, Y
    23d0:	99 81       	ldd	r25, Y+1	; 0x01
    23d2:	aa 81       	ldd	r26, Y+2	; 0x02
    23d4:	bb 81       	ldd	r27, Y+3	; 0x03
    23d6:	c7 5a       	subi	r28, 0xA7	; 167
    23d8:	d0 40       	sbci	r29, 0x00	; 0
    23da:	48 0e       	add	r4, r24
    23dc:	59 1e       	adc	r5, r25
    23de:	6a 1e       	adc	r6, r26
    23e0:	7b 1e       	adc	r7, r27
    acc += (int32_t)W_hz[0][8] * (int32_t)h_state[8];
    23e2:	2d e2       	ldi	r18, 0x2D	; 45
    23e4:	30 e0       	ldi	r19, 0x00	; 0
    23e6:	af 89       	ldd	r26, Y+23	; 0x17
    23e8:	b8 8d       	ldd	r27, Y+24	; 0x18
    23ea:	0e 94 c2 32 	call	0x6584	; 0x6584 <__usmulhisi3>
    23ee:	46 0e       	add	r4, r22
    23f0:	57 1e       	adc	r5, r23
    23f2:	68 1e       	adc	r6, r24
    23f4:	79 1e       	adc	r7, r25
    acc += (int32_t)W_hz[0][9] * (int32_t)h_state[9];
    23f6:	84 0c       	add	r8, r4
    23f8:	95 1c       	adc	r9, r5
    23fa:	a6 1c       	adc	r10, r6
    23fc:	b7 1c       	adc	r11, r7
    acc += (int32_t)W_hz[0][10] * (int32_t)h_state[10];
    23fe:	c5 55       	subi	r28, 0x55	; 85
    2400:	df 4f       	sbci	r29, 0xFF	; 255
    2402:	28 81       	ld	r18, Y
    2404:	39 81       	ldd	r19, Y+1	; 0x01
    2406:	4a 81       	ldd	r20, Y+2	; 0x02
    2408:	5b 81       	ldd	r21, Y+3	; 0x03
    240a:	cb 5a       	subi	r28, 0xAB	; 171
    240c:	d0 40       	sbci	r29, 0x00	; 0
    240e:	82 0e       	add	r8, r18
    2410:	93 1e       	adc	r9, r19
    2412:	a4 1e       	adc	r10, r20
    2414:	b5 1e       	adc	r11, r21
    acc += (int32_t)W_hz[0][11] * (int32_t)h_state[11];
    2416:	29 8d       	ldd	r18, Y+25	; 0x19
    2418:	3a 8d       	ldd	r19, Y+26	; 0x1a
    241a:	a5 ed       	ldi	r26, 0xD5	; 213
    241c:	bf ef       	ldi	r27, 0xFF	; 255
    241e:	0e 94 ab 32 	call	0x6556	; 0x6556 <__mulhisi3>
    2422:	86 0e       	add	r8, r22
    2424:	97 1e       	adc	r9, r23
    2426:	a8 1e       	adc	r10, r24
    2428:	b9 1e       	adc	r11, r25
    acc += (int32_t)W_hz[0][12] * (int32_t)h_state[12];
    242a:	2e e3       	ldi	r18, 0x3E	; 62
    242c:	30 e0       	ldi	r19, 0x00	; 0
    242e:	d8 01       	movw	r26, r16
    2430:	0e 94 c2 32 	call	0x6584	; 0x6584 <__usmulhisi3>
    2434:	86 0e       	add	r8, r22
    2436:	97 1e       	adc	r9, r23
    2438:	a8 1e       	adc	r10, r24
    243a:	b9 1e       	adc	r11, r25
    acc += (int32_t)W_hz[0][13] * (int32_t)h_state[13];
    243c:	2b 8d       	ldd	r18, Y+27	; 0x1b
    243e:	3c 8d       	ldd	r19, Y+28	; 0x1c
    2440:	af ed       	ldi	r26, 0xDF	; 223
    2442:	bf ef       	ldi	r27, 0xFF	; 255
    2444:	0e 94 ab 32 	call	0x6556	; 0x6556 <__mulhisi3>
    2448:	86 0e       	add	r8, r22
    244a:	97 1e       	adc	r9, r23
    244c:	a8 1e       	adc	r10, r24
    244e:	b9 1e       	adc	r11, r25
    acc += (int32_t)W_hz[0][14] * (int32_t)h_state[14];
    2450:	2d 8d       	ldd	r18, Y+29	; 0x1d
    2452:	3e 8d       	ldd	r19, Y+30	; 0x1e
    2454:	a6 ed       	ldi	r26, 0xD6	; 214
    2456:	bf ef       	ldi	r27, 0xFF	; 255
    2458:	0e 94 ab 32 	call	0x6556	; 0x6556 <__mulhisi3>
    245c:	86 0e       	add	r8, r22
    245e:	97 1e       	adc	r9, r23
    2460:	a8 1e       	adc	r10, r24
    2462:	b9 1e       	adc	r11, r25
    acc += (int32_t)W_hz[0][15] * (int32_t)h_state[15];
    2464:	2b 89       	ldd	r18, Y+19	; 0x13
    2466:	3c 89       	ldd	r19, Y+20	; 0x14
    2468:	a4 ed       	ldi	r26, 0xD4	; 212
    246a:	bf ef       	ldi	r27, 0xFF	; 255
    246c:	0e 94 ab 32 	call	0x6556	; 0x6556 <__mulhisi3>
    2470:	dc 01       	movw	r26, r24
    2472:	cb 01       	movw	r24, r22
    2474:	88 0d       	add	r24, r8
    2476:	99 1d       	adc	r25, r9
    2478:	aa 1d       	adc	r26, r10
    247a:	bb 1d       	adc	r27, r11
    acc >>= FRAC_BITS;
    247c:	36 e0       	ldi	r19, 0x06	; 6
    247e:	b5 95       	asr	r27
    2480:	a7 95       	ror	r26
    2482:	97 95       	ror	r25
    2484:	87 95       	ror	r24
    2486:	3a 95       	dec	r19
    2488:	d1 f7       	brne	.-12     	; 0x247e <__stack+0x27f>
static inline int16_t fp_mul(int16_t a, int16_t b) {
    return (int16_t)(((int32_t)a * (int32_t)b) >> FRAC_BITS);
}

static inline int16_t fp_sat32(int32_t v) {
    if (v > FP_MAX) return FP_MAX;
    248a:	81 15       	cp	r24, r1
    248c:	30 e8       	ldi	r19, 0x80	; 128
    248e:	93 07       	cpc	r25, r19
    2490:	a1 05       	cpc	r26, r1
    2492:	b1 05       	cpc	r27, r1
    2494:	14 f0       	brlt	.+4      	; 0x249a <__stack+0x29b>
    2496:	0c 94 02 32 	jmp	0x6404	; 0x6404 <__stack+0x4205>
    if (v < FP_MIN) return FP_MIN;
    249a:	81 15       	cp	r24, r1
    249c:	40 e8       	ldi	r20, 0x80	; 128
    249e:	94 07       	cpc	r25, r20
    24a0:	4f ef       	ldi	r20, 0xFF	; 255
    24a2:	a4 07       	cpc	r26, r20
    24a4:	b4 07       	cpc	r27, r20
    24a6:	14 f4       	brge	.+4      	; 0x24ac <__stack+0x2ad>
    24a8:	0c 94 06 32 	jmp	0x640c	; 0x640c <__stack+0x420d>
    acc += (int32_t)W_hz[0][12] * (int32_t)h_state[12];
    acc += (int32_t)W_hz[0][13] * (int32_t)h_state[13];
    acc += (int32_t)W_hz[0][14] * (int32_t)h_state[14];
    acc += (int32_t)W_hz[0][15] * (int32_t)h_state[15];
    acc >>= FRAC_BITS;
    z[0] = fp_sigmoid(fp_sat32(acc));
    24ac:	0e 94 b5 00 	call	0x16a	; 0x16a <_ZL10fp_sigmoidi>
    24b0:	c9 55       	subi	r28, 0x59	; 89
    24b2:	df 4f       	sbci	r29, 0xFF	; 255
    24b4:	99 83       	std	Y+1, r25	; 0x01
    24b6:	88 83       	st	Y, r24
    24b8:	c7 5a       	subi	r28, 0xA7	; 167
    24ba:	d0 40       	sbci	r29, 0x00	; 0
    acc += (int32_t)W_iz[1][61] * (int32_t)x[61];
    acc += (int32_t)W_iz[1][62] * (int32_t)x[62];
    acc += (int32_t)W_iz[1][63] * (int32_t)x[63];
    acc >>= FRAC_BITS;
    acc += (int32_t)b_hz[1];
    acc += (int32_t)W_hz[1][0] * (int32_t)h_state[0];
    24bc:	8b a9       	ldd	r24, Y+51	; 0x33
    24be:	9c a9       	ldd	r25, Y+52	; 0x34
    24c0:	ad a9       	ldd	r26, Y+53	; 0x35
    24c2:	be a9       	ldd	r27, Y+54	; 0x36
    24c4:	f3 e0       	ldi	r31, 0x03	; 3
    24c6:	88 0f       	add	r24, r24
    24c8:	99 1f       	adc	r25, r25
    24ca:	aa 1f       	adc	r26, r26
    24cc:	bb 1f       	adc	r27, r27
    24ce:	fa 95       	dec	r31
    24d0:	d1 f7       	brne	.-12     	; 0x24c6 <__stack+0x2c7>
    24d2:	8b ab       	std	Y+51, r24	; 0x33
    24d4:	9c ab       	std	Y+52, r25	; 0x34
    24d6:	ad ab       	std	Y+53, r26	; 0x35
    24d8:	be ab       	std	Y+54, r27	; 0x36
    24da:	4c 01       	movw	r8, r24
    24dc:	5d 01       	movw	r10, r26
    24de:	9c e0       	ldi	r25, 0x0C	; 12
    24e0:	89 1a       	sub	r8, r25
    24e2:	91 08       	sbc	r9, r1
    24e4:	a1 08       	sbc	r10, r1
    24e6:	b1 08       	sbc	r11, r1
    acc += (int32_t)W_hz[1][1] * (int32_t)h_state[1];
    24e8:	2b e3       	ldi	r18, 0x3B	; 59
    24ea:	30 e0       	ldi	r19, 0x00	; 0
    24ec:	af 81       	ldd	r26, Y+7	; 0x07
    24ee:	b8 85       	ldd	r27, Y+8	; 0x08
    24f0:	0e 94 c2 32 	call	0x6584	; 0x6584 <__usmulhisi3>
    24f4:	86 0e       	add	r8, r22
    24f6:	97 1e       	adc	r9, r23
    24f8:	a8 1e       	adc	r10, r24
    24fa:	b9 1e       	adc	r11, r25
    acc += (int32_t)W_hz[1][2] * (int32_t)h_state[2];
    24fc:	2d 89       	ldd	r18, Y+21	; 0x15
    24fe:	3e 89       	ldd	r19, Y+22	; 0x16
    2500:	ae ed       	ldi	r26, 0xDE	; 222
    2502:	bf ef       	ldi	r27, 0xFF	; 255
    2504:	0e 94 ab 32 	call	0x6556	; 0x6556 <__mulhisi3>
    2508:	86 0e       	add	r8, r22
    250a:	97 1e       	adc	r9, r23
    250c:	a8 1e       	adc	r10, r24
    250e:	b9 1e       	adc	r11, r25
    acc += (int32_t)W_hz[1][3] * (int32_t)h_state[3];
    2510:	91 01       	movw	r18, r2
    2512:	a4 ef       	ldi	r26, 0xF4	; 244
    2514:	bf ef       	ldi	r27, 0xFF	; 255
    2516:	0e 94 ab 32 	call	0x6556	; 0x6556 <__mulhisi3>
    251a:	86 0e       	add	r8, r22
    251c:	97 1e       	adc	r9, r23
    251e:	a8 1e       	adc	r10, r24
    2520:	b9 1e       	adc	r11, r25
    acc += (int32_t)W_hz[1][4] * (int32_t)h_state[4];
    2522:	2d 81       	ldd	r18, Y+5	; 0x05
    2524:	3e 81       	ldd	r19, Y+6	; 0x06
    2526:	a8 ed       	ldi	r26, 0xD8	; 216
    2528:	bf ef       	ldi	r27, 0xFF	; 255
    252a:	0e 94 ab 32 	call	0x6556	; 0x6556 <__mulhisi3>
    252e:	86 0e       	add	r8, r22
    2530:	97 1e       	adc	r9, r23
    2532:	a8 1e       	adc	r10, r24
    2534:	b9 1e       	adc	r11, r25
    acc += (int32_t)W_hz[1][5] * (int32_t)h_state[5];
    2536:	22 e1       	ldi	r18, 0x12	; 18
    2538:	30 e0       	ldi	r19, 0x00	; 0
    253a:	ad 85       	ldd	r26, Y+13	; 0x0d
    253c:	be 85       	ldd	r27, Y+14	; 0x0e
    253e:	0e 94 c2 32 	call	0x6584	; 0x6584 <__usmulhisi3>
    2542:	86 0e       	add	r8, r22
    2544:	97 1e       	adc	r9, r23
    2546:	a8 1e       	adc	r10, r24
    2548:	b9 1e       	adc	r11, r25
    acc += (int32_t)W_hz[1][6] * (int32_t)h_state[6];
    254a:	c9 56       	subi	r28, 0x69	; 105
    254c:	de 4f       	sbci	r29, 0xFE	; 254
    254e:	28 81       	ld	r18, Y
    2550:	39 81       	ldd	r19, Y+1	; 0x01
    2552:	c7 59       	subi	r28, 0x97	; 151
    2554:	d1 40       	sbci	r29, 0x01	; 1
    2556:	a7 ef       	ldi	r26, 0xF7	; 247
    2558:	bf ef       	ldi	r27, 0xFF	; 255
    255a:	0e 94 ab 32 	call	0x6556	; 0x6556 <__mulhisi3>
    255e:	86 0e       	add	r8, r22
    2560:	97 1e       	adc	r9, r23
    2562:	a8 1e       	adc	r10, r24
    2564:	b9 1e       	adc	r11, r25
    acc += (int32_t)W_hz[1][7] * (int32_t)h_state[7];
    2566:	29 89       	ldd	r18, Y+17	; 0x11
    2568:	3a 89       	ldd	r19, Y+18	; 0x12
    256a:	a4 ec       	ldi	r26, 0xC4	; 196
    256c:	bf ef       	ldi	r27, 0xFF	; 255
    256e:	0e 94 ab 32 	call	0x6556	; 0x6556 <__mulhisi3>
    2572:	86 0e       	add	r8, r22
    2574:	97 1e       	adc	r9, r23
    2576:	a8 1e       	adc	r10, r24
    2578:	b9 1e       	adc	r11, r25
    acc += (int32_t)W_hz[1][8] * (int32_t)h_state[8];
    257a:	2f e0       	ldi	r18, 0x0F	; 15
    257c:	30 e0       	ldi	r19, 0x00	; 0
    257e:	af 89       	ldd	r26, Y+23	; 0x17
    2580:	b8 8d       	ldd	r27, Y+24	; 0x18
    2582:	0e 94 c2 32 	call	0x6584	; 0x6584 <__usmulhisi3>
    2586:	c5 55       	subi	r28, 0x55	; 85
    2588:	df 4f       	sbci	r29, 0xFF	; 255
    258a:	68 83       	st	Y, r22
    258c:	79 83       	std	Y+1, r23	; 0x01
    258e:	8a 83       	std	Y+2, r24	; 0x02
    2590:	9b 83       	std	Y+3, r25	; 0x03
    2592:	cb 5a       	subi	r28, 0xAB	; 171
    2594:	d0 40       	sbci	r29, 0x00	; 0
    2596:	86 0e       	add	r8, r22
    2598:	97 1e       	adc	r9, r23
    259a:	a8 1e       	adc	r10, r24
    259c:	b9 1e       	adc	r11, r25
    acc += (int32_t)W_hz[1][9] * (int32_t)h_state[9];
    259e:	29 85       	ldd	r18, Y+9	; 0x09
    25a0:	3a 85       	ldd	r19, Y+10	; 0x0a
    25a2:	a9 ed       	ldi	r26, 0xD9	; 217
    25a4:	bf ef       	ldi	r27, 0xFF	; 255
    25a6:	0e 94 ab 32 	call	0x6556	; 0x6556 <__mulhisi3>
    25aa:	86 0e       	add	r8, r22
    25ac:	97 1e       	adc	r9, r23
    25ae:	a8 1e       	adc	r10, r24
    25b0:	b9 1e       	adc	r11, r25
    acc += (int32_t)W_hz[1][10] * (int32_t)h_state[10];
    25b2:	2c e0       	ldi	r18, 0x0C	; 12
    25b4:	30 e0       	ldi	r19, 0x00	; 0
    25b6:	af 85       	ldd	r26, Y+15	; 0x0f
    25b8:	b8 89       	ldd	r27, Y+16	; 0x10
    25ba:	0e 94 c2 32 	call	0x6584	; 0x6584 <__usmulhisi3>
    25be:	23 96       	adiw	r28, 0x03	; 3
    25c0:	6c af       	std	Y+60, r22	; 0x3c
    25c2:	7d af       	std	Y+61, r23	; 0x3d
    25c4:	8e af       	std	Y+62, r24	; 0x3e
    25c6:	9f af       	std	Y+63, r25	; 0x3f
    25c8:	23 97       	sbiw	r28, 0x03	; 3
    25ca:	86 0e       	add	r8, r22
    25cc:	97 1e       	adc	r9, r23
    25ce:	a8 1e       	adc	r10, r24
    25d0:	b9 1e       	adc	r11, r25
    acc += (int32_t)W_hz[1][11] * (int32_t)h_state[11];
    25d2:	29 8d       	ldd	r18, Y+25	; 0x19
    25d4:	3a 8d       	ldd	r19, Y+26	; 0x1a
    25d6:	a2 ef       	ldi	r26, 0xF2	; 242
    25d8:	bf ef       	ldi	r27, 0xFF	; 255
    25da:	0e 94 ab 32 	call	0x6556	; 0x6556 <__mulhisi3>
    25de:	c9 5c       	subi	r28, 0xC9	; 201
    25e0:	de 4f       	sbci	r29, 0xFE	; 254
    25e2:	68 83       	st	Y, r22
    25e4:	79 83       	std	Y+1, r23	; 0x01
    25e6:	8a 83       	std	Y+2, r24	; 0x02
    25e8:	9b 83       	std	Y+3, r25	; 0x03
    25ea:	c7 53       	subi	r28, 0x37	; 55
    25ec:	d1 40       	sbci	r29, 0x01	; 1
    25ee:	86 0e       	add	r8, r22
    25f0:	97 1e       	adc	r9, r23
    25f2:	a8 1e       	adc	r10, r24
    25f4:	b9 1e       	adc	r11, r25
    acc += (int32_t)W_hz[1][12] * (int32_t)h_state[12];
    25f6:	2a e1       	ldi	r18, 0x1A	; 26
    25f8:	30 e0       	ldi	r19, 0x00	; 0
    25fa:	d8 01       	movw	r26, r16
    25fc:	0e 94 c2 32 	call	0x6584	; 0x6584 <__usmulhisi3>
    2600:	86 0e       	add	r8, r22
    2602:	97 1e       	adc	r9, r23
    2604:	a8 1e       	adc	r10, r24
    2606:	b9 1e       	adc	r11, r25
    acc += (int32_t)W_hz[1][13] * (int32_t)h_state[13];
    2608:	2b 8d       	ldd	r18, Y+27	; 0x1b
    260a:	3c 8d       	ldd	r19, Y+28	; 0x1c
    260c:	aa ed       	ldi	r26, 0xDA	; 218
    260e:	bf ef       	ldi	r27, 0xFF	; 255
    2610:	0e 94 ab 32 	call	0x6556	; 0x6556 <__mulhisi3>
    2614:	2b 01       	movw	r4, r22
    2616:	3c 01       	movw	r6, r24
    2618:	84 0c       	add	r8, r4
    261a:	95 1c       	adc	r9, r5
    261c:	a6 1c       	adc	r10, r6
    261e:	b7 1c       	adc	r11, r7
    acc += (int32_t)W_hz[1][14] * (int32_t)h_state[14];
    2620:	2b a1       	ldd	r18, Y+35	; 0x23
    2622:	3c a1       	ldd	r19, Y+36	; 0x24
    2624:	4d a1       	ldd	r20, Y+37	; 0x25
    2626:	5e a1       	ldd	r21, Y+38	; 0x26
    2628:	a5 e0       	ldi	r26, 0x05	; 5
    262a:	22 0f       	add	r18, r18
    262c:	33 1f       	adc	r19, r19
    262e:	44 1f       	adc	r20, r20
    2630:	55 1f       	adc	r21, r21
    2632:	aa 95       	dec	r26
    2634:	d1 f7       	brne	.-12     	; 0x262a <__stack+0x42b>
    2636:	c5 5c       	subi	r28, 0xC5	; 197
    2638:	de 4f       	sbci	r29, 0xFE	; 254
    263a:	28 83       	st	Y, r18
    263c:	39 83       	std	Y+1, r19	; 0x01
    263e:	4a 83       	std	Y+2, r20	; 0x02
    2640:	5b 83       	std	Y+3, r21	; 0x03
    2642:	cb 53       	subi	r28, 0x3B	; 59
    2644:	d1 40       	sbci	r29, 0x01	; 1
    2646:	82 0e       	add	r8, r18
    2648:	93 1e       	adc	r9, r19
    264a:	a4 1e       	adc	r10, r20
    264c:	b5 1e       	adc	r11, r21
    acc += (int32_t)W_hz[1][15] * (int32_t)h_state[15];
    264e:	28 e2       	ldi	r18, 0x28	; 40
    2650:	30 e0       	ldi	r19, 0x00	; 0
    2652:	ab 89       	ldd	r26, Y+19	; 0x13
    2654:	bc 89       	ldd	r27, Y+20	; 0x14
    2656:	0e 94 c2 32 	call	0x6584	; 0x6584 <__usmulhisi3>
    265a:	dc 01       	movw	r26, r24
    265c:	cb 01       	movw	r24, r22
    265e:	88 0d       	add	r24, r8
    2660:	99 1d       	adc	r25, r9
    2662:	aa 1d       	adc	r26, r10
    2664:	bb 1d       	adc	r27, r11
    acc >>= FRAC_BITS;
    2666:	26 e0       	ldi	r18, 0x06	; 6
    2668:	b5 95       	asr	r27
    266a:	a7 95       	ror	r26
    266c:	97 95       	ror	r25
    266e:	87 95       	ror	r24
    2670:	2a 95       	dec	r18
    2672:	d1 f7       	brne	.-12     	; 0x2668 <__stack+0x469>
static inline int16_t fp_mul(int16_t a, int16_t b) {
    return (int16_t)(((int32_t)a * (int32_t)b) >> FRAC_BITS);
}

static inline int16_t fp_sat32(int32_t v) {
    if (v > FP_MAX) return FP_MAX;
    2674:	81 15       	cp	r24, r1
    2676:	30 e8       	ldi	r19, 0x80	; 128
    2678:	93 07       	cpc	r25, r19
    267a:	a1 05       	cpc	r26, r1
    267c:	b1 05       	cpc	r27, r1
    267e:	14 f0       	brlt	.+4      	; 0x2684 <__stack+0x485>
    2680:	0c 94 0a 32 	jmp	0x6414	; 0x6414 <__stack+0x4215>
    if (v < FP_MIN) return FP_MIN;
    2684:	81 15       	cp	r24, r1
    2686:	40 e8       	ldi	r20, 0x80	; 128
    2688:	94 07       	cpc	r25, r20
    268a:	4f ef       	ldi	r20, 0xFF	; 255
    268c:	a4 07       	cpc	r26, r20
    268e:	b4 07       	cpc	r27, r20
    2690:	14 f4       	brge	.+4      	; 0x2696 <__stack+0x497>
    2692:	0c 94 0e 32 	jmp	0x641c	; 0x641c <__stack+0x421d>
    acc += (int32_t)W_hz[1][12] * (int32_t)h_state[12];
    acc += (int32_t)W_hz[1][13] * (int32_t)h_state[13];
    acc += (int32_t)W_hz[1][14] * (int32_t)h_state[14];
    acc += (int32_t)W_hz[1][15] * (int32_t)h_state[15];
    acc >>= FRAC_BITS;
    z[1] = fp_sigmoid(fp_sat32(acc));
    2696:	0e 94 b5 00 	call	0x16a	; 0x16a <_ZL10fp_sigmoidi>
    269a:	c1 5c       	subi	r28, 0xC1	; 193
    269c:	de 4f       	sbci	r29, 0xFE	; 254
    269e:	99 83       	std	Y+1, r25	; 0x01
    26a0:	88 83       	st	Y, r24
    26a2:	cf 53       	subi	r28, 0x3F	; 63
    26a4:	d1 40       	sbci	r29, 0x01	; 1
    acc += (int32_t)W_iz[2][61] * (int32_t)x[61];
    acc += (int32_t)W_iz[2][62] * (int32_t)x[62];
    acc += (int32_t)W_iz[2][63] * (int32_t)x[63];
    acc >>= FRAC_BITS;
    acc += (int32_t)b_hz[2];
    acc += (int32_t)W_hz[2][0] * (int32_t)h_state[0];
    26a6:	a7 96       	adiw	r28, 0x27	; 39
    26a8:	8c ac       	ldd	r8, Y+60	; 0x3c
    26aa:	9d ac       	ldd	r9, Y+61	; 0x3d
    26ac:	ae ac       	ldd	r10, Y+62	; 0x3e
    26ae:	bf ac       	ldd	r11, Y+63	; 0x3f
    26b0:	a7 97       	sbiw	r28, 0x27	; 39
    26b2:	5c e7       	ldi	r21, 0x7C	; 124
    26b4:	85 1a       	sub	r8, r21
    26b6:	91 08       	sbc	r9, r1
    26b8:	a1 08       	sbc	r10, r1
    26ba:	b1 08       	sbc	r11, r1
    acc += (int32_t)W_hz[2][1] * (int32_t)h_state[1];
    26bc:	2f 96       	adiw	r28, 0x0f	; 15
    26be:	8c ad       	ldd	r24, Y+60	; 0x3c
    26c0:	9d ad       	ldd	r25, Y+61	; 0x3d
    26c2:	ae ad       	ldd	r26, Y+62	; 0x3e
    26c4:	bf ad       	ldd	r27, Y+63	; 0x3f
    26c6:	2f 97       	sbiw	r28, 0x0f	; 15
    26c8:	88 0e       	add	r8, r24
    26ca:	99 1e       	adc	r9, r25
    26cc:	aa 1e       	adc	r10, r26
    26ce:	bb 1e       	adc	r11, r27
    acc += (int32_t)W_hz[2][2] * (int32_t)h_state[2];
    26d0:	20 e3       	ldi	r18, 0x30	; 48
    26d2:	30 e0       	ldi	r19, 0x00	; 0
    26d4:	ad 89       	ldd	r26, Y+21	; 0x15
    26d6:	be 89       	ldd	r27, Y+22	; 0x16
    26d8:	0e 94 c2 32 	call	0x6584	; 0x6584 <__usmulhisi3>
    26dc:	86 0e       	add	r8, r22
    26de:	97 1e       	adc	r9, r23
    26e0:	a8 1e       	adc	r10, r24
    26e2:	b9 1e       	adc	r11, r25
    acc += (int32_t)W_hz[2][3] * (int32_t)h_state[3];
    26e4:	91 01       	movw	r18, r2
    26e6:	a8 ed       	ldi	r26, 0xD8	; 216
    26e8:	bf ef       	ldi	r27, 0xFF	; 255
    26ea:	0e 94 ab 32 	call	0x6556	; 0x6556 <__mulhisi3>
    26ee:	86 0e       	add	r8, r22
    26f0:	97 1e       	adc	r9, r23
    26f2:	a8 1e       	adc	r10, r24
    26f4:	b9 1e       	adc	r11, r25
    acc += (int32_t)W_hz[2][4] * (int32_t)h_state[4];
    26f6:	2d 81       	ldd	r18, Y+5	; 0x05
    26f8:	3e 81       	ldd	r19, Y+6	; 0x06
    26fa:	aa ee       	ldi	r26, 0xEA	; 234
    26fc:	bf ef       	ldi	r27, 0xFF	; 255
    26fe:	0e 94 ab 32 	call	0x6556	; 0x6556 <__mulhisi3>
    2702:	86 0e       	add	r8, r22
    2704:	97 1e       	adc	r9, r23
    2706:	a8 1e       	adc	r10, r24
    2708:	b9 1e       	adc	r11, r25
    acc += (int32_t)W_hz[2][5] * (int32_t)h_state[5];
    270a:	2d 85       	ldd	r18, Y+13	; 0x0d
    270c:	3e 85       	ldd	r19, Y+14	; 0x0e
    270e:	ab ef       	ldi	r26, 0xFB	; 251
    2710:	bf ef       	ldi	r27, 0xFF	; 255
    2712:	0e 94 ab 32 	call	0x6556	; 0x6556 <__mulhisi3>
    2716:	86 0e       	add	r8, r22
    2718:	97 1e       	adc	r9, r23
    271a:	a8 1e       	adc	r10, r24
    271c:	b9 1e       	adc	r11, r25
    acc += (int32_t)W_hz[2][6] * (int32_t)h_state[6];
    271e:	c9 56       	subi	r28, 0x69	; 105
    2720:	de 4f       	sbci	r29, 0xFE	; 254
    2722:	28 81       	ld	r18, Y
    2724:	39 81       	ldd	r19, Y+1	; 0x01
    2726:	c7 59       	subi	r28, 0x97	; 151
    2728:	d1 40       	sbci	r29, 0x01	; 1
    272a:	a2 ee       	ldi	r26, 0xE2	; 226
    272c:	bf ef       	ldi	r27, 0xFF	; 255
    272e:	0e 94 ab 32 	call	0x6556	; 0x6556 <__mulhisi3>
    2732:	86 0e       	add	r8, r22
    2734:	97 1e       	adc	r9, r23
    2736:	a8 1e       	adc	r10, r24
    2738:	b9 1e       	adc	r11, r25
    acc += (int32_t)W_hz[2][7] * (int32_t)h_state[7];
    273a:	2e e2       	ldi	r18, 0x2E	; 46
    273c:	30 e0       	ldi	r19, 0x00	; 0
    273e:	a9 89       	ldd	r26, Y+17	; 0x11
    2740:	ba 89       	ldd	r27, Y+18	; 0x12
    2742:	0e 94 c2 32 	call	0x6584	; 0x6584 <__usmulhisi3>
    2746:	86 0e       	add	r8, r22
    2748:	97 1e       	adc	r9, r23
    274a:	a8 1e       	adc	r10, r24
    274c:	b9 1e       	adc	r11, r25
    acc += (int32_t)W_hz[2][8] * (int32_t)h_state[8];
    274e:	2f 89       	ldd	r18, Y+23	; 0x17
    2750:	38 8d       	ldd	r19, Y+24	; 0x18
    2752:	03 2e       	mov	r0, r19
    2754:	00 0c       	add	r0, r0
    2756:	44 0b       	sbc	r20, r20
    2758:	55 0b       	sbc	r21, r21
    275a:	cd 58       	subi	r28, 0x8D	; 141
    275c:	de 4f       	sbci	r29, 0xFE	; 254
    275e:	28 83       	st	Y, r18
    2760:	39 83       	std	Y+1, r19	; 0x01
    2762:	4a 83       	std	Y+2, r20	; 0x02
    2764:	5b 83       	std	Y+3, r21	; 0x03
    2766:	c3 57       	subi	r28, 0x73	; 115
    2768:	d1 40       	sbci	r29, 0x01	; 1
    276a:	72 e0       	ldi	r23, 0x02	; 2
    276c:	22 0f       	add	r18, r18
    276e:	33 1f       	adc	r19, r19
    2770:	44 1f       	adc	r20, r20
    2772:	55 1f       	adc	r21, r21
    2774:	7a 95       	dec	r23
    2776:	d1 f7       	brne	.-12     	; 0x276c <__stack+0x56d>
    2778:	cf 5b       	subi	r28, 0xBF	; 191
    277a:	de 4f       	sbci	r29, 0xFE	; 254
    277c:	28 83       	st	Y, r18
    277e:	39 83       	std	Y+1, r19	; 0x01
    2780:	4a 83       	std	Y+2, r20	; 0x02
    2782:	5b 83       	std	Y+3, r21	; 0x03
    2784:	c1 54       	subi	r28, 0x41	; 65
    2786:	d1 40       	sbci	r29, 0x01	; 1
    2788:	82 0e       	add	r8, r18
    278a:	93 1e       	adc	r9, r19
    278c:	a4 1e       	adc	r10, r20
    278e:	b5 1e       	adc	r11, r21
    acc += (int32_t)W_hz[2][9] * (int32_t)h_state[9];
    2790:	22 e1       	ldi	r18, 0x12	; 18
    2792:	30 e0       	ldi	r19, 0x00	; 0
    2794:	a9 85       	ldd	r26, Y+9	; 0x09
    2796:	ba 85       	ldd	r27, Y+10	; 0x0a
    2798:	0e 94 c2 32 	call	0x6584	; 0x6584 <__usmulhisi3>
    279c:	cb 5b       	subi	r28, 0xBB	; 187
    279e:	de 4f       	sbci	r29, 0xFE	; 254
    27a0:	68 83       	st	Y, r22
    27a2:	79 83       	std	Y+1, r23	; 0x01
    27a4:	8a 83       	std	Y+2, r24	; 0x02
    27a6:	9b 83       	std	Y+3, r25	; 0x03
    27a8:	c5 54       	subi	r28, 0x45	; 69
    27aa:	d1 40       	sbci	r29, 0x01	; 1
    27ac:	86 0e       	add	r8, r22
    27ae:	97 1e       	adc	r9, r23
    27b0:	a8 1e       	adc	r10, r24
    27b2:	b9 1e       	adc	r11, r25
    acc += (int32_t)W_hz[2][10] * (int32_t)h_state[10];
    27b4:	23 96       	adiw	r28, 0x03	; 3
    27b6:	8c ad       	ldd	r24, Y+60	; 0x3c
    27b8:	9d ad       	ldd	r25, Y+61	; 0x3d
    27ba:	ae ad       	ldd	r26, Y+62	; 0x3e
    27bc:	bf ad       	ldd	r27, Y+63	; 0x3f
    27be:	23 97       	sbiw	r28, 0x03	; 3
    27c0:	88 0e       	add	r8, r24
    27c2:	99 1e       	adc	r9, r25
    27c4:	aa 1e       	adc	r10, r26
    27c6:	bb 1e       	adc	r11, r27
    acc += (int32_t)W_hz[2][11] * (int32_t)h_state[11];
    27c8:	2e e0       	ldi	r18, 0x0E	; 14
    27ca:	30 e0       	ldi	r19, 0x00	; 0
    27cc:	a9 8d       	ldd	r26, Y+25	; 0x19
    27ce:	ba 8d       	ldd	r27, Y+26	; 0x1a
    27d0:	0e 94 c2 32 	call	0x6584	; 0x6584 <__usmulhisi3>
    27d4:	86 0e       	add	r8, r22
    27d6:	97 1e       	adc	r9, r23
    27d8:	a8 1e       	adc	r10, r24
    27da:	b9 1e       	adc	r11, r25
    acc += (int32_t)W_hz[2][12] * (int32_t)h_state[12];
    27dc:	2b e0       	ldi	r18, 0x0B	; 11
    27de:	30 e0       	ldi	r19, 0x00	; 0
    27e0:	d8 01       	movw	r26, r16
    27e2:	0e 94 c2 32 	call	0x6584	; 0x6584 <__usmulhisi3>
    27e6:	c7 5b       	subi	r28, 0xB7	; 183
    27e8:	de 4f       	sbci	r29, 0xFE	; 254
    27ea:	68 83       	st	Y, r22
    27ec:	79 83       	std	Y+1, r23	; 0x01
    27ee:	8a 83       	std	Y+2, r24	; 0x02
    27f0:	9b 83       	std	Y+3, r25	; 0x03
    27f2:	c9 54       	subi	r28, 0x49	; 73
    27f4:	d1 40       	sbci	r29, 0x01	; 1
    27f6:	86 0e       	add	r8, r22
    27f8:	97 1e       	adc	r9, r23
    27fa:	a8 1e       	adc	r10, r24
    27fc:	b9 1e       	adc	r11, r25
    acc += (int32_t)W_hz[2][13] * (int32_t)h_state[13];
    27fe:	c8 0c       	add	r12, r8
    2800:	d9 1c       	adc	r13, r9
    2802:	ea 1c       	adc	r14, r10
    2804:	fb 1c       	adc	r15, r11
    acc += (int32_t)W_hz[2][14] * (int32_t)h_state[14];
    2806:	2c e2       	ldi	r18, 0x2C	; 44
    2808:	30 e0       	ldi	r19, 0x00	; 0
    280a:	ad 8d       	ldd	r26, Y+29	; 0x1d
    280c:	be 8d       	ldd	r27, Y+30	; 0x1e
    280e:	0e 94 c2 32 	call	0x6584	; 0x6584 <__usmulhisi3>
    2812:	dc 01       	movw	r26, r24
    2814:	cb 01       	movw	r24, r22
    2816:	8c 0d       	add	r24, r12
    2818:	9d 1d       	adc	r25, r13
    281a:	ae 1d       	adc	r26, r14
    281c:	bf 1d       	adc	r27, r15
    acc += (int32_t)W_hz[2][15] * (int32_t)h_state[15];
    281e:	c1 56       	subi	r28, 0x61	; 97
    2820:	df 4f       	sbci	r29, 0xFF	; 255
    2822:	28 81       	ld	r18, Y
    2824:	39 81       	ldd	r19, Y+1	; 0x01
    2826:	4a 81       	ldd	r20, Y+2	; 0x02
    2828:	5b 81       	ldd	r21, Y+3	; 0x03
    282a:	cf 59       	subi	r28, 0x9F	; 159
    282c:	d0 40       	sbci	r29, 0x00	; 0
    282e:	82 0f       	add	r24, r18
    2830:	93 1f       	adc	r25, r19
    2832:	a4 1f       	adc	r26, r20
    2834:	b5 1f       	adc	r27, r21
    acc >>= FRAC_BITS;
    2836:	e6 e0       	ldi	r30, 0x06	; 6
    2838:	b5 95       	asr	r27
    283a:	a7 95       	ror	r26
    283c:	97 95       	ror	r25
    283e:	87 95       	ror	r24
    2840:	ea 95       	dec	r30
    2842:	d1 f7       	brne	.-12     	; 0x2838 <__stack+0x639>
static inline int16_t fp_mul(int16_t a, int16_t b) {
    return (int16_t)(((int32_t)a * (int32_t)b) >> FRAC_BITS);
}

static inline int16_t fp_sat32(int32_t v) {
    if (v > FP_MAX) return FP_MAX;
    2844:	81 15       	cp	r24, r1
    2846:	30 e8       	ldi	r19, 0x80	; 128
    2848:	93 07       	cpc	r25, r19
    284a:	a1 05       	cpc	r26, r1
    284c:	b1 05       	cpc	r27, r1
    284e:	14 f0       	brlt	.+4      	; 0x2854 <__stack+0x655>
    2850:	0c 94 12 32 	jmp	0x6424	; 0x6424 <__stack+0x4225>
    if (v < FP_MIN) return FP_MIN;
    2854:	81 15       	cp	r24, r1
    2856:	40 e8       	ldi	r20, 0x80	; 128
    2858:	94 07       	cpc	r25, r20
    285a:	4f ef       	ldi	r20, 0xFF	; 255
    285c:	a4 07       	cpc	r26, r20
    285e:	b4 07       	cpc	r27, r20
    2860:	14 f4       	brge	.+4      	; 0x2866 <__stack+0x667>
    2862:	0c 94 16 32 	jmp	0x642c	; 0x642c <__stack+0x422d>
    acc += (int32_t)W_hz[2][12] * (int32_t)h_state[12];
    acc += (int32_t)W_hz[2][13] * (int32_t)h_state[13];
    acc += (int32_t)W_hz[2][14] * (int32_t)h_state[14];
    acc += (int32_t)W_hz[2][15] * (int32_t)h_state[15];
    acc >>= FRAC_BITS;
    z[2] = fp_sigmoid(fp_sat32(acc));
    2866:	0e 94 b5 00 	call	0x16a	; 0x16a <_ZL10fp_sigmoidi>
    286a:	c1 56       	subi	r28, 0x61	; 97
    286c:	df 4f       	sbci	r29, 0xFF	; 255
    286e:	99 83       	std	Y+1, r25	; 0x01
    2870:	88 83       	st	Y, r24
    2872:	cf 59       	subi	r28, 0x9F	; 159
    2874:	d0 40       	sbci	r29, 0x00	; 0
    acc += (int32_t)W_iz[3][61] * (int32_t)x[61];
    acc += (int32_t)W_iz[3][62] * (int32_t)x[62];
    acc += (int32_t)W_iz[3][63] * (int32_t)x[63];
    acc >>= FRAC_BITS;
    acc += (int32_t)b_hz[3];
    acc += (int32_t)W_hz[3][0] * (int32_t)h_state[0];
    2876:	c9 80       	ldd	r12, Y+1	; 0x01
    2878:	da 80       	ldd	r13, Y+2	; 0x02
    287a:	eb 80       	ldd	r14, Y+3	; 0x03
    287c:	fc 80       	ldd	r15, Y+4	; 0x04
    287e:	5c ed       	ldi	r21, 0xDC	; 220
    2880:	c5 0e       	add	r12, r21
    2882:	d1 1c       	adc	r13, r1
    2884:	e1 1c       	adc	r14, r1
    2886:	f1 1c       	adc	r15, r1
    acc += (int32_t)W_hz[3][1] * (int32_t)h_state[1];
    2888:	2a e1       	ldi	r18, 0x1A	; 26
    288a:	30 e0       	ldi	r19, 0x00	; 0
    288c:	af 81       	ldd	r26, Y+7	; 0x07
    288e:	b8 85       	ldd	r27, Y+8	; 0x08
    2890:	0e 94 c2 32 	call	0x6584	; 0x6584 <__usmulhisi3>
    2894:	c6 0e       	add	r12, r22
    2896:	d7 1e       	adc	r13, r23
    2898:	e8 1e       	adc	r14, r24
    289a:	f9 1e       	adc	r15, r25
    acc += (int32_t)W_hz[3][2] * (int32_t)h_state[2];
    289c:	2d 89       	ldd	r18, Y+21	; 0x15
    289e:	3e 89       	ldd	r19, Y+22	; 0x16
    28a0:	a6 ee       	ldi	r26, 0xE6	; 230
    28a2:	bf ef       	ldi	r27, 0xFF	; 255
    28a4:	0e 94 ab 32 	call	0x6556	; 0x6556 <__mulhisi3>
    28a8:	c6 0e       	add	r12, r22
    28aa:	d7 1e       	adc	r13, r23
    28ac:	e8 1e       	adc	r14, r24
    28ae:	f9 1e       	adc	r15, r25
    acc += (int32_t)W_hz[3][3] * (int32_t)h_state[3];
    28b0:	c1 54       	subi	r28, 0x41	; 65
    28b2:	df 4f       	sbci	r29, 0xFF	; 255
    28b4:	88 81       	ld	r24, Y
    28b6:	99 81       	ldd	r25, Y+1	; 0x01
    28b8:	aa 81       	ldd	r26, Y+2	; 0x02
    28ba:	bb 81       	ldd	r27, Y+3	; 0x03
    28bc:	cf 5b       	subi	r28, 0xBF	; 191
    28be:	d0 40       	sbci	r29, 0x00	; 0
    28c0:	c8 0e       	add	r12, r24
    28c2:	d9 1e       	adc	r13, r25
    28c4:	ea 1e       	adc	r14, r26
    28c6:	fb 1e       	adc	r15, r27
    acc += (int32_t)W_hz[3][4] * (int32_t)h_state[4];
    28c8:	2d 81       	ldd	r18, Y+5	; 0x05
    28ca:	3e 81       	ldd	r19, Y+6	; 0x06
    28cc:	ab ec       	ldi	r26, 0xCB	; 203
    28ce:	bf ef       	ldi	r27, 0xFF	; 255
    28d0:	0e 94 ab 32 	call	0x6556	; 0x6556 <__mulhisi3>
    28d4:	6f a3       	std	Y+39, r22	; 0x27
    28d6:	78 a7       	std	Y+40, r23	; 0x28
    28d8:	89 a7       	std	Y+41, r24	; 0x29
    28da:	9a a7       	std	Y+42, r25	; 0x2a
    28dc:	c6 0e       	add	r12, r22
    28de:	d7 1e       	adc	r13, r23
    28e0:	e8 1e       	adc	r14, r24
    28e2:	f9 1e       	adc	r15, r25
    acc += (int32_t)W_hz[3][5] * (int32_t)h_state[5];
    28e4:	2d 85       	ldd	r18, Y+13	; 0x0d
    28e6:	3e 85       	ldd	r19, Y+14	; 0x0e
    28e8:	a1 ed       	ldi	r26, 0xD1	; 209
    28ea:	bf ef       	ldi	r27, 0xFF	; 255
    28ec:	0e 94 ab 32 	call	0x6556	; 0x6556 <__mulhisi3>
    28f0:	c3 5b       	subi	r28, 0xB3	; 179
    28f2:	de 4f       	sbci	r29, 0xFE	; 254
    28f4:	68 83       	st	Y, r22
    28f6:	79 83       	std	Y+1, r23	; 0x01
    28f8:	8a 83       	std	Y+2, r24	; 0x02
    28fa:	9b 83       	std	Y+3, r25	; 0x03
    28fc:	cd 54       	subi	r28, 0x4D	; 77
    28fe:	d1 40       	sbci	r29, 0x01	; 1
    2900:	c6 0e       	add	r12, r22
    2902:	d7 1e       	adc	r13, r23
    2904:	e8 1e       	adc	r14, r24
    2906:	f9 1e       	adc	r15, r25
    acc += (int32_t)W_hz[3][6] * (int32_t)h_state[6];
    2908:	c9 56       	subi	r28, 0x69	; 105
    290a:	de 4f       	sbci	r29, 0xFE	; 254
    290c:	28 81       	ld	r18, Y
    290e:	39 81       	ldd	r19, Y+1	; 0x01
    2910:	c7 59       	subi	r28, 0x97	; 151
    2912:	d1 40       	sbci	r29, 0x01	; 1
    2914:	af ec       	ldi	r26, 0xCF	; 207
    2916:	bf ef       	ldi	r27, 0xFF	; 255
    2918:	0e 94 ab 32 	call	0x6556	; 0x6556 <__mulhisi3>
    291c:	c6 0e       	add	r12, r22
    291e:	d7 1e       	adc	r13, r23
    2920:	e8 1e       	adc	r14, r24
    2922:	f9 1e       	adc	r15, r25
    acc += (int32_t)W_hz[3][7] * (int32_t)h_state[7];
    2924:	29 89       	ldd	r18, Y+17	; 0x11
    2926:	3a 89       	ldd	r19, Y+18	; 0x12
    2928:	a7 ee       	ldi	r26, 0xE7	; 231
    292a:	bf ef       	ldi	r27, 0xFF	; 255
    292c:	0e 94 ab 32 	call	0x6556	; 0x6556 <__mulhisi3>
    2930:	c6 0e       	add	r12, r22
    2932:	d7 1e       	adc	r13, r23
    2934:	e8 1e       	adc	r14, r24
    2936:	f9 1e       	adc	r15, r25
    acc += (int32_t)W_hz[3][8] * (int32_t)h_state[8];
    2938:	2f 89       	ldd	r18, Y+23	; 0x17
    293a:	38 8d       	ldd	r19, Y+24	; 0x18
    293c:	a7 ed       	ldi	r26, 0xD7	; 215
    293e:	bf ef       	ldi	r27, 0xFF	; 255
    2940:	0e 94 ab 32 	call	0x6556	; 0x6556 <__mulhisi3>
    2944:	6f 8f       	std	Y+31, r22	; 0x1f
    2946:	78 a3       	std	Y+32, r23	; 0x20
    2948:	89 a3       	std	Y+33, r24	; 0x21
    294a:	9a a3       	std	Y+34, r25	; 0x22
    294c:	c6 0e       	add	r12, r22
    294e:	d7 1e       	adc	r13, r23
    2950:	e8 1e       	adc	r14, r24
    2952:	f9 1e       	adc	r15, r25
    acc += (int32_t)W_hz[3][9] * (int32_t)h_state[9];
    2954:	29 e1       	ldi	r18, 0x19	; 25
    2956:	30 e0       	ldi	r19, 0x00	; 0
    2958:	a9 85       	ldd	r26, Y+9	; 0x09
    295a:	ba 85       	ldd	r27, Y+10	; 0x0a
    295c:	0e 94 c2 32 	call	0x6584	; 0x6584 <__usmulhisi3>
    2960:	cf 5a       	subi	r28, 0xAF	; 175
    2962:	de 4f       	sbci	r29, 0xFE	; 254
    2964:	68 83       	st	Y, r22
    2966:	79 83       	std	Y+1, r23	; 0x01
    2968:	8a 83       	std	Y+2, r24	; 0x02
    296a:	9b 83       	std	Y+3, r25	; 0x03
    296c:	c1 55       	subi	r28, 0x51	; 81
    296e:	d1 40       	sbci	r29, 0x01	; 1
    2970:	c6 0e       	add	r12, r22
    2972:	d7 1e       	adc	r13, r23
    2974:	e8 1e       	adc	r14, r24
    2976:	f9 1e       	adc	r15, r25
    acc += (int32_t)W_hz[3][10] * (int32_t)h_state[10];
    2978:	af 96       	adiw	r28, 0x2f	; 47
    297a:	2c ad       	ldd	r18, Y+60	; 0x3c
    297c:	3d ad       	ldd	r19, Y+61	; 0x3d
    297e:	4e ad       	ldd	r20, Y+62	; 0x3e
    2980:	5f ad       	ldd	r21, Y+63	; 0x3f
    2982:	af 97       	sbiw	r28, 0x2f	; 47
    2984:	c2 0e       	add	r12, r18
    2986:	d3 1e       	adc	r13, r19
    2988:	e4 1e       	adc	r14, r20
    298a:	f5 1e       	adc	r15, r21
    acc += (int32_t)W_hz[3][11] * (int32_t)h_state[11];
    298c:	29 8d       	ldd	r18, Y+25	; 0x19
    298e:	3a 8d       	ldd	r19, Y+26	; 0x1a
    2990:	a6 ef       	ldi	r26, 0xF6	; 246
    2992:	bf ef       	ldi	r27, 0xFF	; 255
    2994:	0e 94 ab 32 	call	0x6556	; 0x6556 <__mulhisi3>
    2998:	c6 0e       	add	r12, r22
    299a:	d7 1e       	adc	r13, r23
    299c:	e8 1e       	adc	r14, r24
    299e:	f9 1e       	adc	r15, r25
    acc += (int32_t)W_hz[3][12] * (int32_t)h_state[12];
    29a0:	98 01       	movw	r18, r16
    29a2:	a2 ed       	ldi	r26, 0xD2	; 210
    29a4:	bf ef       	ldi	r27, 0xFF	; 255
    29a6:	0e 94 ab 32 	call	0x6556	; 0x6556 <__mulhisi3>
    29aa:	c6 0e       	add	r12, r22
    29ac:	d7 1e       	adc	r13, r23
    29ae:	e8 1e       	adc	r14, r24
    29b0:	f9 1e       	adc	r15, r25
    acc += (int32_t)W_hz[3][13] * (int32_t)h_state[13];
    29b2:	2b 8d       	ldd	r18, Y+27	; 0x1b
    29b4:	3c 8d       	ldd	r19, Y+28	; 0x1c
    29b6:	a1 ef       	ldi	r26, 0xF1	; 241
    29b8:	bf ef       	ldi	r27, 0xFF	; 255
    29ba:	0e 94 ab 32 	call	0x6556	; 0x6556 <__mulhisi3>
    29be:	c6 0e       	add	r12, r22
    29c0:	d7 1e       	adc	r13, r23
    29c2:	e8 1e       	adc	r14, r24
    29c4:	f9 1e       	adc	r15, r25
    acc += (int32_t)W_hz[3][14] * (int32_t)h_state[14];
    29c6:	2d 8d       	ldd	r18, Y+29	; 0x1d
    29c8:	3e 8d       	ldd	r19, Y+30	; 0x1e
    29ca:	a8 ed       	ldi	r26, 0xD8	; 216
    29cc:	bf ef       	ldi	r27, 0xFF	; 255
    29ce:	0e 94 ab 32 	call	0x6556	; 0x6556 <__mulhisi3>
    29d2:	dc 01       	movw	r26, r24
    29d4:	cb 01       	movw	r24, r22
    29d6:	8c 0d       	add	r24, r12
    29d8:	9d 1d       	adc	r25, r13
    29da:	ae 1d       	adc	r26, r14
    29dc:	bf 1d       	adc	r27, r15
    acc += (int32_t)W_hz[3][15] * (int32_t)h_state[15];
    29de:	c1 55       	subi	r28, 0x51	; 81
    29e0:	df 4f       	sbci	r29, 0xFF	; 255
    29e2:	28 81       	ld	r18, Y
    29e4:	39 81       	ldd	r19, Y+1	; 0x01
    29e6:	4a 81       	ldd	r20, Y+2	; 0x02
    29e8:	5b 81       	ldd	r21, Y+3	; 0x03
    29ea:	cf 5a       	subi	r28, 0xAF	; 175
    29ec:	d0 40       	sbci	r29, 0x00	; 0
    29ee:	82 0f       	add	r24, r18
    29f0:	93 1f       	adc	r25, r19
    29f2:	a4 1f       	adc	r26, r20
    29f4:	b5 1f       	adc	r27, r21
    acc >>= FRAC_BITS;
    29f6:	66 e0       	ldi	r22, 0x06	; 6
    29f8:	b5 95       	asr	r27
    29fa:	a7 95       	ror	r26
    29fc:	97 95       	ror	r25
    29fe:	87 95       	ror	r24
    2a00:	6a 95       	dec	r22
    2a02:	d1 f7       	brne	.-12     	; 0x29f8 <__stack+0x7f9>
static inline int16_t fp_mul(int16_t a, int16_t b) {
    return (int16_t)(((int32_t)a * (int32_t)b) >> FRAC_BITS);
}

static inline int16_t fp_sat32(int32_t v) {
    if (v > FP_MAX) return FP_MAX;
    2a04:	81 15       	cp	r24, r1
    2a06:	30 e8       	ldi	r19, 0x80	; 128
    2a08:	93 07       	cpc	r25, r19
    2a0a:	a1 05       	cpc	r26, r1
    2a0c:	b1 05       	cpc	r27, r1
    2a0e:	14 f0       	brlt	.+4      	; 0x2a14 <__stack+0x815>
    2a10:	0c 94 1a 32 	jmp	0x6434	; 0x6434 <__stack+0x4235>
    if (v < FP_MIN) return FP_MIN;
    2a14:	81 15       	cp	r24, r1
    2a16:	40 e8       	ldi	r20, 0x80	; 128
    2a18:	94 07       	cpc	r25, r20
    2a1a:	4f ef       	ldi	r20, 0xFF	; 255
    2a1c:	a4 07       	cpc	r26, r20
    2a1e:	b4 07       	cpc	r27, r20
    2a20:	14 f4       	brge	.+4      	; 0x2a26 <__stack+0x827>
    2a22:	0c 94 1e 32 	jmp	0x643c	; 0x643c <__stack+0x423d>
    acc += (int32_t)W_hz[3][12] * (int32_t)h_state[12];
    acc += (int32_t)W_hz[3][13] * (int32_t)h_state[13];
    acc += (int32_t)W_hz[3][14] * (int32_t)h_state[14];
    acc += (int32_t)W_hz[3][15] * (int32_t)h_state[15];
    acc >>= FRAC_BITS;
    z[3] = fp_sigmoid(fp_sat32(acc));
    2a26:	0e 94 b5 00 	call	0x16a	; 0x16a <_ZL10fp_sigmoidi>
    2a2a:	c1 55       	subi	r28, 0x51	; 81
    2a2c:	df 4f       	sbci	r29, 0xFF	; 255
    2a2e:	99 83       	std	Y+1, r25	; 0x01
    2a30:	88 83       	st	Y, r24
    2a32:	cf 5a       	subi	r28, 0xAF	; 175
    2a34:	d0 40       	sbci	r29, 0x00	; 0
    acc += (int32_t)W_iz[4][61] * (int32_t)x[61];
    acc += (int32_t)W_iz[4][62] * (int32_t)x[62];
    acc += (int32_t)W_iz[4][63] * (int32_t)x[63];
    acc >>= FRAC_BITS;
    acc += (int32_t)b_hz[4];
    acc += (int32_t)W_hz[4][0] * (int32_t)h_state[0];
    2a36:	29 e1       	ldi	r18, 0x19	; 25
    2a38:	30 e0       	ldi	r19, 0x00	; 0
    2a3a:	ab 85       	ldd	r26, Y+11	; 0x0b
    2a3c:	bc 85       	ldd	r27, Y+12	; 0x0c
    2a3e:	0e 94 c2 32 	call	0x6584	; 0x6584 <__usmulhisi3>
    2a42:	6b 01       	movw	r12, r22
    2a44:	7c 01       	movw	r14, r24
    2a46:	58 eb       	ldi	r21, 0xB8	; 184
    2a48:	c5 0e       	add	r12, r21
    2a4a:	d1 1c       	adc	r13, r1
    2a4c:	e1 1c       	adc	r14, r1
    2a4e:	f1 1c       	adc	r15, r1
    acc += (int32_t)W_hz[4][1] * (int32_t)h_state[1];
    2a50:	23 e1       	ldi	r18, 0x13	; 19
    2a52:	30 e0       	ldi	r19, 0x00	; 0
    2a54:	af 81       	ldd	r26, Y+7	; 0x07
    2a56:	b8 85       	ldd	r27, Y+8	; 0x08
    2a58:	0e 94 c2 32 	call	0x6584	; 0x6584 <__usmulhisi3>
    2a5c:	c6 0e       	add	r12, r22
    2a5e:	d7 1e       	adc	r13, r23
    2a60:	e8 1e       	adc	r14, r24
    2a62:	f9 1e       	adc	r15, r25
    acc += (int32_t)W_hz[4][2] * (int32_t)h_state[2];
    2a64:	8b a5       	ldd	r24, Y+43	; 0x2b
    2a66:	9c a5       	ldd	r25, Y+44	; 0x2c
    2a68:	ad a5       	ldd	r26, Y+45	; 0x2d
    2a6a:	be a5       	ldd	r27, Y+46	; 0x2e
    2a6c:	46 e0       	ldi	r20, 0x06	; 6
    2a6e:	88 0f       	add	r24, r24
    2a70:	99 1f       	adc	r25, r25
    2a72:	aa 1f       	adc	r26, r26
    2a74:	bb 1f       	adc	r27, r27
    2a76:	4a 95       	dec	r20
    2a78:	d1 f7       	brne	.-12     	; 0x2a6e <__stack+0x86f>
    2a7a:	c8 0e       	add	r12, r24
    2a7c:	d9 1e       	adc	r13, r25
    2a7e:	ea 1e       	adc	r14, r26
    2a80:	fb 1e       	adc	r15, r27
    acc += (int32_t)W_hz[4][3] * (int32_t)h_state[3];
    2a82:	27 e0       	ldi	r18, 0x07	; 7
    2a84:	30 e0       	ldi	r19, 0x00	; 0
    2a86:	d1 01       	movw	r26, r2
    2a88:	0e 94 c2 32 	call	0x6584	; 0x6584 <__usmulhisi3>
    2a8c:	c6 0e       	add	r12, r22
    2a8e:	d7 1e       	adc	r13, r23
    2a90:	e8 1e       	adc	r14, r24
    2a92:	f9 1e       	adc	r15, r25
    2a94:	63 96       	adiw	r28, 0x13	; 19
    2a96:	8c ad       	ldd	r24, Y+60	; 0x3c
    2a98:	9d ad       	ldd	r25, Y+61	; 0x3d
    2a9a:	ae ad       	ldd	r26, Y+62	; 0x3e
    2a9c:	bf ad       	ldd	r27, Y+63	; 0x3f
    2a9e:	63 97       	sbiw	r28, 0x13	; 19
    2aa0:	c8 1a       	sub	r12, r24
    2aa2:	d9 0a       	sbc	r13, r25
    2aa4:	ea 0a       	sbc	r14, r26
    2aa6:	fb 0a       	sbc	r15, r27
    acc += (int32_t)W_hz[4][4] * (int32_t)h_state[4];
    acc += (int32_t)W_hz[4][5] * (int32_t)h_state[5];
    2aa8:	2d 85       	ldd	r18, Y+13	; 0x0d
    2aaa:	3e 85       	ldd	r19, Y+14	; 0x0e
    2aac:	a2 ed       	ldi	r26, 0xD2	; 210
    2aae:	bf ef       	ldi	r27, 0xFF	; 255
    2ab0:	0e 94 ab 32 	call	0x6556	; 0x6556 <__mulhisi3>
    2ab4:	cb 5a       	subi	r28, 0xAB	; 171
    2ab6:	de 4f       	sbci	r29, 0xFE	; 254
    2ab8:	68 83       	st	Y, r22
    2aba:	79 83       	std	Y+1, r23	; 0x01
    2abc:	8a 83       	std	Y+2, r24	; 0x02
    2abe:	9b 83       	std	Y+3, r25	; 0x03
    2ac0:	c5 55       	subi	r28, 0x55	; 85
    2ac2:	d1 40       	sbci	r29, 0x01	; 1
    2ac4:	c6 0e       	add	r12, r22
    2ac6:	d7 1e       	adc	r13, r23
    2ac8:	e8 1e       	adc	r14, r24
    2aca:	f9 1e       	adc	r15, r25
    acc += (int32_t)W_hz[4][6] * (int32_t)h_state[6];
    2acc:	c9 56       	subi	r28, 0x69	; 105
    2ace:	de 4f       	sbci	r29, 0xFE	; 254
    2ad0:	28 81       	ld	r18, Y
    2ad2:	39 81       	ldd	r19, Y+1	; 0x01
    2ad4:	c7 59       	subi	r28, 0x97	; 151
    2ad6:	d1 40       	sbci	r29, 0x01	; 1
    2ad8:	a8 ee       	ldi	r26, 0xE8	; 232
    2ada:	bf ef       	ldi	r27, 0xFF	; 255
    2adc:	0e 94 ab 32 	call	0x6556	; 0x6556 <__mulhisi3>
    2ae0:	c6 0e       	add	r12, r22
    2ae2:	d7 1e       	adc	r13, r23
    2ae4:	e8 1e       	adc	r14, r24
    2ae6:	f9 1e       	adc	r15, r25
    acc += (int32_t)W_hz[4][7] * (int32_t)h_state[7];
    2ae8:	a3 96       	adiw	r28, 0x23	; 35
    2aea:	2c ad       	ldd	r18, Y+60	; 0x3c
    2aec:	3d ad       	ldd	r19, Y+61	; 0x3d
    2aee:	4e ad       	ldd	r20, Y+62	; 0x3e
    2af0:	5f ad       	ldd	r21, Y+63	; 0x3f
    2af2:	a3 97       	sbiw	r28, 0x23	; 35
    2af4:	c2 0e       	add	r12, r18
    2af6:	d3 1e       	adc	r13, r19
    2af8:	e4 1e       	adc	r14, r20
    2afa:	f5 1e       	adc	r15, r21
    acc += (int32_t)W_hz[4][8] * (int32_t)h_state[8];
    2afc:	cd 54       	subi	r28, 0x4D	; 77
    2afe:	df 4f       	sbci	r29, 0xFF	; 255
    2b00:	88 81       	ld	r24, Y
    2b02:	99 81       	ldd	r25, Y+1	; 0x01
    2b04:	aa 81       	ldd	r26, Y+2	; 0x02
    2b06:	bb 81       	ldd	r27, Y+3	; 0x03
    2b08:	c3 5b       	subi	r28, 0xB3	; 179
    2b0a:	d0 40       	sbci	r29, 0x00	; 0
    2b0c:	c8 0e       	add	r12, r24
    2b0e:	d9 1e       	adc	r13, r25
    2b10:	ea 1e       	adc	r14, r26
    2b12:	fb 1e       	adc	r15, r27
    acc += (int32_t)W_hz[4][9] * (int32_t)h_state[9];
    2b14:	29 85       	ldd	r18, Y+9	; 0x09
    2b16:	3a 85       	ldd	r19, Y+10	; 0x0a
    2b18:	ae ee       	ldi	r26, 0xEE	; 238
    2b1a:	bf ef       	ldi	r27, 0xFF	; 255
    2b1c:	0e 94 ab 32 	call	0x6556	; 0x6556 <__mulhisi3>
    2b20:	cd 54       	subi	r28, 0x4D	; 77
    2b22:	df 4f       	sbci	r29, 0xFF	; 255
    2b24:	68 83       	st	Y, r22
    2b26:	79 83       	std	Y+1, r23	; 0x01
    2b28:	8a 83       	std	Y+2, r24	; 0x02
    2b2a:	9b 83       	std	Y+3, r25	; 0x03
    2b2c:	c3 5b       	subi	r28, 0xB3	; 179
    2b2e:	d0 40       	sbci	r29, 0x00	; 0
    2b30:	c6 0e       	add	r12, r22
    2b32:	d7 1e       	adc	r13, r23
    2b34:	e8 1e       	adc	r14, r24
    2b36:	f9 1e       	adc	r15, r25
    acc += (int32_t)W_hz[4][10] * (int32_t)h_state[10];
    2b38:	2f 85       	ldd	r18, Y+15	; 0x0f
    2b3a:	38 89       	ldd	r19, Y+16	; 0x10
    2b3c:	a1 ec       	ldi	r26, 0xC1	; 193
    2b3e:	bf ef       	ldi	r27, 0xFF	; 255
    2b40:	0e 94 ab 32 	call	0x6556	; 0x6556 <__mulhisi3>
    2b44:	c6 0e       	add	r12, r22
    2b46:	d7 1e       	adc	r13, r23
    2b48:	e8 1e       	adc	r14, r24
    2b4a:	f9 1e       	adc	r15, r25
    acc += (int32_t)W_hz[4][11] * (int32_t)h_state[11];
    2b4c:	29 8d       	ldd	r18, Y+25	; 0x19
    2b4e:	3a 8d       	ldd	r19, Y+26	; 0x1a
    2b50:	a1 ed       	ldi	r26, 0xD1	; 209
    2b52:	bf ef       	ldi	r27, 0xFF	; 255
    2b54:	0e 94 ab 32 	call	0x6556	; 0x6556 <__mulhisi3>
    2b58:	c6 0e       	add	r12, r22
    2b5a:	d7 1e       	adc	r13, r23
    2b5c:	e8 1e       	adc	r14, r24
    2b5e:	f9 1e       	adc	r15, r25
    acc += (int32_t)W_hz[4][12] * (int32_t)h_state[12];
    2b60:	28 e2       	ldi	r18, 0x28	; 40
    2b62:	30 e0       	ldi	r19, 0x00	; 0
    2b64:	d8 01       	movw	r26, r16
    2b66:	0e 94 c2 32 	call	0x6584	; 0x6584 <__usmulhisi3>
    2b6a:	c6 0e       	add	r12, r22
    2b6c:	d7 1e       	adc	r13, r23
    2b6e:	e8 1e       	adc	r14, r24
    2b70:	f9 1e       	adc	r15, r25
    acc += (int32_t)W_hz[4][13] * (int32_t)h_state[13];
    2b72:	2b e3       	ldi	r18, 0x3B	; 59
    2b74:	30 e0       	ldi	r19, 0x00	; 0
    2b76:	ab 8d       	ldd	r26, Y+27	; 0x1b
    2b78:	bc 8d       	ldd	r27, Y+28	; 0x1c
    2b7a:	0e 94 c2 32 	call	0x6584	; 0x6584 <__usmulhisi3>
    2b7e:	dc 01       	movw	r26, r24
    2b80:	cb 01       	movw	r24, r22
    2b82:	8c 0d       	add	r24, r12
    2b84:	9d 1d       	adc	r25, r13
    2b86:	ae 1d       	adc	r26, r14
    2b88:	bf 1d       	adc	r27, r15
    acc += (int32_t)W_hz[4][14] * (int32_t)h_state[14];
    2b8a:	2b a1       	ldd	r18, Y+35	; 0x23
    2b8c:	3c a1       	ldd	r19, Y+36	; 0x24
    2b8e:	4d a1       	ldd	r20, Y+37	; 0x25
    2b90:	5e a1       	ldd	r21, Y+38	; 0x26
    2b92:	82 0f       	add	r24, r18
    2b94:	93 1f       	adc	r25, r19
    2b96:	a4 1f       	adc	r26, r20
    2b98:	b5 1f       	adc	r27, r21
    2b9a:	67 96       	adiw	r28, 0x17	; 23
    2b9c:	2c ad       	ldd	r18, Y+60	; 0x3c
    2b9e:	3d ad       	ldd	r19, Y+61	; 0x3d
    2ba0:	4e ad       	ldd	r20, Y+62	; 0x3e
    2ba2:	5f ad       	ldd	r21, Y+63	; 0x3f
    2ba4:	67 97       	sbiw	r28, 0x17	; 23
    2ba6:	82 1b       	sub	r24, r18
    2ba8:	93 0b       	sbc	r25, r19
    2baa:	a4 0b       	sbc	r26, r20
    2bac:	b5 0b       	sbc	r27, r21
    acc += (int32_t)W_hz[4][15] * (int32_t)h_state[15];
    acc >>= FRAC_BITS;
    2bae:	56 e0       	ldi	r21, 0x06	; 6
    2bb0:	b5 95       	asr	r27
    2bb2:	a7 95       	ror	r26
    2bb4:	97 95       	ror	r25
    2bb6:	87 95       	ror	r24
    2bb8:	5a 95       	dec	r21
    2bba:	d1 f7       	brne	.-12     	; 0x2bb0 <__stack+0x9b1>
static inline int16_t fp_mul(int16_t a, int16_t b) {
    return (int16_t)(((int32_t)a * (int32_t)b) >> FRAC_BITS);
}

static inline int16_t fp_sat32(int32_t v) {
    if (v > FP_MAX) return FP_MAX;
    2bbc:	81 15       	cp	r24, r1
    2bbe:	30 e8       	ldi	r19, 0x80	; 128
    2bc0:	93 07       	cpc	r25, r19
    2bc2:	a1 05       	cpc	r26, r1
    2bc4:	b1 05       	cpc	r27, r1
    2bc6:	14 f0       	brlt	.+4      	; 0x2bcc <__stack+0x9cd>
    2bc8:	0c 94 22 32 	jmp	0x6444	; 0x6444 <__stack+0x4245>
    if (v < FP_MIN) return FP_MIN;
    2bcc:	81 15       	cp	r24, r1
    2bce:	40 e8       	ldi	r20, 0x80	; 128
    2bd0:	94 07       	cpc	r25, r20
    2bd2:	4f ef       	ldi	r20, 0xFF	; 255
    2bd4:	a4 07       	cpc	r26, r20
    2bd6:	b4 07       	cpc	r27, r20
    2bd8:	14 f4       	brge	.+4      	; 0x2bde <__stack+0x9df>
    2bda:	0c 94 26 32 	jmp	0x644c	; 0x644c <__stack+0x424d>
    acc += (int32_t)W_hz[4][12] * (int32_t)h_state[12];
    acc += (int32_t)W_hz[4][13] * (int32_t)h_state[13];
    acc += (int32_t)W_hz[4][14] * (int32_t)h_state[14];
    acc += (int32_t)W_hz[4][15] * (int32_t)h_state[15];
    acc >>= FRAC_BITS;
    z[4] = fp_sigmoid(fp_sat32(acc));
    2bde:	0e 94 b5 00 	call	0x16a	; 0x16a <_ZL10fp_sigmoidi>
    2be2:	c7 5a       	subi	r28, 0xA7	; 167
    2be4:	de 4f       	sbci	r29, 0xFE	; 254
    2be6:	99 83       	std	Y+1, r25	; 0x01
    2be8:	88 83       	st	Y, r24
    2bea:	c9 55       	subi	r28, 0x59	; 89
    2bec:	d1 40       	sbci	r29, 0x01	; 1
    acc += (int32_t)W_iz[5][61] * (int32_t)x[61];
    acc += (int32_t)W_iz[5][62] * (int32_t)x[62];
    acc += (int32_t)W_iz[5][63] * (int32_t)x[63];
    acc >>= FRAC_BITS;
    acc += (int32_t)b_hz[5];
    acc += (int32_t)W_hz[5][0] * (int32_t)h_state[0];
    2bee:	28 e1       	ldi	r18, 0x18	; 24
    2bf0:	30 e0       	ldi	r19, 0x00	; 0
    2bf2:	ab 85       	ldd	r26, Y+11	; 0x0b
    2bf4:	bc 85       	ldd	r27, Y+12	; 0x0c
    2bf6:	0e 94 c2 32 	call	0x6584	; 0x6584 <__usmulhisi3>
    2bfa:	6b 01       	movw	r12, r22
    2bfc:	7c 01       	movw	r14, r24
    2bfe:	5e e0       	ldi	r21, 0x0E	; 14
    2c00:	c5 1a       	sub	r12, r21
    2c02:	51 e0       	ldi	r21, 0x01	; 1
    2c04:	d5 0a       	sbc	r13, r21
    2c06:	e1 08       	sbc	r14, r1
    2c08:	f1 08       	sbc	r15, r1
    acc += (int32_t)W_hz[5][1] * (int32_t)h_state[1];
    2c0a:	2f 81       	ldd	r18, Y+7	; 0x07
    2c0c:	38 85       	ldd	r19, Y+8	; 0x08
    2c0e:	a5 ef       	ldi	r26, 0xF5	; 245
    2c10:	bf ef       	ldi	r27, 0xFF	; 255
    2c12:	0e 94 ab 32 	call	0x6556	; 0x6556 <__mulhisi3>
    2c16:	27 96       	adiw	r28, 0x07	; 7
    2c18:	6c af       	std	Y+60, r22	; 0x3c
    2c1a:	7d af       	std	Y+61, r23	; 0x3d
    2c1c:	8e af       	std	Y+62, r24	; 0x3e
    2c1e:	9f af       	std	Y+63, r25	; 0x3f
    2c20:	27 97       	sbiw	r28, 0x07	; 7
    2c22:	c6 0e       	add	r12, r22
    2c24:	d7 1e       	adc	r13, r23
    2c26:	e8 1e       	adc	r14, r24
    2c28:	f9 1e       	adc	r15, r25
    acc += (int32_t)W_hz[5][2] * (int32_t)h_state[2];
    2c2a:	2c e2       	ldi	r18, 0x2C	; 44
    2c2c:	30 e0       	ldi	r19, 0x00	; 0
    2c2e:	ad 89       	ldd	r26, Y+21	; 0x15
    2c30:	be 89       	ldd	r27, Y+22	; 0x16
    2c32:	0e 94 c2 32 	call	0x6584	; 0x6584 <__usmulhisi3>
    2c36:	c6 0e       	add	r12, r22
    2c38:	d7 1e       	adc	r13, r23
    2c3a:	e8 1e       	adc	r14, r24
    2c3c:	f9 1e       	adc	r15, r25
    2c3e:	ab 96       	adiw	r28, 0x2b	; 43
    2c40:	8c ad       	ldd	r24, Y+60	; 0x3c
    2c42:	9d ad       	ldd	r25, Y+61	; 0x3d
    2c44:	ae ad       	ldd	r26, Y+62	; 0x3e
    2c46:	bf ad       	ldd	r27, Y+63	; 0x3f
    2c48:	ab 97       	sbiw	r28, 0x2b	; 43
    2c4a:	c8 1a       	sub	r12, r24
    2c4c:	d9 0a       	sbc	r13, r25
    2c4e:	ea 0a       	sbc	r14, r26
    2c50:	fb 0a       	sbc	r15, r27
    acc += (int32_t)W_hz[5][3] * (int32_t)h_state[3];
    acc += (int32_t)W_hz[5][4] * (int32_t)h_state[4];
    2c52:	2f a1       	ldd	r18, Y+39	; 0x27
    2c54:	38 a5       	ldd	r19, Y+40	; 0x28
    2c56:	49 a5       	ldd	r20, Y+41	; 0x29
    2c58:	5a a5       	ldd	r21, Y+42	; 0x2a
    2c5a:	c2 0e       	add	r12, r18
    2c5c:	d3 1e       	adc	r13, r19
    2c5e:	e4 1e       	adc	r14, r20
    2c60:	f5 1e       	adc	r15, r21
    acc += (int32_t)W_hz[5][5] * (int32_t)h_state[5];
    2c62:	2d 85       	ldd	r18, Y+13	; 0x0d
    2c64:	3e 85       	ldd	r19, Y+14	; 0x0e
    2c66:	a4 ec       	ldi	r26, 0xC4	; 196
    2c68:	bf ef       	ldi	r27, 0xFF	; 255
    2c6a:	0e 94 ab 32 	call	0x6556	; 0x6556 <__mulhisi3>
    2c6e:	c6 0e       	add	r12, r22
    2c70:	d7 1e       	adc	r13, r23
    2c72:	e8 1e       	adc	r14, r24
    2c74:	f9 1e       	adc	r15, r25
    acc += (int32_t)W_hz[5][6] * (int32_t)h_state[6];
    2c76:	cd 55       	subi	r28, 0x5D	; 93
    2c78:	df 4f       	sbci	r29, 0xFF	; 255
    2c7a:	88 81       	ld	r24, Y
    2c7c:	99 81       	ldd	r25, Y+1	; 0x01
    2c7e:	aa 81       	ldd	r26, Y+2	; 0x02
    2c80:	bb 81       	ldd	r27, Y+3	; 0x03
    2c82:	c3 5a       	subi	r28, 0xA3	; 163
    2c84:	d0 40       	sbci	r29, 0x00	; 0
    2c86:	c8 0e       	add	r12, r24
    2c88:	d9 1e       	adc	r13, r25
    2c8a:	ea 1e       	adc	r14, r26
    2c8c:	fb 1e       	adc	r15, r27
    acc += (int32_t)W_hz[5][7] * (int32_t)h_state[7];
    2c8e:	29 89       	ldd	r18, Y+17	; 0x11
    2c90:	3a 89       	ldd	r19, Y+18	; 0x12
    2c92:	a5 ee       	ldi	r26, 0xE5	; 229
    2c94:	bf ef       	ldi	r27, 0xFF	; 255
    2c96:	0e 94 ab 32 	call	0x6556	; 0x6556 <__mulhisi3>
    2c9a:	c6 0e       	add	r12, r22
    2c9c:	d7 1e       	adc	r13, r23
    2c9e:	e8 1e       	adc	r14, r24
    2ca0:	f9 1e       	adc	r15, r25
    acc += (int32_t)W_hz[5][8] * (int32_t)h_state[8];
    2ca2:	2f 89       	ldd	r18, Y+23	; 0x17
    2ca4:	38 8d       	ldd	r19, Y+24	; 0x18
    2ca6:	a3 ee       	ldi	r26, 0xE3	; 227
    2ca8:	bf ef       	ldi	r27, 0xFF	; 255
    2caa:	0e 94 ab 32 	call	0x6556	; 0x6556 <__mulhisi3>
    2cae:	c6 0e       	add	r12, r22
    2cb0:	d7 1e       	adc	r13, r23
    2cb2:	e8 1e       	adc	r14, r24
    2cb4:	f9 1e       	adc	r15, r25
    acc += (int32_t)W_hz[5][9] * (int32_t)h_state[9];
    2cb6:	25 e0       	ldi	r18, 0x05	; 5
    2cb8:	30 e0       	ldi	r19, 0x00	; 0
    2cba:	a9 85       	ldd	r26, Y+9	; 0x09
    2cbc:	ba 85       	ldd	r27, Y+10	; 0x0a
    2cbe:	0e 94 c2 32 	call	0x6584	; 0x6584 <__usmulhisi3>
    2cc2:	c6 0e       	add	r12, r22
    2cc4:	d7 1e       	adc	r13, r23
    2cc6:	e8 1e       	adc	r14, r24
    2cc8:	f9 1e       	adc	r15, r25
    acc += (int32_t)W_hz[5][10] * (int32_t)h_state[10];
    2cca:	2f 85       	ldd	r18, Y+15	; 0x0f
    2ccc:	38 89       	ldd	r19, Y+16	; 0x10
    2cce:	a6 ed       	ldi	r26, 0xD6	; 214
    2cd0:	bf ef       	ldi	r27, 0xFF	; 255
    2cd2:	0e 94 ab 32 	call	0x6556	; 0x6556 <__mulhisi3>
    2cd6:	c6 0e       	add	r12, r22
    2cd8:	d7 1e       	adc	r13, r23
    2cda:	e8 1e       	adc	r14, r24
    2cdc:	f9 1e       	adc	r15, r25
    acc += (int32_t)W_hz[5][11] * (int32_t)h_state[11];
    2cde:	29 8d       	ldd	r18, Y+25	; 0x19
    2ce0:	3a 8d       	ldd	r19, Y+26	; 0x1a
    2ce2:	ab ef       	ldi	r26, 0xFB	; 251
    2ce4:	bf ef       	ldi	r27, 0xFF	; 255
    2ce6:	0e 94 ab 32 	call	0x6556	; 0x6556 <__mulhisi3>
    2cea:	cd 55       	subi	r28, 0x5D	; 93
    2cec:	df 4f       	sbci	r29, 0xFF	; 255
    2cee:	68 83       	st	Y, r22
    2cf0:	79 83       	std	Y+1, r23	; 0x01
    2cf2:	8a 83       	std	Y+2, r24	; 0x02
    2cf4:	9b 83       	std	Y+3, r25	; 0x03
    2cf6:	c3 5a       	subi	r28, 0xA3	; 163
    2cf8:	d0 40       	sbci	r29, 0x00	; 0
    2cfa:	c6 0e       	add	r12, r22
    2cfc:	d7 1e       	adc	r13, r23
    2cfe:	e8 1e       	adc	r14, r24
    2d00:	f9 1e       	adc	r15, r25
    acc += (int32_t)W_hz[5][12] * (int32_t)h_state[12];
    2d02:	2f e1       	ldi	r18, 0x1F	; 31
    2d04:	30 e0       	ldi	r19, 0x00	; 0
    2d06:	d8 01       	movw	r26, r16
    2d08:	0e 94 c2 32 	call	0x6584	; 0x6584 <__usmulhisi3>
    2d0c:	c6 0e       	add	r12, r22
    2d0e:	d7 1e       	adc	r13, r23
    2d10:	e8 1e       	adc	r14, r24
    2d12:	f9 1e       	adc	r15, r25
    acc += (int32_t)W_hz[5][13] * (int32_t)h_state[13];
    2d14:	c5 57       	subi	r28, 0x75	; 117
    2d16:	df 4f       	sbci	r29, 0xFF	; 255
    2d18:	28 81       	ld	r18, Y
    2d1a:	39 81       	ldd	r19, Y+1	; 0x01
    2d1c:	4a 81       	ldd	r20, Y+2	; 0x02
    2d1e:	5b 81       	ldd	r21, Y+3	; 0x03
    2d20:	cb 58       	subi	r28, 0x8B	; 139
    2d22:	d0 40       	sbci	r29, 0x00	; 0
    2d24:	c2 0e       	add	r12, r18
    2d26:	d3 1e       	adc	r13, r19
    2d28:	e4 1e       	adc	r14, r20
    2d2a:	f5 1e       	adc	r15, r21
    acc += (int32_t)W_hz[5][14] * (int32_t)h_state[14];
    2d2c:	26 e0       	ldi	r18, 0x06	; 6
    2d2e:	30 e0       	ldi	r19, 0x00	; 0
    2d30:	ad 8d       	ldd	r26, Y+29	; 0x1d
    2d32:	be 8d       	ldd	r27, Y+30	; 0x1e
    2d34:	0e 94 c2 32 	call	0x6584	; 0x6584 <__usmulhisi3>
    2d38:	c6 0e       	add	r12, r22
    2d3a:	d7 1e       	adc	r13, r23
    2d3c:	e8 1e       	adc	r14, r24
    2d3e:	f9 1e       	adc	r15, r25
    acc += (int32_t)W_hz[5][15] * (int32_t)h_state[15];
    2d40:	2b 89       	ldd	r18, Y+19	; 0x13
    2d42:	3c 89       	ldd	r19, Y+20	; 0x14
    2d44:	ae ec       	ldi	r26, 0xCE	; 206
    2d46:	bf ef       	ldi	r27, 0xFF	; 255
    2d48:	0e 94 ab 32 	call	0x6556	; 0x6556 <__mulhisi3>
    2d4c:	dc 01       	movw	r26, r24
    2d4e:	cb 01       	movw	r24, r22
    2d50:	8c 0d       	add	r24, r12
    2d52:	9d 1d       	adc	r25, r13
    2d54:	ae 1d       	adc	r26, r14
    2d56:	bf 1d       	adc	r27, r15
    acc >>= FRAC_BITS;
    2d58:	36 e0       	ldi	r19, 0x06	; 6
    2d5a:	b5 95       	asr	r27
    2d5c:	a7 95       	ror	r26
    2d5e:	97 95       	ror	r25
    2d60:	87 95       	ror	r24
    2d62:	3a 95       	dec	r19
    2d64:	d1 f7       	brne	.-12     	; 0x2d5a <__stack+0xb5b>
static inline int16_t fp_mul(int16_t a, int16_t b) {
    return (int16_t)(((int32_t)a * (int32_t)b) >> FRAC_BITS);
}

static inline int16_t fp_sat32(int32_t v) {
    if (v > FP_MAX) return FP_MAX;
    2d66:	81 15       	cp	r24, r1
    2d68:	30 e8       	ldi	r19, 0x80	; 128
    2d6a:	93 07       	cpc	r25, r19
    2d6c:	a1 05       	cpc	r26, r1
    2d6e:	b1 05       	cpc	r27, r1
    2d70:	14 f0       	brlt	.+4      	; 0x2d76 <__stack+0xb77>
    2d72:	0c 94 2a 32 	jmp	0x6454	; 0x6454 <__stack+0x4255>
    if (v < FP_MIN) return FP_MIN;
    2d76:	81 15       	cp	r24, r1
    2d78:	40 e8       	ldi	r20, 0x80	; 128
    2d7a:	94 07       	cpc	r25, r20
    2d7c:	4f ef       	ldi	r20, 0xFF	; 255
    2d7e:	a4 07       	cpc	r26, r20
    2d80:	b4 07       	cpc	r27, r20
    2d82:	14 f4       	brge	.+4      	; 0x2d88 <__stack+0xb89>
    2d84:	0c 94 2e 32 	jmp	0x645c	; 0x645c <__stack+0x425d>
    acc += (int32_t)W_hz[5][12] * (int32_t)h_state[12];
    acc += (int32_t)W_hz[5][13] * (int32_t)h_state[13];
    acc += (int32_t)W_hz[5][14] * (int32_t)h_state[14];
    acc += (int32_t)W_hz[5][15] * (int32_t)h_state[15];
    acc >>= FRAC_BITS;
    z[5] = fp_sigmoid(fp_sat32(acc));
    2d88:	0e 94 b5 00 	call	0x16a	; 0x16a <_ZL10fp_sigmoidi>
    2d8c:	c5 57       	subi	r28, 0x75	; 117
    2d8e:	df 4f       	sbci	r29, 0xFF	; 255
    2d90:	99 83       	std	Y+1, r25	; 0x01
    2d92:	88 83       	st	Y, r24
    2d94:	cb 58       	subi	r28, 0x8B	; 139
    2d96:	d0 40       	sbci	r29, 0x00	; 0
    acc += (int32_t)W_iz[6][61] * (int32_t)x[61];
    acc += (int32_t)W_iz[6][62] * (int32_t)x[62];
    acc += (int32_t)W_iz[6][63] * (int32_t)x[63];
    acc >>= FRAC_BITS;
    acc += (int32_t)b_hz[6];
    acc += (int32_t)W_hz[6][0] * (int32_t)h_state[0];
    2d98:	2b 85       	ldd	r18, Y+11	; 0x0b
    2d9a:	3c 85       	ldd	r19, Y+12	; 0x0c
    2d9c:	af ec       	ldi	r26, 0xCF	; 207
    2d9e:	bf ef       	ldi	r27, 0xFF	; 255
    2da0:	0e 94 ab 32 	call	0x6556	; 0x6556 <__mulhisi3>
    2da4:	4b 01       	movw	r8, r22
    2da6:	5c 01       	movw	r10, r24
    2da8:	53 e3       	ldi	r21, 0x33	; 51
    2daa:	85 1a       	sub	r8, r21
    2dac:	91 08       	sbc	r9, r1
    2dae:	a1 08       	sbc	r10, r1
    2db0:	b1 08       	sbc	r11, r1
    acc += (int32_t)W_hz[6][1] * (int32_t)h_state[1];
    2db2:	23 e2       	ldi	r18, 0x23	; 35
    2db4:	30 e0       	ldi	r19, 0x00	; 0
    2db6:	af 81       	ldd	r26, Y+7	; 0x07
    2db8:	b8 85       	ldd	r27, Y+8	; 0x08
    2dba:	0e 94 c2 32 	call	0x6584	; 0x6584 <__usmulhisi3>
    2dbe:	86 0e       	add	r8, r22
    2dc0:	97 1e       	adc	r9, r23
    2dc2:	a8 1e       	adc	r10, r24
    2dc4:	b9 1e       	adc	r11, r25
    acc += (int32_t)W_hz[6][2] * (int32_t)h_state[2];
    2dc6:	c1 57       	subi	r28, 0x71	; 113
    2dc8:	df 4f       	sbci	r29, 0xFF	; 255
    2dca:	88 81       	ld	r24, Y
    2dcc:	99 81       	ldd	r25, Y+1	; 0x01
    2dce:	aa 81       	ldd	r26, Y+2	; 0x02
    2dd0:	bb 81       	ldd	r27, Y+3	; 0x03
    2dd2:	cf 58       	subi	r28, 0x8F	; 143
    2dd4:	d0 40       	sbci	r29, 0x00	; 0
    2dd6:	88 0e       	add	r8, r24
    2dd8:	99 1e       	adc	r9, r25
    2dda:	aa 1e       	adc	r10, r26
    2ddc:	bb 1e       	adc	r11, r27
    acc += (int32_t)W_hz[6][3] * (int32_t)h_state[3];
    2dde:	91 01       	movw	r18, r2
    2de0:	af ee       	ldi	r26, 0xEF	; 239
    2de2:	bf ef       	ldi	r27, 0xFF	; 255
    2de4:	0e 94 ab 32 	call	0x6556	; 0x6556 <__mulhisi3>
    2de8:	86 0e       	add	r8, r22
    2dea:	97 1e       	adc	r9, r23
    2dec:	a8 1e       	adc	r10, r24
    2dee:	b9 1e       	adc	r11, r25
    acc += (int32_t)W_hz[6][4] * (int32_t)h_state[4];
    2df0:	29 e2       	ldi	r18, 0x29	; 41
    2df2:	30 e0       	ldi	r19, 0x00	; 0
    2df4:	ad 81       	ldd	r26, Y+5	; 0x05
    2df6:	be 81       	ldd	r27, Y+6	; 0x06
    2df8:	0e 94 c2 32 	call	0x6584	; 0x6584 <__usmulhisi3>
    2dfc:	86 0e       	add	r8, r22
    2dfe:	97 1e       	adc	r9, r23
    2e00:	a8 1e       	adc	r10, r24
    2e02:	b9 1e       	adc	r11, r25
    acc += (int32_t)W_hz[6][5] * (int32_t)h_state[5];
    2e04:	2d 85       	ldd	r18, Y+13	; 0x0d
    2e06:	3e 85       	ldd	r19, Y+14	; 0x0e
    2e08:	a5 ec       	ldi	r26, 0xC5	; 197
    2e0a:	bf ef       	ldi	r27, 0xFF	; 255
    2e0c:	0e 94 ab 32 	call	0x6556	; 0x6556 <__mulhisi3>
    2e10:	86 0e       	add	r8, r22
    2e12:	97 1e       	adc	r9, r23
    2e14:	a8 1e       	adc	r10, r24
    2e16:	b9 1e       	adc	r11, r25
    acc += (int32_t)W_hz[6][6] * (int32_t)h_state[6];
    2e18:	2b 96       	adiw	r28, 0x0b	; 11
    2e1a:	2c ad       	ldd	r18, Y+60	; 0x3c
    2e1c:	3d ad       	ldd	r19, Y+61	; 0x3d
    2e1e:	4e ad       	ldd	r20, Y+62	; 0x3e
    2e20:	5f ad       	ldd	r21, Y+63	; 0x3f
    2e22:	2b 97       	sbiw	r28, 0x0b	; 11
    2e24:	82 0e       	add	r8, r18
    2e26:	93 1e       	adc	r9, r19
    2e28:	a4 1e       	adc	r10, r20
    2e2a:	b5 1e       	adc	r11, r21
    acc += (int32_t)W_hz[6][7] * (int32_t)h_state[7];
    2e2c:	26 e0       	ldi	r18, 0x06	; 6
    2e2e:	30 e0       	ldi	r19, 0x00	; 0
    2e30:	a9 89       	ldd	r26, Y+17	; 0x11
    2e32:	ba 89       	ldd	r27, Y+18	; 0x12
    2e34:	0e 94 c2 32 	call	0x6584	; 0x6584 <__usmulhisi3>
    2e38:	86 0e       	add	r8, r22
    2e3a:	97 1e       	adc	r9, r23
    2e3c:	a8 1e       	adc	r10, r24
    2e3e:	b9 1e       	adc	r11, r25
    acc += (int32_t)W_hz[6][8] * (int32_t)h_state[8];
    2e40:	2f e3       	ldi	r18, 0x3F	; 63
    2e42:	30 e0       	ldi	r19, 0x00	; 0
    2e44:	af 89       	ldd	r26, Y+23	; 0x17
    2e46:	b8 8d       	ldd	r27, Y+24	; 0x18
    2e48:	0e 94 c2 32 	call	0x6584	; 0x6584 <__usmulhisi3>
    2e4c:	c1 57       	subi	r28, 0x71	; 113
    2e4e:	df 4f       	sbci	r29, 0xFF	; 255
    2e50:	68 83       	st	Y, r22
    2e52:	79 83       	std	Y+1, r23	; 0x01
    2e54:	8a 83       	std	Y+2, r24	; 0x02
    2e56:	9b 83       	std	Y+3, r25	; 0x03
    2e58:	cf 58       	subi	r28, 0x8F	; 143
    2e5a:	d0 40       	sbci	r29, 0x00	; 0
    2e5c:	86 0e       	add	r8, r22
    2e5e:	97 1e       	adc	r9, r23
    2e60:	a8 1e       	adc	r10, r24
    2e62:	b9 1e       	adc	r11, r25
    acc += (int32_t)W_hz[6][9] * (int32_t)h_state[9];
    2e64:	29 85       	ldd	r18, Y+9	; 0x09
    2e66:	3a 85       	ldd	r19, Y+10	; 0x0a
    2e68:	ad ec       	ldi	r26, 0xCD	; 205
    2e6a:	bf ef       	ldi	r27, 0xFF	; 255
    2e6c:	0e 94 ab 32 	call	0x6556	; 0x6556 <__mulhisi3>
    2e70:	6b 01       	movw	r12, r22
    2e72:	7c 01       	movw	r14, r24
    2e74:	8c 0c       	add	r8, r12
    2e76:	9d 1c       	adc	r9, r13
    2e78:	ae 1c       	adc	r10, r14
    2e7a:	bf 1c       	adc	r11, r15
    acc += (int32_t)W_hz[6][10] * (int32_t)h_state[10];
    2e7c:	2a e2       	ldi	r18, 0x2A	; 42
    2e7e:	30 e0       	ldi	r19, 0x00	; 0
    2e80:	af 85       	ldd	r26, Y+15	; 0x0f
    2e82:	b8 89       	ldd	r27, Y+16	; 0x10
    2e84:	0e 94 c2 32 	call	0x6584	; 0x6584 <__usmulhisi3>
    2e88:	86 0e       	add	r8, r22
    2e8a:	97 1e       	adc	r9, r23
    2e8c:	a8 1e       	adc	r10, r24
    2e8e:	b9 1e       	adc	r11, r25
    acc += (int32_t)W_hz[6][11] * (int32_t)h_state[11];
    2e90:	8f a9       	ldd	r24, Y+55	; 0x37
    2e92:	98 ad       	ldd	r25, Y+56	; 0x38
    2e94:	a9 ad       	ldd	r26, Y+57	; 0x39
    2e96:	ba ad       	ldd	r27, Y+58	; 0x3a
    2e98:	f5 e0       	ldi	r31, 0x05	; 5
    2e9a:	88 0f       	add	r24, r24
    2e9c:	99 1f       	adc	r25, r25
    2e9e:	aa 1f       	adc	r26, r26
    2ea0:	bb 1f       	adc	r27, r27
    2ea2:	fa 95       	dec	r31
    2ea4:	d1 f7       	brne	.-12     	; 0x2e9a <__stack+0xc9b>
    2ea6:	8f ab       	std	Y+55, r24	; 0x37
    2ea8:	98 af       	std	Y+56, r25	; 0x38
    2eaa:	a9 af       	std	Y+57, r26	; 0x39
    2eac:	ba af       	std	Y+58, r27	; 0x3a
    2eae:	88 0e       	add	r8, r24
    2eb0:	99 1e       	adc	r9, r25
    2eb2:	aa 1e       	adc	r10, r26
    2eb4:	bb 1e       	adc	r11, r27
    acc += (int32_t)W_hz[6][12] * (int32_t)h_state[12];
    2eb6:	98 01       	movw	r18, r16
    2eb8:	a6 ee       	ldi	r26, 0xE6	; 230
    2eba:	bf ef       	ldi	r27, 0xFF	; 255
    2ebc:	0e 94 ab 32 	call	0x6556	; 0x6556 <__mulhisi3>
    2ec0:	86 0e       	add	r8, r22
    2ec2:	97 1e       	adc	r9, r23
    2ec4:	a8 1e       	adc	r10, r24
    2ec6:	b9 1e       	adc	r11, r25
    acc += (int32_t)W_hz[6][13] * (int32_t)h_state[13];
    2ec8:	cd 52       	subi	r28, 0x2D	; 45
    2eca:	df 4f       	sbci	r29, 0xFF	; 255
    2ecc:	28 81       	ld	r18, Y
    2ece:	39 81       	ldd	r19, Y+1	; 0x01
    2ed0:	4a 81       	ldd	r20, Y+2	; 0x02
    2ed2:	5b 81       	ldd	r21, Y+3	; 0x03
    2ed4:	c3 5d       	subi	r28, 0xD3	; 211
    2ed6:	d0 40       	sbci	r29, 0x00	; 0
    2ed8:	a6 e0       	ldi	r26, 0x06	; 6
    2eda:	22 0f       	add	r18, r18
    2edc:	33 1f       	adc	r19, r19
    2ede:	44 1f       	adc	r20, r20
    2ee0:	55 1f       	adc	r21, r21
    2ee2:	aa 95       	dec	r26
    2ee4:	d1 f7       	brne	.-12     	; 0x2eda <__stack+0xcdb>
    2ee6:	c5 5a       	subi	r28, 0xA5	; 165
    2ee8:	de 4f       	sbci	r29, 0xFE	; 254
    2eea:	28 83       	st	Y, r18
    2eec:	39 83       	std	Y+1, r19	; 0x01
    2eee:	4a 83       	std	Y+2, r20	; 0x02
    2ef0:	5b 83       	std	Y+3, r21	; 0x03
    2ef2:	cb 55       	subi	r28, 0x5B	; 91
    2ef4:	d1 40       	sbci	r29, 0x01	; 1
    2ef6:	82 0e       	add	r8, r18
    2ef8:	93 1e       	adc	r9, r19
    2efa:	a4 1e       	adc	r10, r20
    2efc:	b5 1e       	adc	r11, r21
    acc += (int32_t)W_hz[6][14] * (int32_t)h_state[14];
    2efe:	2d 8d       	ldd	r18, Y+29	; 0x1d
    2f00:	3e 8d       	ldd	r19, Y+30	; 0x1e
    2f02:	aa ef       	ldi	r26, 0xFA	; 250
    2f04:	bf ef       	ldi	r27, 0xFF	; 255
    2f06:	0e 94 ab 32 	call	0x6556	; 0x6556 <__mulhisi3>
    2f0a:	9b 01       	movw	r18, r22
    2f0c:	ac 01       	movw	r20, r24
    2f0e:	28 0d       	add	r18, r8
    2f10:	39 1d       	adc	r19, r9
    2f12:	4a 1d       	adc	r20, r10
    2f14:	5b 1d       	adc	r21, r11
    2f16:	29 83       	std	Y+1, r18	; 0x01
    2f18:	3a 83       	std	Y+2, r19	; 0x02
    2f1a:	4b 83       	std	Y+3, r20	; 0x03
    2f1c:	5c 83       	std	Y+4, r21	; 0x04
    acc += (int32_t)W_hz[6][15] * (int32_t)h_state[15];
    2f1e:	2b 89       	ldd	r18, Y+19	; 0x13
    2f20:	3c 89       	ldd	r19, Y+20	; 0x14
    2f22:	ad ee       	ldi	r26, 0xED	; 237
    2f24:	bf ef       	ldi	r27, 0xFF	; 255
    2f26:	0e 94 ab 32 	call	0x6556	; 0x6556 <__mulhisi3>
    2f2a:	4b 01       	movw	r8, r22
    2f2c:	5c 01       	movw	r10, r24
    2f2e:	89 81       	ldd	r24, Y+1	; 0x01
    2f30:	9a 81       	ldd	r25, Y+2	; 0x02
    2f32:	ab 81       	ldd	r26, Y+3	; 0x03
    2f34:	bc 81       	ldd	r27, Y+4	; 0x04
    2f36:	88 0d       	add	r24, r8
    2f38:	99 1d       	adc	r25, r9
    2f3a:	aa 1d       	adc	r26, r10
    2f3c:	bb 1d       	adc	r27, r11
    acc >>= FRAC_BITS;
    2f3e:	26 e0       	ldi	r18, 0x06	; 6
    2f40:	b5 95       	asr	r27
    2f42:	a7 95       	ror	r26
    2f44:	97 95       	ror	r25
    2f46:	87 95       	ror	r24
    2f48:	2a 95       	dec	r18
    2f4a:	d1 f7       	brne	.-12     	; 0x2f40 <__stack+0xd41>
static inline int16_t fp_mul(int16_t a, int16_t b) {
    return (int16_t)(((int32_t)a * (int32_t)b) >> FRAC_BITS);
}

static inline int16_t fp_sat32(int32_t v) {
    if (v > FP_MAX) return FP_MAX;
    2f4c:	81 15       	cp	r24, r1
    2f4e:	30 e8       	ldi	r19, 0x80	; 128
    2f50:	93 07       	cpc	r25, r19
    2f52:	a1 05       	cpc	r26, r1
    2f54:	b1 05       	cpc	r27, r1
    2f56:	14 f0       	brlt	.+4      	; 0x2f5c <__stack+0xd5d>
    2f58:	0c 94 32 32 	jmp	0x6464	; 0x6464 <__stack+0x4265>
    if (v < FP_MIN) return FP_MIN;
    2f5c:	81 15       	cp	r24, r1
    2f5e:	40 e8       	ldi	r20, 0x80	; 128
    2f60:	94 07       	cpc	r25, r20
    2f62:	4f ef       	ldi	r20, 0xFF	; 255
    2f64:	a4 07       	cpc	r26, r20
    2f66:	b4 07       	cpc	r27, r20
    2f68:	14 f4       	brge	.+4      	; 0x2f6e <__stack+0xd6f>
    2f6a:	0c 94 36 32 	jmp	0x646c	; 0x646c <__stack+0x426d>
    acc += (int32_t)W_hz[6][12] * (int32_t)h_state[12];
    acc += (int32_t)W_hz[6][13] * (int32_t)h_state[13];
    acc += (int32_t)W_hz[6][14] * (int32_t)h_state[14];
    acc += (int32_t)W_hz[6][15] * (int32_t)h_state[15];
    acc >>= FRAC_BITS;
    z[6] = fp_sigmoid(fp_sat32(acc));
    2f6e:	0e 94 b5 00 	call	0x16a	; 0x16a <_ZL10fp_sigmoidi>
    2f72:	c1 5a       	subi	r28, 0xA1	; 161
    2f74:	de 4f       	sbci	r29, 0xFE	; 254
    2f76:	99 83       	std	Y+1, r25	; 0x01
    2f78:	88 83       	st	Y, r24
    2f7a:	cf 55       	subi	r28, 0x5F	; 95
    2f7c:	d1 40       	sbci	r29, 0x01	; 1
    acc += (int32_t)W_iz[7][61] * (int32_t)x[61];
    acc += (int32_t)W_iz[7][62] * (int32_t)x[62];
    acc += (int32_t)W_iz[7][63] * (int32_t)x[63];
    acc >>= FRAC_BITS;
    acc += (int32_t)b_hz[7];
    acc += (int32_t)W_hz[7][0] * (int32_t)h_state[0];
    2f7e:	29 e2       	ldi	r18, 0x29	; 41
    2f80:	30 e0       	ldi	r19, 0x00	; 0
    2f82:	ab 85       	ldd	r26, Y+11	; 0x0b
    2f84:	bc 85       	ldd	r27, Y+12	; 0x0c
    2f86:	0e 94 c2 32 	call	0x6584	; 0x6584 <__usmulhisi3>
    2f8a:	9b 01       	movw	r18, r22
    2f8c:	ac 01       	movw	r20, r24
    2f8e:	23 55       	subi	r18, 0x53	; 83
    2f90:	31 09       	sbc	r19, r1
    2f92:	41 09       	sbc	r20, r1
    2f94:	51 09       	sbc	r21, r1
    2f96:	29 83       	std	Y+1, r18	; 0x01
    2f98:	3a 83       	std	Y+2, r19	; 0x02
    2f9a:	4b 83       	std	Y+3, r20	; 0x03
    2f9c:	5c 83       	std	Y+4, r21	; 0x04
    acc += (int32_t)W_hz[7][1] * (int32_t)h_state[1];
    2f9e:	2f 81       	ldd	r18, Y+7	; 0x07
    2fa0:	38 85       	ldd	r19, Y+8	; 0x08
    2fa2:	a8 ef       	ldi	r26, 0xF8	; 248
    2fa4:	bf ef       	ldi	r27, 0xFF	; 255
    2fa6:	0e 94 ab 32 	call	0x6556	; 0x6556 <__mulhisi3>
    2faa:	29 81       	ldd	r18, Y+1	; 0x01
    2fac:	3a 81       	ldd	r19, Y+2	; 0x02
    2fae:	4b 81       	ldd	r20, Y+3	; 0x03
    2fb0:	5c 81       	ldd	r21, Y+4	; 0x04
    2fb2:	26 0f       	add	r18, r22
    2fb4:	37 1f       	adc	r19, r23
    2fb6:	48 1f       	adc	r20, r24
    2fb8:	59 1f       	adc	r21, r25
    2fba:	29 83       	std	Y+1, r18	; 0x01
    2fbc:	3a 83       	std	Y+2, r19	; 0x02
    2fbe:	4b 83       	std	Y+3, r20	; 0x03
    2fc0:	5c 83       	std	Y+4, r21	; 0x04
    acc += (int32_t)W_hz[7][2] * (int32_t)h_state[2];
    2fc2:	2f e3       	ldi	r18, 0x3F	; 63
    2fc4:	30 e0       	ldi	r19, 0x00	; 0
    2fc6:	ad 89       	ldd	r26, Y+21	; 0x15
    2fc8:	be 89       	ldd	r27, Y+22	; 0x16
    2fca:	0e 94 c2 32 	call	0x6584	; 0x6584 <__usmulhisi3>
    2fce:	29 81       	ldd	r18, Y+1	; 0x01
    2fd0:	3a 81       	ldd	r19, Y+2	; 0x02
    2fd2:	4b 81       	ldd	r20, Y+3	; 0x03
    2fd4:	5c 81       	ldd	r21, Y+4	; 0x04
    2fd6:	26 0f       	add	r18, r22
    2fd8:	37 1f       	adc	r19, r23
    2fda:	48 1f       	adc	r20, r24
    2fdc:	59 1f       	adc	r21, r25
    2fde:	29 83       	std	Y+1, r18	; 0x01
    2fe0:	3a 83       	std	Y+2, r19	; 0x02
    2fe2:	4b 83       	std	Y+3, r20	; 0x03
    2fe4:	5c 83       	std	Y+4, r21	; 0x04
    acc += (int32_t)W_hz[7][3] * (int32_t)h_state[3];
    2fe6:	23 e2       	ldi	r18, 0x23	; 35
    2fe8:	30 e0       	ldi	r19, 0x00	; 0
    2fea:	d1 01       	movw	r26, r2
    2fec:	0e 94 c2 32 	call	0x6584	; 0x6584 <__usmulhisi3>
    2ff0:	cf 59       	subi	r28, 0x9F	; 159
    2ff2:	de 4f       	sbci	r29, 0xFE	; 254
    2ff4:	68 83       	st	Y, r22
    2ff6:	79 83       	std	Y+1, r23	; 0x01
    2ff8:	8a 83       	std	Y+2, r24	; 0x02
    2ffa:	9b 83       	std	Y+3, r25	; 0x03
    2ffc:	c1 56       	subi	r28, 0x61	; 97
    2ffe:	d1 40       	sbci	r29, 0x01	; 1
    3000:	29 81       	ldd	r18, Y+1	; 0x01
    3002:	3a 81       	ldd	r19, Y+2	; 0x02
    3004:	4b 81       	ldd	r20, Y+3	; 0x03
    3006:	5c 81       	ldd	r21, Y+4	; 0x04
    3008:	26 0f       	add	r18, r22
    300a:	37 1f       	adc	r19, r23
    300c:	48 1f       	adc	r20, r24
    300e:	59 1f       	adc	r21, r25
    3010:	29 83       	std	Y+1, r18	; 0x01
    3012:	3a 83       	std	Y+2, r19	; 0x02
    3014:	4b 83       	std	Y+3, r20	; 0x03
    3016:	5c 83       	std	Y+4, r21	; 0x04
    acc += (int32_t)W_hz[7][4] * (int32_t)h_state[4];
    3018:	2d 81       	ldd	r18, Y+5	; 0x05
    301a:	3e 81       	ldd	r19, Y+6	; 0x06
    301c:	ae ed       	ldi	r26, 0xDE	; 222
    301e:	bf ef       	ldi	r27, 0xFF	; 255
    3020:	0e 94 ab 32 	call	0x6556	; 0x6556 <__mulhisi3>
    3024:	29 81       	ldd	r18, Y+1	; 0x01
    3026:	3a 81       	ldd	r19, Y+2	; 0x02
    3028:	4b 81       	ldd	r20, Y+3	; 0x03
    302a:	5c 81       	ldd	r21, Y+4	; 0x04
    302c:	26 0f       	add	r18, r22
    302e:	37 1f       	adc	r19, r23
    3030:	48 1f       	adc	r20, r24
    3032:	59 1f       	adc	r21, r25
    3034:	29 83       	std	Y+1, r18	; 0x01
    3036:	3a 83       	std	Y+2, r19	; 0x02
    3038:	4b 83       	std	Y+3, r20	; 0x03
    303a:	5c 83       	std	Y+4, r21	; 0x04
    acc += (int32_t)W_hz[7][5] * (int32_t)h_state[5];
    303c:	28 e2       	ldi	r18, 0x28	; 40
    303e:	30 e0       	ldi	r19, 0x00	; 0
    3040:	ad 85       	ldd	r26, Y+13	; 0x0d
    3042:	be 85       	ldd	r27, Y+14	; 0x0e
    3044:	0e 94 c2 32 	call	0x6584	; 0x6584 <__usmulhisi3>
    3048:	29 81       	ldd	r18, Y+1	; 0x01
    304a:	3a 81       	ldd	r19, Y+2	; 0x02
    304c:	4b 81       	ldd	r20, Y+3	; 0x03
    304e:	5c 81       	ldd	r21, Y+4	; 0x04
    3050:	26 0f       	add	r18, r22
    3052:	37 1f       	adc	r19, r23
    3054:	48 1f       	adc	r20, r24
    3056:	59 1f       	adc	r21, r25
    3058:	29 83       	std	Y+1, r18	; 0x01
    305a:	3a 83       	std	Y+2, r19	; 0x02
    305c:	4b 83       	std	Y+3, r20	; 0x03
    305e:	5c 83       	std	Y+4, r21	; 0x04
    acc += (int32_t)W_hz[7][6] * (int32_t)h_state[6];
    3060:	2b e0       	ldi	r18, 0x0B	; 11
    3062:	30 e0       	ldi	r19, 0x00	; 0
    3064:	c9 56       	subi	r28, 0x69	; 105
    3066:	de 4f       	sbci	r29, 0xFE	; 254
    3068:	a8 81       	ld	r26, Y
    306a:	b9 81       	ldd	r27, Y+1	; 0x01
    306c:	c7 59       	subi	r28, 0x97	; 151
    306e:	d1 40       	sbci	r29, 0x01	; 1
    3070:	0e 94 c2 32 	call	0x6584	; 0x6584 <__usmulhisi3>
    3074:	29 81       	ldd	r18, Y+1	; 0x01
    3076:	3a 81       	ldd	r19, Y+2	; 0x02
    3078:	4b 81       	ldd	r20, Y+3	; 0x03
    307a:	5c 81       	ldd	r21, Y+4	; 0x04
    307c:	26 0f       	add	r18, r22
    307e:	37 1f       	adc	r19, r23
    3080:	48 1f       	adc	r20, r24
    3082:	59 1f       	adc	r21, r25
    3084:	29 83       	std	Y+1, r18	; 0x01
    3086:	3a 83       	std	Y+2, r19	; 0x02
    3088:	4b 83       	std	Y+3, r20	; 0x03
    308a:	5c 83       	std	Y+4, r21	; 0x04
    acc += (int32_t)W_hz[7][7] * (int32_t)h_state[7];
    308c:	29 89       	ldd	r18, Y+17	; 0x11
    308e:	3a 89       	ldd	r19, Y+18	; 0x12
    3090:	ad ee       	ldi	r26, 0xED	; 237
    3092:	bf ef       	ldi	r27, 0xFF	; 255
    3094:	0e 94 ab 32 	call	0x6556	; 0x6556 <__mulhisi3>
    3098:	29 81       	ldd	r18, Y+1	; 0x01
    309a:	3a 81       	ldd	r19, Y+2	; 0x02
    309c:	4b 81       	ldd	r20, Y+3	; 0x03
    309e:	5c 81       	ldd	r21, Y+4	; 0x04
    30a0:	26 0f       	add	r18, r22
    30a2:	37 1f       	adc	r19, r23
    30a4:	48 1f       	adc	r20, r24
    30a6:	59 1f       	adc	r21, r25
    30a8:	29 83       	std	Y+1, r18	; 0x01
    30aa:	3a 83       	std	Y+2, r19	; 0x02
    30ac:	4b 83       	std	Y+3, r20	; 0x03
    30ae:	5c 83       	std	Y+4, r21	; 0x04
    acc += (int32_t)W_hz[7][8] * (int32_t)h_state[8];
    30b0:	2b e1       	ldi	r18, 0x1B	; 27
    30b2:	30 e0       	ldi	r19, 0x00	; 0
    30b4:	af 89       	ldd	r26, Y+23	; 0x17
    30b6:	b8 8d       	ldd	r27, Y+24	; 0x18
    30b8:	0e 94 c2 32 	call	0x6584	; 0x6584 <__usmulhisi3>
    30bc:	29 81       	ldd	r18, Y+1	; 0x01
    30be:	3a 81       	ldd	r19, Y+2	; 0x02
    30c0:	4b 81       	ldd	r20, Y+3	; 0x03
    30c2:	5c 81       	ldd	r21, Y+4	; 0x04
    30c4:	26 0f       	add	r18, r22
    30c6:	37 1f       	adc	r19, r23
    30c8:	48 1f       	adc	r20, r24
    30ca:	59 1f       	adc	r21, r25
    30cc:	29 83       	std	Y+1, r18	; 0x01
    30ce:	3a 83       	std	Y+2, r19	; 0x02
    30d0:	4b 83       	std	Y+3, r20	; 0x03
    30d2:	5c 83       	std	Y+4, r21	; 0x04
    acc += (int32_t)W_hz[7][9] * (int32_t)h_state[9];
    30d4:	21 e1       	ldi	r18, 0x11	; 17
    30d6:	30 e0       	ldi	r19, 0x00	; 0
    30d8:	a9 85       	ldd	r26, Y+9	; 0x09
    30da:	ba 85       	ldd	r27, Y+10	; 0x0a
    30dc:	0e 94 c2 32 	call	0x6584	; 0x6584 <__usmulhisi3>
    30e0:	29 81       	ldd	r18, Y+1	; 0x01
    30e2:	3a 81       	ldd	r19, Y+2	; 0x02
    30e4:	4b 81       	ldd	r20, Y+3	; 0x03
    30e6:	5c 81       	ldd	r21, Y+4	; 0x04
    30e8:	26 0f       	add	r18, r22
    30ea:	37 1f       	adc	r19, r23
    30ec:	48 1f       	adc	r20, r24
    30ee:	59 1f       	adc	r21, r25
    30f0:	29 83       	std	Y+1, r18	; 0x01
    30f2:	3a 83       	std	Y+2, r19	; 0x02
    30f4:	4b 83       	std	Y+3, r20	; 0x03
    30f6:	5c 83       	std	Y+4, r21	; 0x04
    acc += (int32_t)W_hz[7][10] * (int32_t)h_state[10];
    30f8:	2f 85       	ldd	r18, Y+15	; 0x0f
    30fa:	38 89       	ldd	r19, Y+16	; 0x10
    30fc:	a5 ed       	ldi	r26, 0xD5	; 213
    30fe:	bf ef       	ldi	r27, 0xFF	; 255
    3100:	0e 94 ab 32 	call	0x6556	; 0x6556 <__mulhisi3>
    3104:	29 81       	ldd	r18, Y+1	; 0x01
    3106:	3a 81       	ldd	r19, Y+2	; 0x02
    3108:	4b 81       	ldd	r20, Y+3	; 0x03
    310a:	5c 81       	ldd	r21, Y+4	; 0x04
    310c:	26 0f       	add	r18, r22
    310e:	37 1f       	adc	r19, r23
    3110:	48 1f       	adc	r20, r24
    3112:	59 1f       	adc	r21, r25
    3114:	29 83       	std	Y+1, r18	; 0x01
    3116:	3a 83       	std	Y+2, r19	; 0x02
    3118:	4b 83       	std	Y+3, r20	; 0x03
    311a:	5c 83       	std	Y+4, r21	; 0x04
    acc += (int32_t)W_hz[7][11] * (int32_t)h_state[11];
    311c:	29 8d       	ldd	r18, Y+25	; 0x19
    311e:	3a 8d       	ldd	r19, Y+26	; 0x1a
    3120:	a2 ed       	ldi	r26, 0xD2	; 210
    3122:	bf ef       	ldi	r27, 0xFF	; 255
    3124:	0e 94 ab 32 	call	0x6556	; 0x6556 <__mulhisi3>
    3128:	cb 59       	subi	r28, 0x9B	; 155
    312a:	de 4f       	sbci	r29, 0xFE	; 254
    312c:	68 83       	st	Y, r22
    312e:	79 83       	std	Y+1, r23	; 0x01
    3130:	8a 83       	std	Y+2, r24	; 0x02
    3132:	9b 83       	std	Y+3, r25	; 0x03
    3134:	c5 56       	subi	r28, 0x65	; 101
    3136:	d1 40       	sbci	r29, 0x01	; 1
    3138:	29 81       	ldd	r18, Y+1	; 0x01
    313a:	3a 81       	ldd	r19, Y+2	; 0x02
    313c:	4b 81       	ldd	r20, Y+3	; 0x03
    313e:	5c 81       	ldd	r21, Y+4	; 0x04
    3140:	26 0f       	add	r18, r22
    3142:	37 1f       	adc	r19, r23
    3144:	48 1f       	adc	r20, r24
    3146:	59 1f       	adc	r21, r25
    3148:	29 83       	std	Y+1, r18	; 0x01
    314a:	3a 83       	std	Y+2, r19	; 0x02
    314c:	4b 83       	std	Y+3, r20	; 0x03
    314e:	5c 83       	std	Y+4, r21	; 0x04
    acc += (int32_t)W_hz[7][12] * (int32_t)h_state[12];
    3150:	98 01       	movw	r18, r16
    3152:	aa ed       	ldi	r26, 0xDA	; 218
    3154:	bf ef       	ldi	r27, 0xFF	; 255
    3156:	0e 94 ab 32 	call	0x6556	; 0x6556 <__mulhisi3>
    315a:	29 81       	ldd	r18, Y+1	; 0x01
    315c:	3a 81       	ldd	r19, Y+2	; 0x02
    315e:	4b 81       	ldd	r20, Y+3	; 0x03
    3160:	5c 81       	ldd	r21, Y+4	; 0x04
    3162:	62 0f       	add	r22, r18
    3164:	73 1f       	adc	r23, r19
    3166:	84 1f       	adc	r24, r20
    3168:	95 1f       	adc	r25, r21
    acc += (int32_t)W_hz[7][13] * (int32_t)h_state[13];
    316a:	46 0e       	add	r4, r22
    316c:	57 1e       	adc	r5, r23
    316e:	68 1e       	adc	r6, r24
    3170:	79 1e       	adc	r7, r25
    acc += (int32_t)W_hz[7][14] * (int32_t)h_state[14];
    3172:	2d 8d       	ldd	r18, Y+29	; 0x1d
    3174:	3e 8d       	ldd	r19, Y+30	; 0x1e
    3176:	a8 ec       	ldi	r26, 0xC8	; 200
    3178:	bf ef       	ldi	r27, 0xFF	; 255
    317a:	0e 94 ab 32 	call	0x6556	; 0x6556 <__mulhisi3>
    317e:	dc 01       	movw	r26, r24
    3180:	cb 01       	movw	r24, r22
    3182:	84 0d       	add	r24, r4
    3184:	95 1d       	adc	r25, r5
    3186:	a6 1d       	adc	r26, r6
    3188:	b7 1d       	adc	r27, r7
    acc += (int32_t)W_hz[7][15] * (int32_t)h_state[15];
    318a:	88 0d       	add	r24, r8
    318c:	99 1d       	adc	r25, r9
    318e:	aa 1d       	adc	r26, r10
    3190:	bb 1d       	adc	r27, r11
    acc >>= FRAC_BITS;
    3192:	e6 e0       	ldi	r30, 0x06	; 6
    3194:	b5 95       	asr	r27
    3196:	a7 95       	ror	r26
    3198:	97 95       	ror	r25
    319a:	87 95       	ror	r24
    319c:	ea 95       	dec	r30
    319e:	d1 f7       	brne	.-12     	; 0x3194 <__stack+0xf95>
static inline int16_t fp_mul(int16_t a, int16_t b) {
    return (int16_t)(((int32_t)a * (int32_t)b) >> FRAC_BITS);
}

static inline int16_t fp_sat32(int32_t v) {
    if (v > FP_MAX) return FP_MAX;
    31a0:	81 15       	cp	r24, r1
    31a2:	30 e8       	ldi	r19, 0x80	; 128
    31a4:	93 07       	cpc	r25, r19
    31a6:	a1 05       	cpc	r26, r1
    31a8:	b1 05       	cpc	r27, r1
    31aa:	14 f0       	brlt	.+4      	; 0x31b0 <__stack+0xfb1>
    31ac:	0c 94 3a 32 	jmp	0x6474	; 0x6474 <__stack+0x4275>
    if (v < FP_MIN) return FP_MIN;
    31b0:	81 15       	cp	r24, r1
    31b2:	40 e8       	ldi	r20, 0x80	; 128
    31b4:	94 07       	cpc	r25, r20
    31b6:	4f ef       	ldi	r20, 0xFF	; 255
    31b8:	a4 07       	cpc	r26, r20
    31ba:	b4 07       	cpc	r27, r20
    31bc:	14 f4       	brge	.+4      	; 0x31c2 <__stack+0xfc3>
    31be:	0c 94 3e 32 	jmp	0x647c	; 0x647c <__stack+0x427d>
    acc += (int32_t)W_hz[7][12] * (int32_t)h_state[12];
    acc += (int32_t)W_hz[7][13] * (int32_t)h_state[13];
    acc += (int32_t)W_hz[7][14] * (int32_t)h_state[14];
    acc += (int32_t)W_hz[7][15] * (int32_t)h_state[15];
    acc >>= FRAC_BITS;
    z[7] = fp_sigmoid(fp_sat32(acc));
    31c2:	0e 94 b5 00 	call	0x16a	; 0x16a <_ZL10fp_sigmoidi>
    31c6:	c7 59       	subi	r28, 0x97	; 151
    31c8:	de 4f       	sbci	r29, 0xFE	; 254
    31ca:	99 83       	std	Y+1, r25	; 0x01
    31cc:	88 83       	st	Y, r24
    31ce:	c9 56       	subi	r28, 0x69	; 105
    31d0:	d1 40       	sbci	r29, 0x01	; 1
    acc += (int32_t)W_iz[8][61] * (int32_t)x[61];
    acc += (int32_t)W_iz[8][62] * (int32_t)x[62];
    acc += (int32_t)W_iz[8][63] * (int32_t)x[63];
    acc >>= FRAC_BITS;
    acc += (int32_t)b_hz[8];
    acc += (int32_t)W_hz[8][0] * (int32_t)h_state[0];
    31d2:	2b 85       	ldd	r18, Y+11	; 0x0b
    31d4:	3c 85       	ldd	r19, Y+12	; 0x0c
    31d6:	a4 ee       	ldi	r26, 0xE4	; 228
    31d8:	bf ef       	ldi	r27, 0xFF	; 255
    31da:	0e 94 ab 32 	call	0x6556	; 0x6556 <__mulhisi3>
    31de:	4b 01       	movw	r8, r22
    31e0:	5c 01       	movw	r10, r24
    31e2:	53 e5       	ldi	r21, 0x53	; 83
    31e4:	85 0e       	add	r8, r21
    31e6:	91 1c       	adc	r9, r1
    31e8:	a1 1c       	adc	r10, r1
    31ea:	b1 1c       	adc	r11, r1
    acc += (int32_t)W_hz[8][1] * (int32_t)h_state[1];
    31ec:	25 e0       	ldi	r18, 0x05	; 5
    31ee:	30 e0       	ldi	r19, 0x00	; 0
    31f0:	af 81       	ldd	r26, Y+7	; 0x07
    31f2:	b8 85       	ldd	r27, Y+8	; 0x08
    31f4:	0e 94 c2 32 	call	0x6584	; 0x6584 <__usmulhisi3>
    31f8:	86 0e       	add	r8, r22
    31fa:	97 1e       	adc	r9, r23
    31fc:	a8 1e       	adc	r10, r24
    31fe:	b9 1e       	adc	r11, r25
    acc += (int32_t)W_hz[8][2] * (int32_t)h_state[2];
    3200:	2d 89       	ldd	r18, Y+21	; 0x15
    3202:	3e 89       	ldd	r19, Y+22	; 0x16
    3204:	a9 ee       	ldi	r26, 0xE9	; 233
    3206:	bf ef       	ldi	r27, 0xFF	; 255
    3208:	0e 94 ab 32 	call	0x6556	; 0x6556 <__mulhisi3>
    320c:	86 0e       	add	r8, r22
    320e:	97 1e       	adc	r9, r23
    3210:	a8 1e       	adc	r10, r24
    3212:	b9 1e       	adc	r11, r25
    acc += (int32_t)W_hz[8][3] * (int32_t)h_state[3];
    3214:	2a e1       	ldi	r18, 0x1A	; 26
    3216:	30 e0       	ldi	r19, 0x00	; 0
    3218:	d1 01       	movw	r26, r2
    321a:	0e 94 c2 32 	call	0x6584	; 0x6584 <__usmulhisi3>
    321e:	c5 59       	subi	r28, 0x95	; 149
    3220:	de 4f       	sbci	r29, 0xFE	; 254
    3222:	68 83       	st	Y, r22
    3224:	79 83       	std	Y+1, r23	; 0x01
    3226:	8a 83       	std	Y+2, r24	; 0x02
    3228:	9b 83       	std	Y+3, r25	; 0x03
    322a:	cb 56       	subi	r28, 0x6B	; 107
    322c:	d1 40       	sbci	r29, 0x01	; 1
    322e:	86 0e       	add	r8, r22
    3230:	97 1e       	adc	r9, r23
    3232:	a8 1e       	adc	r10, r24
    3234:	b9 1e       	adc	r11, r25
    acc += (int32_t)W_hz[8][4] * (int32_t)h_state[4];
    3236:	2d 81       	ldd	r18, Y+5	; 0x05
    3238:	3e 81       	ldd	r19, Y+6	; 0x06
    323a:	a5 ee       	ldi	r26, 0xE5	; 229
    323c:	bf ef       	ldi	r27, 0xFF	; 255
    323e:	0e 94 ab 32 	call	0x6556	; 0x6556 <__mulhisi3>
    3242:	86 0e       	add	r8, r22
    3244:	97 1e       	adc	r9, r23
    3246:	a8 1e       	adc	r10, r24
    3248:	b9 1e       	adc	r11, r25
    acc += (int32_t)W_hz[8][5] * (int32_t)h_state[5];
    324a:	2d 85       	ldd	r18, Y+13	; 0x0d
    324c:	3e 85       	ldd	r19, Y+14	; 0x0e
    324e:	a2 ee       	ldi	r26, 0xE2	; 226
    3250:	bf ef       	ldi	r27, 0xFF	; 255
    3252:	0e 94 ab 32 	call	0x6556	; 0x6556 <__mulhisi3>
    3256:	86 0e       	add	r8, r22
    3258:	97 1e       	adc	r9, r23
    325a:	a8 1e       	adc	r10, r24
    325c:	b9 1e       	adc	r11, r25
    acc += (int32_t)W_hz[8][6] * (int32_t)h_state[6];
    325e:	2e e2       	ldi	r18, 0x2E	; 46
    3260:	30 e0       	ldi	r19, 0x00	; 0
    3262:	c9 56       	subi	r28, 0x69	; 105
    3264:	de 4f       	sbci	r29, 0xFE	; 254
    3266:	a8 81       	ld	r26, Y
    3268:	b9 81       	ldd	r27, Y+1	; 0x01
    326a:	c7 59       	subi	r28, 0x97	; 151
    326c:	d1 40       	sbci	r29, 0x01	; 1
    326e:	0e 94 c2 32 	call	0x6584	; 0x6584 <__usmulhisi3>
    3272:	86 0e       	add	r8, r22
    3274:	97 1e       	adc	r9, r23
    3276:	a8 1e       	adc	r10, r24
    3278:	b9 1e       	adc	r11, r25
    acc += (int32_t)W_hz[8][7] * (int32_t)h_state[7];
    327a:	2e e3       	ldi	r18, 0x3E	; 62
    327c:	30 e0       	ldi	r19, 0x00	; 0
    327e:	a9 89       	ldd	r26, Y+17	; 0x11
    3280:	ba 89       	ldd	r27, Y+18	; 0x12
    3282:	0e 94 c2 32 	call	0x6584	; 0x6584 <__usmulhisi3>
    3286:	86 0e       	add	r8, r22
    3288:	97 1e       	adc	r9, r23
    328a:	a8 1e       	adc	r10, r24
    328c:	b9 1e       	adc	r11, r25
    acc += (int32_t)W_hz[8][8] * (int32_t)h_state[8];
    328e:	27 e1       	ldi	r18, 0x17	; 23
    3290:	30 e0       	ldi	r19, 0x00	; 0
    3292:	af 89       	ldd	r26, Y+23	; 0x17
    3294:	b8 8d       	ldd	r27, Y+24	; 0x18
    3296:	0e 94 c2 32 	call	0x6584	; 0x6584 <__usmulhisi3>
    329a:	86 0e       	add	r8, r22
    329c:	97 1e       	adc	r9, r23
    329e:	a8 1e       	adc	r10, r24
    32a0:	b9 1e       	adc	r11, r25
    acc += (int32_t)W_hz[8][9] * (int32_t)h_state[9];
    32a2:	29 85       	ldd	r18, Y+9	; 0x09
    32a4:	3a 85       	ldd	r19, Y+10	; 0x0a
    32a6:	ac ec       	ldi	r26, 0xCC	; 204
    32a8:	bf ef       	ldi	r27, 0xFF	; 255
    32aa:	0e 94 ab 32 	call	0x6556	; 0x6556 <__mulhisi3>
    32ae:	86 0e       	add	r8, r22
    32b0:	97 1e       	adc	r9, r23
    32b2:	a8 1e       	adc	r10, r24
    32b4:	b9 1e       	adc	r11, r25
    acc += (int32_t)W_hz[8][10] * (int32_t)h_state[10];
    32b6:	2b e3       	ldi	r18, 0x3B	; 59
    32b8:	30 e0       	ldi	r19, 0x00	; 0
    32ba:	af 85       	ldd	r26, Y+15	; 0x0f
    32bc:	b8 89       	ldd	r27, Y+16	; 0x10
    32be:	0e 94 c2 32 	call	0x6584	; 0x6584 <__usmulhisi3>
    32c2:	86 0e       	add	r8, r22
    32c4:	97 1e       	adc	r9, r23
    32c6:	a8 1e       	adc	r10, r24
    32c8:	b9 1e       	adc	r11, r25
    acc += (int32_t)W_hz[8][11] * (int32_t)h_state[11];
    32ca:	25 e2       	ldi	r18, 0x25	; 37
    32cc:	30 e0       	ldi	r19, 0x00	; 0
    32ce:	a9 8d       	ldd	r26, Y+25	; 0x19
    32d0:	ba 8d       	ldd	r27, Y+26	; 0x1a
    32d2:	0e 94 c2 32 	call	0x6584	; 0x6584 <__usmulhisi3>
    32d6:	86 0e       	add	r8, r22
    32d8:	97 1e       	adc	r9, r23
    32da:	a8 1e       	adc	r10, r24
    32dc:	b9 1e       	adc	r11, r25
    acc += (int32_t)W_hz[8][12] * (int32_t)h_state[12];
    32de:	26 e3       	ldi	r18, 0x36	; 54
    32e0:	30 e0       	ldi	r19, 0x00	; 0
    32e2:	d8 01       	movw	r26, r16
    32e4:	0e 94 c2 32 	call	0x6584	; 0x6584 <__usmulhisi3>
    32e8:	86 0e       	add	r8, r22
    32ea:	97 1e       	adc	r9, r23
    32ec:	a8 1e       	adc	r10, r24
    32ee:	b9 1e       	adc	r11, r25
    acc += (int32_t)W_hz[8][13] * (int32_t)h_state[13];
    32f0:	8f a5       	ldd	r24, Y+47	; 0x2f
    32f2:	98 a9       	ldd	r25, Y+48	; 0x30
    32f4:	a9 a9       	ldd	r26, Y+49	; 0x31
    32f6:	ba a9       	ldd	r27, Y+50	; 0x32
    32f8:	88 0e       	add	r8, r24
    32fa:	99 1e       	adc	r9, r25
    32fc:	aa 1e       	adc	r10, r26
    32fe:	bb 1e       	adc	r11, r27
    acc += (int32_t)W_hz[8][14] * (int32_t)h_state[14];
    3300:	c5 56       	subi	r28, 0x65	; 101
    3302:	df 4f       	sbci	r29, 0xFF	; 255
    3304:	28 81       	ld	r18, Y
    3306:	39 81       	ldd	r19, Y+1	; 0x01
    3308:	4a 81       	ldd	r20, Y+2	; 0x02
    330a:	5b 81       	ldd	r21, Y+3	; 0x03
    330c:	cb 59       	subi	r28, 0x9B	; 155
    330e:	d0 40       	sbci	r29, 0x00	; 0
    3310:	82 0e       	add	r8, r18
    3312:	93 1e       	adc	r9, r19
    3314:	a4 1e       	adc	r10, r20
    3316:	b5 1e       	adc	r11, r21
    acc += (int32_t)W_hz[8][15] * (int32_t)h_state[15];
    3318:	2b 89       	ldd	r18, Y+19	; 0x13
    331a:	3c 89       	ldd	r19, Y+20	; 0x14
    331c:	a0 ed       	ldi	r26, 0xD0	; 208
    331e:	bf ef       	ldi	r27, 0xFF	; 255
    3320:	0e 94 ab 32 	call	0x6556	; 0x6556 <__mulhisi3>
    3324:	dc 01       	movw	r26, r24
    3326:	cb 01       	movw	r24, r22
    3328:	88 0d       	add	r24, r8
    332a:	99 1d       	adc	r25, r9
    332c:	aa 1d       	adc	r26, r10
    332e:	bb 1d       	adc	r27, r11
    acc >>= FRAC_BITS;
    3330:	76 e0       	ldi	r23, 0x06	; 6
    3332:	b5 95       	asr	r27
    3334:	a7 95       	ror	r26
    3336:	97 95       	ror	r25
    3338:	87 95       	ror	r24
    333a:	7a 95       	dec	r23
    333c:	d1 f7       	brne	.-12     	; 0x3332 <__stack+0x1133>
static inline int16_t fp_mul(int16_t a, int16_t b) {
    return (int16_t)(((int32_t)a * (int32_t)b) >> FRAC_BITS);
}

static inline int16_t fp_sat32(int32_t v) {
    if (v > FP_MAX) return FP_MAX;
    333e:	81 15       	cp	r24, r1
    3340:	30 e8       	ldi	r19, 0x80	; 128
    3342:	93 07       	cpc	r25, r19
    3344:	a1 05       	cpc	r26, r1
    3346:	b1 05       	cpc	r27, r1
    3348:	14 f0       	brlt	.+4      	; 0x334e <__stack+0x114f>
    334a:	0c 94 42 32 	jmp	0x6484	; 0x6484 <__stack+0x4285>
    if (v < FP_MIN) return FP_MIN;
    334e:	81 15       	cp	r24, r1
    3350:	40 e8       	ldi	r20, 0x80	; 128
    3352:	94 07       	cpc	r25, r20
    3354:	4f ef       	ldi	r20, 0xFF	; 255
    3356:	a4 07       	cpc	r26, r20
    3358:	b4 07       	cpc	r27, r20
    335a:	14 f4       	brge	.+4      	; 0x3360 <__stack+0x1161>
    335c:	0c 94 46 32 	jmp	0x648c	; 0x648c <__stack+0x428d>
    acc += (int32_t)W_hz[8][12] * (int32_t)h_state[12];
    acc += (int32_t)W_hz[8][13] * (int32_t)h_state[13];
    acc += (int32_t)W_hz[8][14] * (int32_t)h_state[14];
    acc += (int32_t)W_hz[8][15] * (int32_t)h_state[15];
    acc >>= FRAC_BITS;
    z[8] = fp_sigmoid(fp_sat32(acc));
    3360:	0e 94 b5 00 	call	0x16a	; 0x16a <_ZL10fp_sigmoidi>
    3364:	c5 56       	subi	r28, 0x65	; 101
    3366:	df 4f       	sbci	r29, 0xFF	; 255
    3368:	99 83       	std	Y+1, r25	; 0x01
    336a:	88 83       	st	Y, r24
    336c:	cb 59       	subi	r28, 0x9B	; 155
    336e:	d0 40       	sbci	r29, 0x00	; 0
    acc += (int32_t)W_iz[9][61] * (int32_t)x[61];
    acc += (int32_t)W_iz[9][62] * (int32_t)x[62];
    acc += (int32_t)W_iz[9][63] * (int32_t)x[63];
    acc >>= FRAC_BITS;
    acc += (int32_t)b_hz[9];
    acc += (int32_t)W_hz[9][0] * (int32_t)h_state[0];
    3370:	2f e2       	ldi	r18, 0x2F	; 47
    3372:	30 e0       	ldi	r19, 0x00	; 0
    3374:	ab 85       	ldd	r26, Y+11	; 0x0b
    3376:	bc 85       	ldd	r27, Y+12	; 0x0c
    3378:	0e 94 c2 32 	call	0x6584	; 0x6584 <__usmulhisi3>
    337c:	4b 01       	movw	r8, r22
    337e:	5c 01       	movw	r10, r24
    3380:	51 ec       	ldi	r21, 0xC1	; 193
    3382:	85 0e       	add	r8, r21
    3384:	91 1c       	adc	r9, r1
    3386:	a1 1c       	adc	r10, r1
    3388:	b1 1c       	adc	r11, r1
    acc += (int32_t)W_hz[9][1] * (int32_t)h_state[1];
    338a:	2f 81       	ldd	r18, Y+7	; 0x07
    338c:	38 85       	ldd	r19, Y+8	; 0x08
    338e:	a0 ee       	ldi	r26, 0xE0	; 224
    3390:	bf ef       	ldi	r27, 0xFF	; 255
    3392:	0e 94 ab 32 	call	0x6556	; 0x6556 <__mulhisi3>
    3396:	86 0e       	add	r8, r22
    3398:	97 1e       	adc	r9, r23
    339a:	a8 1e       	adc	r10, r24
    339c:	b9 1e       	adc	r11, r25
    acc += (int32_t)W_hz[9][2] * (int32_t)h_state[2];
    339e:	2b e1       	ldi	r18, 0x1B	; 27
    33a0:	30 e0       	ldi	r19, 0x00	; 0
    33a2:	ad 89       	ldd	r26, Y+21	; 0x15
    33a4:	be 89       	ldd	r27, Y+22	; 0x16
    33a6:	0e 94 c2 32 	call	0x6584	; 0x6584 <__usmulhisi3>
    33aa:	c1 59       	subi	r28, 0x91	; 145
    33ac:	de 4f       	sbci	r29, 0xFE	; 254
    33ae:	68 83       	st	Y, r22
    33b0:	79 83       	std	Y+1, r23	; 0x01
    33b2:	8a 83       	std	Y+2, r24	; 0x02
    33b4:	9b 83       	std	Y+3, r25	; 0x03
    33b6:	cf 56       	subi	r28, 0x6F	; 111
    33b8:	d1 40       	sbci	r29, 0x01	; 1
    33ba:	86 0e       	add	r8, r22
    33bc:	97 1e       	adc	r9, r23
    33be:	a8 1e       	adc	r10, r24
    33c0:	b9 1e       	adc	r11, r25
    acc += (int32_t)W_hz[9][3] * (int32_t)h_state[3];
    33c2:	2a e2       	ldi	r18, 0x2A	; 42
    33c4:	30 e0       	ldi	r19, 0x00	; 0
    33c6:	d1 01       	movw	r26, r2
    33c8:	0e 94 c2 32 	call	0x6584	; 0x6584 <__usmulhisi3>
    33cc:	86 0e       	add	r8, r22
    33ce:	97 1e       	adc	r9, r23
    33d0:	a8 1e       	adc	r10, r24
    33d2:	b9 1e       	adc	r11, r25
    acc += (int32_t)W_hz[9][4] * (int32_t)h_state[4];
    33d4:	21 e2       	ldi	r18, 0x21	; 33
    33d6:	30 e0       	ldi	r19, 0x00	; 0
    33d8:	ad 81       	ldd	r26, Y+5	; 0x05
    33da:	be 81       	ldd	r27, Y+6	; 0x06
    33dc:	0e 94 c2 32 	call	0x6584	; 0x6584 <__usmulhisi3>
    33e0:	86 0e       	add	r8, r22
    33e2:	97 1e       	adc	r9, r23
    33e4:	a8 1e       	adc	r10, r24
    33e6:	b9 1e       	adc	r11, r25
    acc += (int32_t)W_hz[9][5] * (int32_t)h_state[5];
    33e8:	27 e1       	ldi	r18, 0x17	; 23
    33ea:	30 e0       	ldi	r19, 0x00	; 0
    33ec:	ad 85       	ldd	r26, Y+13	; 0x0d
    33ee:	be 85       	ldd	r27, Y+14	; 0x0e
    33f0:	0e 94 c2 32 	call	0x6584	; 0x6584 <__usmulhisi3>
    33f4:	86 0e       	add	r8, r22
    33f6:	97 1e       	adc	r9, r23
    33f8:	a8 1e       	adc	r10, r24
    33fa:	b9 1e       	adc	r11, r25
    33fc:	c9 54       	subi	r28, 0x49	; 73
    33fe:	df 4f       	sbci	r29, 0xFF	; 255
    3400:	88 81       	ld	r24, Y
    3402:	99 81       	ldd	r25, Y+1	; 0x01
    3404:	aa 81       	ldd	r26, Y+2	; 0x02
    3406:	bb 81       	ldd	r27, Y+3	; 0x03
    3408:	c7 5b       	subi	r28, 0xB7	; 183
    340a:	d0 40       	sbci	r29, 0x00	; 0
    340c:	88 1a       	sub	r8, r24
    340e:	99 0a       	sbc	r9, r25
    3410:	aa 0a       	sbc	r10, r26
    3412:	bb 0a       	sbc	r11, r27
    acc += (int32_t)W_hz[9][6] * (int32_t)h_state[6];
    acc += (int32_t)W_hz[9][7] * (int32_t)h_state[7];
    3414:	2a e0       	ldi	r18, 0x0A	; 10
    3416:	30 e0       	ldi	r19, 0x00	; 0
    3418:	a9 89       	ldd	r26, Y+17	; 0x11
    341a:	ba 89       	ldd	r27, Y+18	; 0x12
    341c:	0e 94 c2 32 	call	0x6584	; 0x6584 <__usmulhisi3>
    3420:	86 0e       	add	r8, r22
    3422:	97 1e       	adc	r9, r23
    3424:	a8 1e       	adc	r10, r24
    3426:	b9 1e       	adc	r11, r25
    acc += (int32_t)W_hz[9][8] * (int32_t)h_state[8];
    3428:	c9 56       	subi	r28, 0x69	; 105
    342a:	df 4f       	sbci	r29, 0xFF	; 255
    342c:	28 81       	ld	r18, Y
    342e:	39 81       	ldd	r19, Y+1	; 0x01
    3430:	4a 81       	ldd	r20, Y+2	; 0x02
    3432:	5b 81       	ldd	r21, Y+3	; 0x03
    3434:	c7 59       	subi	r28, 0x97	; 151
    3436:	d0 40       	sbci	r29, 0x00	; 0
    3438:	82 0e       	add	r8, r18
    343a:	93 1e       	adc	r9, r19
    343c:	a4 1e       	adc	r10, r20
    343e:	b5 1e       	adc	r11, r21
    acc += (int32_t)W_hz[9][9] * (int32_t)h_state[9];
    3440:	29 85       	ldd	r18, Y+9	; 0x09
    3442:	3a 85       	ldd	r19, Y+10	; 0x0a
    3444:	a5 ef       	ldi	r26, 0xF5	; 245
    3446:	bf ef       	ldi	r27, 0xFF	; 255
    3448:	0e 94 ab 32 	call	0x6556	; 0x6556 <__mulhisi3>
    344c:	86 0e       	add	r8, r22
    344e:	97 1e       	adc	r9, r23
    3450:	a8 1e       	adc	r10, r24
    3452:	b9 1e       	adc	r11, r25
    acc += (int32_t)W_hz[9][10] * (int32_t)h_state[10];
    3454:	2f 85       	ldd	r18, Y+15	; 0x0f
    3456:	38 89       	ldd	r19, Y+16	; 0x10
    3458:	aa ef       	ldi	r26, 0xFA	; 250
    345a:	bf ef       	ldi	r27, 0xFF	; 255
    345c:	0e 94 ab 32 	call	0x6556	; 0x6556 <__mulhisi3>
    3460:	86 0e       	add	r8, r22
    3462:	97 1e       	adc	r9, r23
    3464:	a8 1e       	adc	r10, r24
    3466:	b9 1e       	adc	r11, r25
    acc += (int32_t)W_hz[9][11] * (int32_t)h_state[11];
    3468:	21 e1       	ldi	r18, 0x11	; 17
    346a:	30 e0       	ldi	r19, 0x00	; 0
    346c:	a9 8d       	ldd	r26, Y+25	; 0x19
    346e:	ba 8d       	ldd	r27, Y+26	; 0x1a
    3470:	0e 94 c2 32 	call	0x6584	; 0x6584 <__usmulhisi3>
    3474:	86 0e       	add	r8, r22
    3476:	97 1e       	adc	r9, r23
    3478:	a8 1e       	adc	r10, r24
    347a:	b9 1e       	adc	r11, r25
    acc += (int32_t)W_hz[9][12] * (int32_t)h_state[12];
    347c:	21 e3       	ldi	r18, 0x31	; 49
    347e:	30 e0       	ldi	r19, 0x00	; 0
    3480:	d8 01       	movw	r26, r16
    3482:	0e 94 c2 32 	call	0x6584	; 0x6584 <__usmulhisi3>
    3486:	68 0d       	add	r22, r8
    3488:	79 1d       	adc	r23, r9
    348a:	8a 1d       	adc	r24, r10
    348c:	9b 1d       	adc	r25, r11
    acc += (int32_t)W_hz[9][13] * (int32_t)h_state[13];
    348e:	c1 58       	subi	r28, 0x81	; 129
    3490:	df 4f       	sbci	r29, 0xFF	; 255
    3492:	28 81       	ld	r18, Y
    3494:	39 81       	ldd	r19, Y+1	; 0x01
    3496:	4a 81       	ldd	r20, Y+2	; 0x02
    3498:	5b 81       	ldd	r21, Y+3	; 0x03
    349a:	cf 57       	subi	r28, 0x7F	; 127
    349c:	d0 40       	sbci	r29, 0x00	; 0
    349e:	62 0f       	add	r22, r18
    34a0:	73 1f       	adc	r23, r19
    34a2:	84 1f       	adc	r24, r20
    34a4:	95 1f       	adc	r25, r21
    acc += (int32_t)W_hz[9][14] * (int32_t)h_state[14];
    34a6:	8b a0       	ldd	r8, Y+35	; 0x23
    34a8:	9c a0       	ldd	r9, Y+36	; 0x24
    34aa:	ad a0       	ldd	r10, Y+37	; 0x25
    34ac:	be a0       	ldd	r11, Y+38	; 0x26
    34ae:	88 0c       	add	r8, r8
    34b0:	99 1c       	adc	r9, r9
    34b2:	aa 1c       	adc	r10, r10
    34b4:	bb 1c       	adc	r11, r11
    34b6:	86 0e       	add	r8, r22
    34b8:	97 1e       	adc	r9, r23
    34ba:	a8 1e       	adc	r10, r24
    34bc:	b9 1e       	adc	r11, r25
    acc += (int32_t)W_hz[9][15] * (int32_t)h_state[15];
    34be:	2b 89       	ldd	r18, Y+19	; 0x13
    34c0:	3c 89       	ldd	r19, Y+20	; 0x14
    34c2:	a4 ee       	ldi	r26, 0xE4	; 228
    34c4:	bf ef       	ldi	r27, 0xFF	; 255
    34c6:	0e 94 ab 32 	call	0x6556	; 0x6556 <__mulhisi3>
    34ca:	dc 01       	movw	r26, r24
    34cc:	cb 01       	movw	r24, r22
    34ce:	88 0d       	add	r24, r8
    34d0:	99 1d       	adc	r25, r9
    34d2:	aa 1d       	adc	r26, r10
    34d4:	bb 1d       	adc	r27, r11
    acc >>= FRAC_BITS;
    34d6:	66 e0       	ldi	r22, 0x06	; 6
    34d8:	b5 95       	asr	r27
    34da:	a7 95       	ror	r26
    34dc:	97 95       	ror	r25
    34de:	87 95       	ror	r24
    34e0:	6a 95       	dec	r22
    34e2:	d1 f7       	brne	.-12     	; 0x34d8 <__stack+0x12d9>
static inline int16_t fp_mul(int16_t a, int16_t b) {
    return (int16_t)(((int32_t)a * (int32_t)b) >> FRAC_BITS);
}

static inline int16_t fp_sat32(int32_t v) {
    if (v > FP_MAX) return FP_MAX;
    34e4:	81 15       	cp	r24, r1
    34e6:	30 e8       	ldi	r19, 0x80	; 128
    34e8:	93 07       	cpc	r25, r19
    34ea:	a1 05       	cpc	r26, r1
    34ec:	b1 05       	cpc	r27, r1
    34ee:	14 f0       	brlt	.+4      	; 0x34f4 <__stack+0x12f5>
    34f0:	0c 94 4a 32 	jmp	0x6494	; 0x6494 <__stack+0x4295>
    if (v < FP_MIN) return FP_MIN;
    34f4:	81 15       	cp	r24, r1
    34f6:	40 e8       	ldi	r20, 0x80	; 128
    34f8:	94 07       	cpc	r25, r20
    34fa:	4f ef       	ldi	r20, 0xFF	; 255
    34fc:	a4 07       	cpc	r26, r20
    34fe:	b4 07       	cpc	r27, r20
    3500:	14 f4       	brge	.+4      	; 0x3506 <__stack+0x1307>
    3502:	0c 94 4e 32 	jmp	0x649c	; 0x649c <__stack+0x429d>
    acc += (int32_t)W_hz[9][12] * (int32_t)h_state[12];
    acc += (int32_t)W_hz[9][13] * (int32_t)h_state[13];
    acc += (int32_t)W_hz[9][14] * (int32_t)h_state[14];
    acc += (int32_t)W_hz[9][15] * (int32_t)h_state[15];
    acc >>= FRAC_BITS;
    z[9] = fp_sigmoid(fp_sat32(acc));
    3506:	0e 94 b5 00 	call	0x16a	; 0x16a <_ZL10fp_sigmoidi>
    350a:	c1 58       	subi	r28, 0x81	; 129
    350c:	df 4f       	sbci	r29, 0xFF	; 255
    350e:	99 83       	std	Y+1, r25	; 0x01
    3510:	88 83       	st	Y, r24
    3512:	cf 57       	subi	r28, 0x7F	; 127
    3514:	d0 40       	sbci	r29, 0x00	; 0
    acc += (int32_t)W_iz[10][61] * (int32_t)x[61];
    acc += (int32_t)W_iz[10][62] * (int32_t)x[62];
    acc += (int32_t)W_iz[10][63] * (int32_t)x[63];
    acc >>= FRAC_BITS;
    acc += (int32_t)b_hz[10];
    acc += (int32_t)W_hz[10][0] * (int32_t)h_state[0];
    3516:	28 e3       	ldi	r18, 0x38	; 56
    3518:	30 e0       	ldi	r19, 0x00	; 0
    351a:	ab 85       	ldd	r26, Y+11	; 0x0b
    351c:	bc 85       	ldd	r27, Y+12	; 0x0c
    351e:	0e 94 c2 32 	call	0x6584	; 0x6584 <__usmulhisi3>
    3522:	4b 01       	movw	r8, r22
    3524:	5c 01       	movw	r10, r24
    3526:	54 e3       	ldi	r21, 0x34	; 52
    3528:	85 0e       	add	r8, r21
    352a:	91 1c       	adc	r9, r1
    352c:	a1 1c       	adc	r10, r1
    352e:	b1 1c       	adc	r11, r1
    acc += (int32_t)W_hz[10][1] * (int32_t)h_state[1];
    3530:	2f 81       	ldd	r18, Y+7	; 0x07
    3532:	38 85       	ldd	r19, Y+8	; 0x08
    3534:	af ee       	ldi	r26, 0xEF	; 239
    3536:	bf ef       	ldi	r27, 0xFF	; 255
    3538:	0e 94 ab 32 	call	0x6556	; 0x6556 <__mulhisi3>
    353c:	ab 96       	adiw	r28, 0x2b	; 43
    353e:	6c af       	std	Y+60, r22	; 0x3c
    3540:	7d af       	std	Y+61, r23	; 0x3d
    3542:	8e af       	std	Y+62, r24	; 0x3e
    3544:	9f af       	std	Y+63, r25	; 0x3f
    3546:	ab 97       	sbiw	r28, 0x2b	; 43
    3548:	86 0e       	add	r8, r22
    354a:	97 1e       	adc	r9, r23
    354c:	a8 1e       	adc	r10, r24
    354e:	b9 1e       	adc	r11, r25
    acc += (int32_t)W_hz[10][2] * (int32_t)h_state[2];
    3550:	2a e3       	ldi	r18, 0x3A	; 58
    3552:	30 e0       	ldi	r19, 0x00	; 0
    3554:	ad 89       	ldd	r26, Y+21	; 0x15
    3556:	be 89       	ldd	r27, Y+22	; 0x16
    3558:	0e 94 c2 32 	call	0x6584	; 0x6584 <__usmulhisi3>
    355c:	86 0e       	add	r8, r22
    355e:	97 1e       	adc	r9, r23
    3560:	a8 1e       	adc	r10, r24
    3562:	b9 1e       	adc	r11, r25
    acc += (int32_t)W_hz[10][3] * (int32_t)h_state[3];
    3564:	91 01       	movw	r18, r2
    3566:	aa ee       	ldi	r26, 0xEA	; 234
    3568:	bf ef       	ldi	r27, 0xFF	; 255
    356a:	0e 94 ab 32 	call	0x6556	; 0x6556 <__mulhisi3>
    356e:	86 0e       	add	r8, r22
    3570:	97 1e       	adc	r9, r23
    3572:	a8 1e       	adc	r10, r24
    3574:	b9 1e       	adc	r11, r25
    acc += (int32_t)W_hz[10][4] * (int32_t)h_state[4];
    3576:	2d 81       	ldd	r18, Y+5	; 0x05
    3578:	3e 81       	ldd	r19, Y+6	; 0x06
    357a:	a0 ec       	ldi	r26, 0xC0	; 192
    357c:	bf ef       	ldi	r27, 0xFF	; 255
    357e:	0e 94 ab 32 	call	0x6556	; 0x6556 <__mulhisi3>
    3582:	86 0e       	add	r8, r22
    3584:	97 1e       	adc	r9, r23
    3586:	a8 1e       	adc	r10, r24
    3588:	b9 1e       	adc	r11, r25
    acc += (int32_t)W_hz[10][5] * (int32_t)h_state[5];
    358a:	23 e2       	ldi	r18, 0x23	; 35
    358c:	30 e0       	ldi	r19, 0x00	; 0
    358e:	ad 85       	ldd	r26, Y+13	; 0x0d
    3590:	be 85       	ldd	r27, Y+14	; 0x0e
    3592:	0e 94 c2 32 	call	0x6584	; 0x6584 <__usmulhisi3>
    3596:	2b 96       	adiw	r28, 0x0b	; 11
    3598:	6c af       	std	Y+60, r22	; 0x3c
    359a:	7d af       	std	Y+61, r23	; 0x3d
    359c:	8e af       	std	Y+62, r24	; 0x3e
    359e:	9f af       	std	Y+63, r25	; 0x3f
    35a0:	2b 97       	sbiw	r28, 0x0b	; 11
    35a2:	86 0e       	add	r8, r22
    35a4:	97 1e       	adc	r9, r23
    35a6:	a8 1e       	adc	r10, r24
    35a8:	b9 1e       	adc	r11, r25
    acc += (int32_t)W_hz[10][6] * (int32_t)h_state[6];
    35aa:	2e e1       	ldi	r18, 0x1E	; 30
    35ac:	30 e0       	ldi	r19, 0x00	; 0
    35ae:	c9 56       	subi	r28, 0x69	; 105
    35b0:	de 4f       	sbci	r29, 0xFE	; 254
    35b2:	a8 81       	ld	r26, Y
    35b4:	b9 81       	ldd	r27, Y+1	; 0x01
    35b6:	c7 59       	subi	r28, 0x97	; 151
    35b8:	d1 40       	sbci	r29, 0x01	; 1
    35ba:	0e 94 c2 32 	call	0x6584	; 0x6584 <__usmulhisi3>
    35be:	86 0e       	add	r8, r22
    35c0:	97 1e       	adc	r9, r23
    35c2:	a8 1e       	adc	r10, r24
    35c4:	b9 1e       	adc	r11, r25
    acc += (int32_t)W_hz[10][7] * (int32_t)h_state[7];
    35c6:	a9 89       	ldd	r26, Y+17	; 0x11
    35c8:	ba 89       	ldd	r27, Y+18	; 0x12
    35ca:	0e 94 c2 32 	call	0x6584	; 0x6584 <__usmulhisi3>
    35ce:	86 0e       	add	r8, r22
    35d0:	97 1e       	adc	r9, r23
    35d2:	a8 1e       	adc	r10, r24
    35d4:	b9 1e       	adc	r11, r25
    acc += (int32_t)W_hz[10][8] * (int32_t)h_state[8];
    35d6:	2f 89       	ldd	r18, Y+23	; 0x17
    35d8:	38 8d       	ldd	r19, Y+24	; 0x18
    35da:	ab ef       	ldi	r26, 0xFB	; 251
    35dc:	bf ef       	ldi	r27, 0xFF	; 255
    35de:	0e 94 ab 32 	call	0x6556	; 0x6556 <__mulhisi3>
    35e2:	86 0e       	add	r8, r22
    35e4:	97 1e       	adc	r9, r23
    35e6:	a8 1e       	adc	r10, r24
    35e8:	b9 1e       	adc	r11, r25
    acc += (int32_t)W_hz[10][9] * (int32_t)h_state[9];
    35ea:	25 e1       	ldi	r18, 0x15	; 21
    35ec:	30 e0       	ldi	r19, 0x00	; 0
    35ee:	a9 85       	ldd	r26, Y+9	; 0x09
    35f0:	ba 85       	ldd	r27, Y+10	; 0x0a
    35f2:	0e 94 c2 32 	call	0x6584	; 0x6584 <__usmulhisi3>
    35f6:	6b a3       	std	Y+35, r22	; 0x23
    35f8:	7c a3       	std	Y+36, r23	; 0x24
    35fa:	8d a3       	std	Y+37, r24	; 0x25
    35fc:	9e a3       	std	Y+38, r25	; 0x26
    35fe:	86 0e       	add	r8, r22
    3600:	97 1e       	adc	r9, r23
    3602:	a8 1e       	adc	r10, r24
    3604:	b9 1e       	adc	r11, r25
    acc += (int32_t)W_hz[10][10] * (int32_t)h_state[10];
    3606:	2f 85       	ldd	r18, Y+15	; 0x0f
    3608:	38 89       	ldd	r19, Y+16	; 0x10
    360a:	ae ee       	ldi	r26, 0xEE	; 238
    360c:	bf ef       	ldi	r27, 0xFF	; 255
    360e:	0e 94 ab 32 	call	0x6556	; 0x6556 <__mulhisi3>
    3612:	86 0e       	add	r8, r22
    3614:	97 1e       	adc	r9, r23
    3616:	a8 1e       	adc	r10, r24
    3618:	b9 1e       	adc	r11, r25
    acc += (int32_t)W_hz[10][11] * (int32_t)h_state[11];
    361a:	29 8d       	ldd	r18, Y+25	; 0x19
    361c:	3a 8d       	ldd	r19, Y+26	; 0x1a
    361e:	a8 ec       	ldi	r26, 0xC8	; 200
    3620:	bf ef       	ldi	r27, 0xFF	; 255
    3622:	0e 94 ab 32 	call	0x6556	; 0x6556 <__mulhisi3>
    3626:	86 0e       	add	r8, r22
    3628:	97 1e       	adc	r9, r23
    362a:	a8 1e       	adc	r10, r24
    362c:	b9 1e       	adc	r11, r25
    acc += (int32_t)W_hz[10][12] * (int32_t)h_state[12];
    362e:	c5 53       	subi	r28, 0x35	; 53
    3630:	df 4f       	sbci	r29, 0xFF	; 255
    3632:	88 81       	ld	r24, Y
    3634:	99 81       	ldd	r25, Y+1	; 0x01
    3636:	aa 81       	ldd	r26, Y+2	; 0x02
    3638:	bb 81       	ldd	r27, Y+3	; 0x03
    363a:	cb 5c       	subi	r28, 0xCB	; 203
    363c:	d0 40       	sbci	r29, 0x00	; 0
    363e:	32 e0       	ldi	r19, 0x02	; 2
    3640:	88 0f       	add	r24, r24
    3642:	99 1f       	adc	r25, r25
    3644:	aa 1f       	adc	r26, r26
    3646:	bb 1f       	adc	r27, r27
    3648:	3a 95       	dec	r19
    364a:	d1 f7       	brne	.-12     	; 0x3640 <__stack+0x1441>
    364c:	c9 56       	subi	r28, 0x69	; 105
    364e:	df 4f       	sbci	r29, 0xFF	; 255
    3650:	88 83       	st	Y, r24
    3652:	99 83       	std	Y+1, r25	; 0x01
    3654:	aa 83       	std	Y+2, r26	; 0x02
    3656:	bb 83       	std	Y+3, r27	; 0x03
    3658:	c7 59       	subi	r28, 0x97	; 151
    365a:	d0 40       	sbci	r29, 0x00	; 0
    365c:	88 0e       	add	r8, r24
    365e:	99 1e       	adc	r9, r25
    3660:	aa 1e       	adc	r10, r26
    3662:	bb 1e       	adc	r11, r27
    acc += (int32_t)W_hz[10][13] * (int32_t)h_state[13];
    3664:	2b 8d       	ldd	r18, Y+27	; 0x1b
    3666:	3c 8d       	ldd	r19, Y+28	; 0x1c
    3668:	ac ed       	ldi	r26, 0xDC	; 220
    366a:	bf ef       	ldi	r27, 0xFF	; 255
    366c:	0e 94 ab 32 	call	0x6556	; 0x6556 <__mulhisi3>
    3670:	86 0e       	add	r8, r22
    3672:	97 1e       	adc	r9, r23
    3674:	a8 1e       	adc	r10, r24
    3676:	b9 1e       	adc	r11, r25
    acc += (int32_t)W_hz[10][14] * (int32_t)h_state[14];
    3678:	cd 57       	subi	r28, 0x7D	; 125
    367a:	df 4f       	sbci	r29, 0xFF	; 255
    367c:	28 81       	ld	r18, Y
    367e:	39 81       	ldd	r19, Y+1	; 0x01
    3680:	4a 81       	ldd	r20, Y+2	; 0x02
    3682:	5b 81       	ldd	r21, Y+3	; 0x03
    3684:	c3 58       	subi	r28, 0x83	; 131
    3686:	d0 40       	sbci	r29, 0x00	; 0
    3688:	82 0e       	add	r8, r18
    368a:	93 1e       	adc	r9, r19
    368c:	a4 1e       	adc	r10, r20
    368e:	b5 1e       	adc	r11, r21
    acc += (int32_t)W_hz[10][15] * (int32_t)h_state[15];
    3690:	2b 89       	ldd	r18, Y+19	; 0x13
    3692:	3c 89       	ldd	r19, Y+20	; 0x14
    3694:	ab ed       	ldi	r26, 0xDB	; 219
    3696:	bf ef       	ldi	r27, 0xFF	; 255
    3698:	0e 94 ab 32 	call	0x6556	; 0x6556 <__mulhisi3>
    369c:	dc 01       	movw	r26, r24
    369e:	cb 01       	movw	r24, r22
    36a0:	88 0d       	add	r24, r8
    36a2:	99 1d       	adc	r25, r9
    36a4:	aa 1d       	adc	r26, r10
    36a6:	bb 1d       	adc	r27, r11
    acc >>= FRAC_BITS;
    36a8:	46 e0       	ldi	r20, 0x06	; 6
    36aa:	b5 95       	asr	r27
    36ac:	a7 95       	ror	r26
    36ae:	97 95       	ror	r25
    36b0:	87 95       	ror	r24
    36b2:	4a 95       	dec	r20
    36b4:	d1 f7       	brne	.-12     	; 0x36aa <__stack+0x14ab>
static inline int16_t fp_mul(int16_t a, int16_t b) {
    return (int16_t)(((int32_t)a * (int32_t)b) >> FRAC_BITS);
}

static inline int16_t fp_sat32(int32_t v) {
    if (v > FP_MAX) return FP_MAX;
    36b6:	81 15       	cp	r24, r1
    36b8:	30 e8       	ldi	r19, 0x80	; 128
    36ba:	93 07       	cpc	r25, r19
    36bc:	a1 05       	cpc	r26, r1
    36be:	b1 05       	cpc	r27, r1
    36c0:	14 f0       	brlt	.+4      	; 0x36c6 <__stack+0x14c7>
    36c2:	0c 94 52 32 	jmp	0x64a4	; 0x64a4 <__stack+0x42a5>
    if (v < FP_MIN) return FP_MIN;
    36c6:	81 15       	cp	r24, r1
    36c8:	40 e8       	ldi	r20, 0x80	; 128
    36ca:	94 07       	cpc	r25, r20
    36cc:	4f ef       	ldi	r20, 0xFF	; 255
    36ce:	a4 07       	cpc	r26, r20
    36d0:	b4 07       	cpc	r27, r20
    36d2:	14 f4       	brge	.+4      	; 0x36d8 <__stack+0x14d9>
    36d4:	0c 94 56 32 	jmp	0x64ac	; 0x64ac <__stack+0x42ad>
    acc += (int32_t)W_hz[10][12] * (int32_t)h_state[12];
    acc += (int32_t)W_hz[10][13] * (int32_t)h_state[13];
    acc += (int32_t)W_hz[10][14] * (int32_t)h_state[14];
    acc += (int32_t)W_hz[10][15] * (int32_t)h_state[15];
    acc >>= FRAC_BITS;
    z[10] = fp_sigmoid(fp_sat32(acc));
    36d8:	0e 94 b5 00 	call	0x16a	; 0x16a <_ZL10fp_sigmoidi>
    36dc:	cd 57       	subi	r28, 0x7D	; 125
    36de:	df 4f       	sbci	r29, 0xFF	; 255
    36e0:	99 83       	std	Y+1, r25	; 0x01
    36e2:	88 83       	st	Y, r24
    36e4:	c3 58       	subi	r28, 0x83	; 131
    36e6:	d0 40       	sbci	r29, 0x00	; 0
    acc += (int32_t)W_iz[11][61] * (int32_t)x[61];
    acc += (int32_t)W_iz[11][62] * (int32_t)x[62];
    acc += (int32_t)W_iz[11][63] * (int32_t)x[63];
    acc >>= FRAC_BITS;
    acc += (int32_t)b_hz[11];
    acc += (int32_t)W_hz[11][0] * (int32_t)h_state[0];
    36e8:	2b 85       	ldd	r18, Y+11	; 0x0b
    36ea:	3c 85       	ldd	r19, Y+12	; 0x0c
    36ec:	a2 ee       	ldi	r26, 0xE2	; 226
    36ee:	bf ef       	ldi	r27, 0xFF	; 255
    36f0:	0e 94 ab 32 	call	0x6556	; 0x6556 <__mulhisi3>
    36f4:	2b 01       	movw	r4, r22
    36f6:	3c 01       	movw	r6, r24
    36f8:	5b e5       	ldi	r21, 0x5B	; 91
    36fa:	45 1a       	sub	r4, r21
    36fc:	51 08       	sbc	r5, r1
    36fe:	61 08       	sbc	r6, r1
    3700:	71 08       	sbc	r7, r1
    acc += (int32_t)W_hz[11][1] * (int32_t)h_state[1];
    3702:	2a e2       	ldi	r18, 0x2A	; 42
    3704:	30 e0       	ldi	r19, 0x00	; 0
    3706:	af 81       	ldd	r26, Y+7	; 0x07
    3708:	b8 85       	ldd	r27, Y+8	; 0x08
    370a:	0e 94 c2 32 	call	0x6584	; 0x6584 <__usmulhisi3>
    370e:	46 0e       	add	r4, r22
    3710:	57 1e       	adc	r5, r23
    3712:	68 1e       	adc	r6, r24
    3714:	79 1e       	adc	r7, r25
    acc += (int32_t)W_hz[11][2] * (int32_t)h_state[2];
    3716:	2d 89       	ldd	r18, Y+21	; 0x15
    3718:	3e 89       	ldd	r19, Y+22	; 0x16
    371a:	ab ee       	ldi	r26, 0xEB	; 235
    371c:	bf ef       	ldi	r27, 0xFF	; 255
    371e:	0e 94 ab 32 	call	0x6556	; 0x6556 <__mulhisi3>
    3722:	46 0e       	add	r4, r22
    3724:	57 1e       	adc	r5, r23
    3726:	68 1e       	adc	r6, r24
    3728:	79 1e       	adc	r7, r25
    acc += (int32_t)W_hz[11][3] * (int32_t)h_state[3];
    372a:	2a e0       	ldi	r18, 0x0A	; 10
    372c:	30 e0       	ldi	r19, 0x00	; 0
    372e:	d1 01       	movw	r26, r2
    3730:	0e 94 c2 32 	call	0x6584	; 0x6584 <__usmulhisi3>
    3734:	64 0d       	add	r22, r4
    3736:	75 1d       	adc	r23, r5
    3738:	86 1d       	adc	r24, r6
    373a:	97 1d       	adc	r25, r7
    acc += (int32_t)W_hz[11][4] * (int32_t)h_state[4];
    373c:	63 96       	adiw	r28, 0x13	; 19
    373e:	4c ac       	ldd	r4, Y+60	; 0x3c
    3740:	5d ac       	ldd	r5, Y+61	; 0x3d
    3742:	6e ac       	ldd	r6, Y+62	; 0x3e
    3744:	7f ac       	ldd	r7, Y+63	; 0x3f
    3746:	63 97       	sbiw	r28, 0x13	; 19
    3748:	a3 e0       	ldi	r26, 0x03	; 3
    374a:	44 0c       	add	r4, r4
    374c:	55 1c       	adc	r5, r5
    374e:	66 1c       	adc	r6, r6
    3750:	77 1c       	adc	r7, r7
    3752:	aa 95       	dec	r26
    3754:	d1 f7       	brne	.-12     	; 0x374a <__stack+0x154b>
    3756:	46 0e       	add	r4, r22
    3758:	57 1e       	adc	r5, r23
    375a:	68 1e       	adc	r6, r24
    375c:	79 1e       	adc	r7, r25
    acc += (int32_t)W_hz[11][5] * (int32_t)h_state[5];
    375e:	2d 85       	ldd	r18, Y+13	; 0x0d
    3760:	3e 85       	ldd	r19, Y+14	; 0x0e
    3762:	ae ef       	ldi	r26, 0xFE	; 254
    3764:	bf ef       	ldi	r27, 0xFF	; 255
    3766:	0e 94 ab 32 	call	0x6556	; 0x6556 <__mulhisi3>
    376a:	46 0e       	add	r4, r22
    376c:	57 1e       	adc	r5, r23
    376e:	68 1e       	adc	r6, r24
    3770:	79 1e       	adc	r7, r25
    acc += (int32_t)W_hz[11][6] * (int32_t)h_state[6];
    3772:	c9 56       	subi	r28, 0x69	; 105
    3774:	de 4f       	sbci	r29, 0xFE	; 254
    3776:	28 81       	ld	r18, Y
    3778:	39 81       	ldd	r19, Y+1	; 0x01
    377a:	c7 59       	subi	r28, 0x97	; 151
    377c:	d1 40       	sbci	r29, 0x01	; 1
    377e:	ac ee       	ldi	r26, 0xEC	; 236
    3780:	bf ef       	ldi	r27, 0xFF	; 255
    3782:	0e 94 ab 32 	call	0x6556	; 0x6556 <__mulhisi3>
    3786:	46 0e       	add	r4, r22
    3788:	57 1e       	adc	r5, r23
    378a:	68 1e       	adc	r6, r24
    378c:	79 1e       	adc	r7, r25
    acc += (int32_t)W_hz[11][7] * (int32_t)h_state[7];
    378e:	27 e1       	ldi	r18, 0x17	; 23
    3790:	30 e0       	ldi	r19, 0x00	; 0
    3792:	a9 89       	ldd	r26, Y+17	; 0x11
    3794:	ba 89       	ldd	r27, Y+18	; 0x12
    3796:	0e 94 c2 32 	call	0x6584	; 0x6584 <__usmulhisi3>
    379a:	4b 01       	movw	r8, r22
    379c:	5c 01       	movw	r10, r24
    379e:	48 0c       	add	r4, r8
    37a0:	59 1c       	adc	r5, r9
    37a2:	6a 1c       	adc	r6, r10
    37a4:	7b 1c       	adc	r7, r11
    acc += (int32_t)W_hz[11][8] * (int32_t)h_state[8];
    37a6:	2f 89       	ldd	r18, Y+23	; 0x17
    37a8:	38 8d       	ldd	r19, Y+24	; 0x18
    37aa:	a6 ec       	ldi	r26, 0xC6	; 198
    37ac:	bf ef       	ldi	r27, 0xFF	; 255
    37ae:	0e 94 ab 32 	call	0x6556	; 0x6556 <__mulhisi3>
    37b2:	63 96       	adiw	r28, 0x13	; 19
    37b4:	6c af       	std	Y+60, r22	; 0x3c
    37b6:	7d af       	std	Y+61, r23	; 0x3d
    37b8:	8e af       	std	Y+62, r24	; 0x3e
    37ba:	9f af       	std	Y+63, r25	; 0x3f
    37bc:	63 97       	sbiw	r28, 0x13	; 19
    37be:	46 0e       	add	r4, r22
    37c0:	57 1e       	adc	r5, r23
    37c2:	68 1e       	adc	r6, r24
    37c4:	79 1e       	adc	r7, r25
    acc += (int32_t)W_hz[11][9] * (int32_t)h_state[9];
    37c6:	c4 0c       	add	r12, r4
    37c8:	d5 1c       	adc	r13, r5
    37ca:	e6 1c       	adc	r14, r6
    37cc:	f7 1c       	adc	r15, r7
    acc += (int32_t)W_hz[11][10] * (int32_t)h_state[10];
    37ce:	e7 96       	adiw	r28, 0x37	; 55
    37d0:	8c ad       	ldd	r24, Y+60	; 0x3c
    37d2:	9d ad       	ldd	r25, Y+61	; 0x3d
    37d4:	ae ad       	ldd	r26, Y+62	; 0x3e
    37d6:	bf ad       	ldd	r27, Y+63	; 0x3f
    37d8:	e7 97       	sbiw	r28, 0x37	; 55
    37da:	c8 0e       	add	r12, r24
    37dc:	d9 1e       	adc	r13, r25
    37de:	ea 1e       	adc	r14, r26
    37e0:	fb 1e       	adc	r15, r27
    acc += (int32_t)W_hz[11][11] * (int32_t)h_state[11];
    37e2:	cd 55       	subi	r28, 0x5D	; 93
    37e4:	df 4f       	sbci	r29, 0xFF	; 255
    37e6:	28 81       	ld	r18, Y
    37e8:	39 81       	ldd	r19, Y+1	; 0x01
    37ea:	4a 81       	ldd	r20, Y+2	; 0x02
    37ec:	5b 81       	ldd	r21, Y+3	; 0x03
    37ee:	c3 5a       	subi	r28, 0xA3	; 163
    37f0:	d0 40       	sbci	r29, 0x00	; 0
    37f2:	c2 0e       	add	r12, r18
    37f4:	d3 1e       	adc	r13, r19
    37f6:	e4 1e       	adc	r14, r20
    37f8:	f5 1e       	adc	r15, r21
    acc += (int32_t)W_hz[11][12] * (int32_t)h_state[12];
    37fa:	98 01       	movw	r18, r16
    37fc:	a0 ed       	ldi	r26, 0xD0	; 208
    37fe:	bf ef       	ldi	r27, 0xFF	; 255
    3800:	0e 94 ab 32 	call	0x6556	; 0x6556 <__mulhisi3>
    3804:	c6 0e       	add	r12, r22
    3806:	d7 1e       	adc	r13, r23
    3808:	e8 1e       	adc	r14, r24
    380a:	f9 1e       	adc	r15, r25
    acc += (int32_t)W_hz[11][13] * (int32_t)h_state[13];
    380c:	2e e2       	ldi	r18, 0x2E	; 46
    380e:	30 e0       	ldi	r19, 0x00	; 0
    3810:	ab 8d       	ldd	r26, Y+27	; 0x1b
    3812:	bc 8d       	ldd	r27, Y+28	; 0x1c
    3814:	0e 94 c2 32 	call	0x6584	; 0x6584 <__usmulhisi3>
    3818:	c6 0e       	add	r12, r22
    381a:	d7 1e       	adc	r13, r23
    381c:	e8 1e       	adc	r14, r24
    381e:	f9 1e       	adc	r15, r25
    acc += (int32_t)W_hz[11][14] * (int32_t)h_state[14];
    3820:	2d 8d       	ldd	r18, Y+29	; 0x1d
    3822:	3e 8d       	ldd	r19, Y+30	; 0x1e
    3824:	a8 ef       	ldi	r26, 0xF8	; 248
    3826:	bf ef       	ldi	r27, 0xFF	; 255
    3828:	0e 94 ab 32 	call	0x6556	; 0x6556 <__mulhisi3>
    382c:	c6 0e       	add	r12, r22
    382e:	d7 1e       	adc	r13, r23
    3830:	e8 1e       	adc	r14, r24
    3832:	f9 1e       	adc	r15, r25
    acc += (int32_t)W_hz[11][15] * (int32_t)h_state[15];
    3834:	2b 89       	ldd	r18, Y+19	; 0x13
    3836:	3c 89       	ldd	r19, Y+20	; 0x14
    3838:	a0 ec       	ldi	r26, 0xC0	; 192
    383a:	bf ef       	ldi	r27, 0xFF	; 255
    383c:	0e 94 ab 32 	call	0x6556	; 0x6556 <__mulhisi3>
    3840:	dc 01       	movw	r26, r24
    3842:	cb 01       	movw	r24, r22
    3844:	8c 0d       	add	r24, r12
    3846:	9d 1d       	adc	r25, r13
    3848:	ae 1d       	adc	r26, r14
    384a:	bf 1d       	adc	r27, r15
    acc >>= FRAC_BITS;
    384c:	26 e0       	ldi	r18, 0x06	; 6
    384e:	b5 95       	asr	r27
    3850:	a7 95       	ror	r26
    3852:	97 95       	ror	r25
    3854:	87 95       	ror	r24
    3856:	2a 95       	dec	r18
    3858:	d1 f7       	brne	.-12     	; 0x384e <__stack+0x164f>
static inline int16_t fp_mul(int16_t a, int16_t b) {
    return (int16_t)(((int32_t)a * (int32_t)b) >> FRAC_BITS);
}

static inline int16_t fp_sat32(int32_t v) {
    if (v > FP_MAX) return FP_MAX;
    385a:	81 15       	cp	r24, r1
    385c:	30 e8       	ldi	r19, 0x80	; 128
    385e:	93 07       	cpc	r25, r19
    3860:	a1 05       	cpc	r26, r1
    3862:	b1 05       	cpc	r27, r1
    3864:	14 f0       	brlt	.+4      	; 0x386a <__stack+0x166b>
    3866:	0c 94 5a 32 	jmp	0x64b4	; 0x64b4 <__stack+0x42b5>
    if (v < FP_MIN) return FP_MIN;
    386a:	81 15       	cp	r24, r1
    386c:	40 e8       	ldi	r20, 0x80	; 128
    386e:	94 07       	cpc	r25, r20
    3870:	4f ef       	ldi	r20, 0xFF	; 255
    3872:	a4 07       	cpc	r26, r20
    3874:	b4 07       	cpc	r27, r20
    3876:	14 f4       	brge	.+4      	; 0x387c <__stack+0x167d>
    3878:	0c 94 5e 32 	jmp	0x64bc	; 0x64bc <__stack+0x42bd>
    acc += (int32_t)W_hz[11][12] * (int32_t)h_state[12];
    acc += (int32_t)W_hz[11][13] * (int32_t)h_state[13];
    acc += (int32_t)W_hz[11][14] * (int32_t)h_state[14];
    acc += (int32_t)W_hz[11][15] * (int32_t)h_state[15];
    acc >>= FRAC_BITS;
    z[11] = fp_sigmoid(fp_sat32(acc));
    387c:	0e 94 b5 00 	call	0x16a	; 0x16a <_ZL10fp_sigmoidi>
    3880:	e5 96       	adiw	r28, 0x35	; 53
    3882:	9f af       	std	Y+63, r25	; 0x3f
    3884:	8e af       	std	Y+62, r24	; 0x3e
    3886:	e5 97       	sbiw	r28, 0x35	; 53
    acc += (int32_t)W_iz[12][61] * (int32_t)x[61];
    acc += (int32_t)W_iz[12][62] * (int32_t)x[62];
    acc += (int32_t)W_iz[12][63] * (int32_t)x[63];
    acc >>= FRAC_BITS;
    acc += (int32_t)b_hz[12];
    acc += (int32_t)W_hz[12][0] * (int32_t)h_state[0];
    3888:	2b e3       	ldi	r18, 0x3B	; 59
    388a:	30 e0       	ldi	r19, 0x00	; 0
    388c:	ab 85       	ldd	r26, Y+11	; 0x0b
    388e:	bc 85       	ldd	r27, Y+12	; 0x0c
    3890:	0e 94 c2 32 	call	0x6584	; 0x6584 <__usmulhisi3>
    3894:	6b 01       	movw	r12, r22
    3896:	7c 01       	movw	r14, r24
    3898:	59 e6       	ldi	r21, 0x69	; 105
    389a:	c5 1a       	sub	r12, r21
    389c:	d1 08       	sbc	r13, r1
    389e:	e1 08       	sbc	r14, r1
    38a0:	f1 08       	sbc	r15, r1
    acc += (int32_t)W_hz[12][1] * (int32_t)h_state[1];
    38a2:	2f 81       	ldd	r18, Y+7	; 0x07
    38a4:	38 85       	ldd	r19, Y+8	; 0x08
    38a6:	aa ed       	ldi	r26, 0xDA	; 218
    38a8:	bf ef       	ldi	r27, 0xFF	; 255
    38aa:	0e 94 ab 32 	call	0x6556	; 0x6556 <__mulhisi3>
    38ae:	c6 0e       	add	r12, r22
    38b0:	d7 1e       	adc	r13, r23
    38b2:	e8 1e       	adc	r14, r24
    38b4:	f9 1e       	adc	r15, r25
    acc += (int32_t)W_hz[12][2] * (int32_t)h_state[2];
    38b6:	6b 96       	adiw	r28, 0x1b	; 27
    38b8:	8c ad       	ldd	r24, Y+60	; 0x3c
    38ba:	9d ad       	ldd	r25, Y+61	; 0x3d
    38bc:	ae ad       	ldd	r26, Y+62	; 0x3e
    38be:	bf ad       	ldd	r27, Y+63	; 0x3f
    38c0:	6b 97       	sbiw	r28, 0x1b	; 27
    38c2:	c8 0e       	add	r12, r24
    38c4:	d9 1e       	adc	r13, r25
    38c6:	ea 1e       	adc	r14, r26
    38c8:	fb 1e       	adc	r15, r27
    acc += (int32_t)W_hz[12][3] * (int32_t)h_state[3];
    38ca:	91 01       	movw	r18, r2
    38cc:	a1 ed       	ldi	r26, 0xD1	; 209
    38ce:	bf ef       	ldi	r27, 0xFF	; 255
    38d0:	0e 94 ab 32 	call	0x6556	; 0x6556 <__mulhisi3>
    38d4:	c6 0e       	add	r12, r22
    38d6:	d7 1e       	adc	r13, r23
    38d8:	e8 1e       	adc	r14, r24
    38da:	f9 1e       	adc	r15, r25
    acc += (int32_t)W_hz[12][4] * (int32_t)h_state[4];
    38dc:	ef 96       	adiw	r28, 0x3f	; 63
    38de:	2c ad       	ldd	r18, Y+60	; 0x3c
    38e0:	3d ad       	ldd	r19, Y+61	; 0x3d
    38e2:	4e ad       	ldd	r20, Y+62	; 0x3e
    38e4:	5f ad       	ldd	r21, Y+63	; 0x3f
    38e6:	ef 97       	sbiw	r28, 0x3f	; 63
    38e8:	c2 0e       	add	r12, r18
    38ea:	d3 1e       	adc	r13, r19
    38ec:	e4 1e       	adc	r14, r20
    38ee:	f5 1e       	adc	r15, r21
    acc += (int32_t)W_hz[12][5] * (int32_t)h_state[5];
    38f0:	2d 85       	ldd	r18, Y+13	; 0x0d
    38f2:	3e 85       	ldd	r19, Y+14	; 0x0e
    38f4:	a4 ed       	ldi	r26, 0xD4	; 212
    38f6:	bf ef       	ldi	r27, 0xFF	; 255
    38f8:	0e 94 ab 32 	call	0x6556	; 0x6556 <__mulhisi3>
    38fc:	c6 0e       	add	r12, r22
    38fe:	d7 1e       	adc	r13, r23
    3900:	e8 1e       	adc	r14, r24
    3902:	f9 1e       	adc	r15, r25
    acc += (int32_t)W_hz[12][6] * (int32_t)h_state[6];
    3904:	cd 56       	subi	r28, 0x6D	; 109
    3906:	df 4f       	sbci	r29, 0xFF	; 255
    3908:	88 81       	ld	r24, Y
    390a:	99 81       	ldd	r25, Y+1	; 0x01
    390c:	aa 81       	ldd	r26, Y+2	; 0x02
    390e:	bb 81       	ldd	r27, Y+3	; 0x03
    3910:	c3 59       	subi	r28, 0x93	; 147
    3912:	d0 40       	sbci	r29, 0x00	; 0
    3914:	c8 0e       	add	r12, r24
    3916:	d9 1e       	adc	r13, r25
    3918:	ea 1e       	adc	r14, r26
    391a:	fb 1e       	adc	r15, r27
    acc += (int32_t)W_hz[12][7] * (int32_t)h_state[7];
    391c:	c5 5e       	subi	r28, 0xE5	; 229
    391e:	de 4f       	sbci	r29, 0xFE	; 254
    3920:	28 81       	ld	r18, Y
    3922:	39 81       	ldd	r19, Y+1	; 0x01
    3924:	4a 81       	ldd	r20, Y+2	; 0x02
    3926:	5b 81       	ldd	r21, Y+3	; 0x03
    3928:	cb 51       	subi	r28, 0x1B	; 27
    392a:	d1 40       	sbci	r29, 0x01	; 1
    392c:	c2 0e       	add	r12, r18
    392e:	d3 1e       	adc	r13, r19
    3930:	e4 1e       	adc	r14, r20
    3932:	f5 1e       	adc	r15, r21
    acc += (int32_t)W_hz[12][8] * (int32_t)h_state[8];
    3934:	c9 57       	subi	r28, 0x79	; 121
    3936:	df 4f       	sbci	r29, 0xFF	; 255
    3938:	88 81       	ld	r24, Y
    393a:	99 81       	ldd	r25, Y+1	; 0x01
    393c:	aa 81       	ldd	r26, Y+2	; 0x02
    393e:	bb 81       	ldd	r27, Y+3	; 0x03
    3940:	c7 58       	subi	r28, 0x87	; 135
    3942:	d0 40       	sbci	r29, 0x00	; 0
    3944:	c8 0e       	add	r12, r24
    3946:	d9 1e       	adc	r13, r25
    3948:	ea 1e       	adc	r14, r26
    394a:	fb 1e       	adc	r15, r27
    acc += (int32_t)W_hz[12][9] * (int32_t)h_state[9];
    394c:	29 85       	ldd	r18, Y+9	; 0x09
    394e:	3a 85       	ldd	r19, Y+10	; 0x0a
    3950:	a0 ee       	ldi	r26, 0xE0	; 224
    3952:	bf ef       	ldi	r27, 0xFF	; 255
    3954:	0e 94 ab 32 	call	0x6556	; 0x6556 <__mulhisi3>
    3958:	c6 0e       	add	r12, r22
    395a:	d7 1e       	adc	r13, r23
    395c:	e8 1e       	adc	r14, r24
    395e:	f9 1e       	adc	r15, r25
    acc += (int32_t)W_hz[12][10] * (int32_t)h_state[10];
    3960:	2f 85       	ldd	r18, Y+15	; 0x0f
    3962:	38 89       	ldd	r19, Y+16	; 0x10
    3964:	a0 ef       	ldi	r26, 0xF0	; 240
    3966:	bf ef       	ldi	r27, 0xFF	; 255
    3968:	0e 94 ab 32 	call	0x6556	; 0x6556 <__mulhisi3>
    396c:	c6 0e       	add	r12, r22
    396e:	d7 1e       	adc	r13, r23
    3970:	e8 1e       	adc	r14, r24
    3972:	f9 1e       	adc	r15, r25
    acc += (int32_t)W_hz[12][11] * (int32_t)h_state[11];
    3974:	24 e3       	ldi	r18, 0x34	; 52
    3976:	30 e0       	ldi	r19, 0x00	; 0
    3978:	a9 8d       	ldd	r26, Y+25	; 0x19
    397a:	ba 8d       	ldd	r27, Y+26	; 0x1a
    397c:	0e 94 c2 32 	call	0x6584	; 0x6584 <__usmulhisi3>
    3980:	c6 0e       	add	r12, r22
    3982:	d7 1e       	adc	r13, r23
    3984:	e8 1e       	adc	r14, r24
    3986:	f9 1e       	adc	r15, r25
    acc += (int32_t)W_hz[12][12] * (int32_t)h_state[12];
    3988:	98 01       	movw	r18, r16
    398a:	a5 ed       	ldi	r26, 0xD5	; 213
    398c:	bf ef       	ldi	r27, 0xFF	; 255
    398e:	0e 94 ab 32 	call	0x6556	; 0x6556 <__mulhisi3>
    3992:	c6 0e       	add	r12, r22
    3994:	d7 1e       	adc	r13, r23
    3996:	e8 1e       	adc	r14, r24
    3998:	f9 1e       	adc	r15, r25
    acc += (int32_t)W_hz[12][13] * (int32_t)h_state[13];
    399a:	2b 8d       	ldd	r18, Y+27	; 0x1b
    399c:	3c 8d       	ldd	r19, Y+28	; 0x1c
    399e:	a3 ef       	ldi	r26, 0xF3	; 243
    39a0:	bf ef       	ldi	r27, 0xFF	; 255
    39a2:	0e 94 ab 32 	call	0x6556	; 0x6556 <__mulhisi3>
    39a6:	c6 0e       	add	r12, r22
    39a8:	d7 1e       	adc	r13, r23
    39aa:	e8 1e       	adc	r14, r24
    39ac:	f9 1e       	adc	r15, r25
    acc += (int32_t)W_hz[12][14] * (int32_t)h_state[14];
    39ae:	2d 8d       	ldd	r18, Y+29	; 0x1d
    39b0:	3e 8d       	ldd	r19, Y+30	; 0x1e
    39b2:	a7 ee       	ldi	r26, 0xE7	; 231
    39b4:	bf ef       	ldi	r27, 0xFF	; 255
    39b6:	0e 94 ab 32 	call	0x6556	; 0x6556 <__mulhisi3>
    39ba:	ef 96       	adiw	r28, 0x3f	; 63
    39bc:	6c af       	std	Y+60, r22	; 0x3c
    39be:	7d af       	std	Y+61, r23	; 0x3d
    39c0:	8e af       	std	Y+62, r24	; 0x3e
    39c2:	9f af       	std	Y+63, r25	; 0x3f
    39c4:	ef 97       	sbiw	r28, 0x3f	; 63
    39c6:	c6 0e       	add	r12, r22
    39c8:	d7 1e       	adc	r13, r23
    39ca:	e8 1e       	adc	r14, r24
    39cc:	f9 1e       	adc	r15, r25
    acc += (int32_t)W_hz[12][15] * (int32_t)h_state[15];
    39ce:	2a e1       	ldi	r18, 0x1A	; 26
    39d0:	30 e0       	ldi	r19, 0x00	; 0
    39d2:	ab 89       	ldd	r26, Y+19	; 0x13
    39d4:	bc 89       	ldd	r27, Y+20	; 0x14
    39d6:	0e 94 c2 32 	call	0x6584	; 0x6584 <__usmulhisi3>
    39da:	dc 01       	movw	r26, r24
    39dc:	cb 01       	movw	r24, r22
    39de:	8c 0d       	add	r24, r12
    39e0:	9d 1d       	adc	r25, r13
    39e2:	ae 1d       	adc	r26, r14
    39e4:	bf 1d       	adc	r27, r15
    acc >>= FRAC_BITS;
    39e6:	f6 e0       	ldi	r31, 0x06	; 6
    39e8:	b5 95       	asr	r27
    39ea:	a7 95       	ror	r26
    39ec:	97 95       	ror	r25
    39ee:	87 95       	ror	r24
    39f0:	fa 95       	dec	r31
    39f2:	d1 f7       	brne	.-12     	; 0x39e8 <__stack+0x17e9>
static inline int16_t fp_mul(int16_t a, int16_t b) {
    return (int16_t)(((int32_t)a * (int32_t)b) >> FRAC_BITS);
}

static inline int16_t fp_sat32(int32_t v) {
    if (v > FP_MAX) return FP_MAX;
    39f4:	81 15       	cp	r24, r1
    39f6:	e0 e8       	ldi	r30, 0x80	; 128
    39f8:	9e 07       	cpc	r25, r30
    39fa:	a1 05       	cpc	r26, r1
    39fc:	b1 05       	cpc	r27, r1
    39fe:	14 f0       	brlt	.+4      	; 0x3a04 <__stack+0x1805>
    3a00:	0c 94 62 32 	jmp	0x64c4	; 0x64c4 <__stack+0x42c5>
    if (v < FP_MIN) return FP_MIN;
    3a04:	81 15       	cp	r24, r1
    3a06:	f0 e8       	ldi	r31, 0x80	; 128
    3a08:	9f 07       	cpc	r25, r31
    3a0a:	ff ef       	ldi	r31, 0xFF	; 255
    3a0c:	af 07       	cpc	r26, r31
    3a0e:	bf 07       	cpc	r27, r31
    3a10:	14 f4       	brge	.+4      	; 0x3a16 <__stack+0x1817>
    3a12:	0c 94 66 32 	jmp	0x64cc	; 0x64cc <__stack+0x42cd>
    acc += (int32_t)W_hz[12][12] * (int32_t)h_state[12];
    acc += (int32_t)W_hz[12][13] * (int32_t)h_state[13];
    acc += (int32_t)W_hz[12][14] * (int32_t)h_state[14];
    acc += (int32_t)W_hz[12][15] * (int32_t)h_state[15];
    acc >>= FRAC_BITS;
    z[12] = fp_sigmoid(fp_sat32(acc));
    3a16:	0e 94 b5 00 	call	0x16a	; 0x16a <_ZL10fp_sigmoidi>
    3a1a:	c9 57       	subi	r28, 0x79	; 121
    3a1c:	df 4f       	sbci	r29, 0xFF	; 255
    3a1e:	99 83       	std	Y+1, r25	; 0x01
    3a20:	88 83       	st	Y, r24
    3a22:	c7 58       	subi	r28, 0x87	; 135
    3a24:	d0 40       	sbci	r29, 0x00	; 0
    acc += (int32_t)W_iz[13][61] * (int32_t)x[61];
    acc += (int32_t)W_iz[13][62] * (int32_t)x[62];
    acc += (int32_t)W_iz[13][63] * (int32_t)x[63];
    acc >>= FRAC_BITS;
    acc += (int32_t)b_hz[13];
    acc += (int32_t)W_hz[13][0] * (int32_t)h_state[0];
    3a26:	2b 85       	ldd	r18, Y+11	; 0x0b
    3a28:	3c 85       	ldd	r19, Y+12	; 0x0c
    3a2a:	ae ed       	ldi	r26, 0xDE	; 222
    3a2c:	bf ef       	ldi	r27, 0xFF	; 255
    3a2e:	0e 94 ab 32 	call	0x6556	; 0x6556 <__mulhisi3>
    3a32:	6b 01       	movw	r12, r22
    3a34:	7c 01       	movw	r14, r24
    3a36:	22 e6       	ldi	r18, 0x62	; 98
    3a38:	c2 0e       	add	r12, r18
    3a3a:	21 e0       	ldi	r18, 0x01	; 1
    3a3c:	d2 1e       	adc	r13, r18
    3a3e:	e1 1c       	adc	r14, r1
    3a40:	f1 1c       	adc	r15, r1
    acc += (int32_t)W_hz[13][1] * (int32_t)h_state[1];
    3a42:	24 e1       	ldi	r18, 0x14	; 20
    3a44:	30 e0       	ldi	r19, 0x00	; 0
    3a46:	af 81       	ldd	r26, Y+7	; 0x07
    3a48:	b8 85       	ldd	r27, Y+8	; 0x08
    3a4a:	0e 94 c2 32 	call	0x6584	; 0x6584 <__usmulhisi3>
    3a4e:	c6 0e       	add	r12, r22
    3a50:	d7 1e       	adc	r13, r23
    3a52:	e8 1e       	adc	r14, r24
    3a54:	f9 1e       	adc	r15, r25
    acc += (int32_t)W_hz[13][2] * (int32_t)h_state[2];
    3a56:	eb 96       	adiw	r28, 0x3b	; 59
    3a58:	8c ad       	ldd	r24, Y+60	; 0x3c
    3a5a:	9d ad       	ldd	r25, Y+61	; 0x3d
    3a5c:	ae ad       	ldd	r26, Y+62	; 0x3e
    3a5e:	bf ad       	ldd	r27, Y+63	; 0x3f
    3a60:	eb 97       	sbiw	r28, 0x3b	; 59
    3a62:	c8 0e       	add	r12, r24
    3a64:	d9 1e       	adc	r13, r25
    3a66:	ea 1e       	adc	r14, r26
    3a68:	fb 1e       	adc	r15, r27
    acc += (int32_t)W_hz[13][3] * (int32_t)h_state[3];
    3a6a:	91 01       	movw	r18, r2
    3a6c:	a0 ec       	ldi	r26, 0xC0	; 192
    3a6e:	bf ef       	ldi	r27, 0xFF	; 255
    3a70:	0e 94 ab 32 	call	0x6556	; 0x6556 <__mulhisi3>
    3a74:	c6 0e       	add	r12, r22
    3a76:	d7 1e       	adc	r13, r23
    3a78:	e8 1e       	adc	r14, r24
    3a7a:	f9 1e       	adc	r15, r25
    acc += (int32_t)W_hz[13][4] * (int32_t)h_state[4];
    3a7c:	2d 81       	ldd	r18, Y+5	; 0x05
    3a7e:	3e 81       	ldd	r19, Y+6	; 0x06
    3a80:	ad ef       	ldi	r26, 0xFD	; 253
    3a82:	bf ef       	ldi	r27, 0xFF	; 255
    3a84:	0e 94 ab 32 	call	0x6556	; 0x6556 <__mulhisi3>
    3a88:	c6 0e       	add	r12, r22
    3a8a:	d7 1e       	adc	r13, r23
    3a8c:	e8 1e       	adc	r14, r24
    3a8e:	f9 1e       	adc	r15, r25
    acc += (int32_t)W_hz[13][5] * (int32_t)h_state[5];
    3a90:	c3 5b       	subi	r28, 0xB3	; 179
    3a92:	de 4f       	sbci	r29, 0xFE	; 254
    3a94:	28 81       	ld	r18, Y
    3a96:	39 81       	ldd	r19, Y+1	; 0x01
    3a98:	4a 81       	ldd	r20, Y+2	; 0x02
    3a9a:	5b 81       	ldd	r21, Y+3	; 0x03
    3a9c:	cd 54       	subi	r28, 0x4D	; 77
    3a9e:	d1 40       	sbci	r29, 0x01	; 1
    3aa0:	c2 0e       	add	r12, r18
    3aa2:	d3 1e       	adc	r13, r19
    3aa4:	e4 1e       	adc	r14, r20
    3aa6:	f5 1e       	adc	r15, r21
    acc += (int32_t)W_hz[13][6] * (int32_t)h_state[6];
    3aa8:	c9 56       	subi	r28, 0x69	; 105
    3aaa:	de 4f       	sbci	r29, 0xFE	; 254
    3aac:	28 81       	ld	r18, Y
    3aae:	39 81       	ldd	r19, Y+1	; 0x01
    3ab0:	c7 59       	subi	r28, 0x97	; 151
    3ab2:	d1 40       	sbci	r29, 0x01	; 1
    3ab4:	ad ed       	ldi	r26, 0xDD	; 221
    3ab6:	bf ef       	ldi	r27, 0xFF	; 255
    3ab8:	0e 94 ab 32 	call	0x6556	; 0x6556 <__mulhisi3>
    3abc:	c6 0e       	add	r12, r22
    3abe:	d7 1e       	adc	r13, r23
    3ac0:	e8 1e       	adc	r14, r24
    3ac2:	f9 1e       	adc	r15, r25
    acc += (int32_t)W_hz[13][7] * (int32_t)h_state[7];
    3ac4:	c8 0c       	add	r12, r8
    3ac6:	d9 1c       	adc	r13, r9
    3ac8:	ea 1c       	adc	r14, r10
    3aca:	fb 1c       	adc	r15, r11
    acc += (int32_t)W_hz[13][8] * (int32_t)h_state[8];
    3acc:	2f 89       	ldd	r18, Y+23	; 0x17
    3ace:	38 8d       	ldd	r19, Y+24	; 0x18
    3ad0:	a1 ec       	ldi	r26, 0xC1	; 193
    3ad2:	bf ef       	ldi	r27, 0xFF	; 255
    3ad4:	0e 94 ab 32 	call	0x6556	; 0x6556 <__mulhisi3>
    3ad8:	c6 0e       	add	r12, r22
    3ada:	d7 1e       	adc	r13, r23
    3adc:	e8 1e       	adc	r14, r24
    3ade:	f9 1e       	adc	r15, r25
    acc += (int32_t)W_hz[13][9] * (int32_t)h_state[9];
    3ae0:	cf 5a       	subi	r28, 0xAF	; 175
    3ae2:	de 4f       	sbci	r29, 0xFE	; 254
    3ae4:	88 81       	ld	r24, Y
    3ae6:	99 81       	ldd	r25, Y+1	; 0x01
    3ae8:	aa 81       	ldd	r26, Y+2	; 0x02
    3aea:	bb 81       	ldd	r27, Y+3	; 0x03
    3aec:	c1 55       	subi	r28, 0x51	; 81
    3aee:	d1 40       	sbci	r29, 0x01	; 1
    3af0:	c8 0e       	add	r12, r24
    3af2:	d9 1e       	adc	r13, r25
    3af4:	ea 1e       	adc	r14, r26
    3af6:	fb 1e       	adc	r15, r27
    acc += (int32_t)W_hz[13][10] * (int32_t)h_state[10];
    3af8:	29 e2       	ldi	r18, 0x29	; 41
    3afa:	30 e0       	ldi	r19, 0x00	; 0
    3afc:	af 85       	ldd	r26, Y+15	; 0x0f
    3afe:	b8 89       	ldd	r27, Y+16	; 0x10
    3b00:	0e 94 c2 32 	call	0x6584	; 0x6584 <__usmulhisi3>
    3b04:	c6 0e       	add	r12, r22
    3b06:	d7 1e       	adc	r13, r23
    3b08:	e8 1e       	adc	r14, r24
    3b0a:	f9 1e       	adc	r15, r25
    acc += (int32_t)W_hz[13][11] * (int32_t)h_state[11];
    3b0c:	2e e3       	ldi	r18, 0x3E	; 62
    3b0e:	30 e0       	ldi	r19, 0x00	; 0
    3b10:	a9 8d       	ldd	r26, Y+25	; 0x19
    3b12:	ba 8d       	ldd	r27, Y+26	; 0x1a
    3b14:	0e 94 c2 32 	call	0x6584	; 0x6584 <__usmulhisi3>
    3b18:	c6 0e       	add	r12, r22
    3b1a:	d7 1e       	adc	r13, r23
    3b1c:	e8 1e       	adc	r14, r24
    3b1e:	f9 1e       	adc	r15, r25
    acc += (int32_t)W_hz[13][12] * (int32_t)h_state[12];
    3b20:	98 01       	movw	r18, r16
    3b22:	a6 ef       	ldi	r26, 0xF6	; 246
    3b24:	bf ef       	ldi	r27, 0xFF	; 255
    3b26:	0e 94 ab 32 	call	0x6556	; 0x6556 <__mulhisi3>
    3b2a:	c6 0e       	add	r12, r22
    3b2c:	d7 1e       	adc	r13, r23
    3b2e:	e8 1e       	adc	r14, r24
    3b30:	f9 1e       	adc	r15, r25
    acc += (int32_t)W_hz[13][13] * (int32_t)h_state[13];
    3b32:	2b 8d       	ldd	r18, Y+27	; 0x1b
    3b34:	3c 8d       	ldd	r19, Y+28	; 0x1c
    3b36:	a1 ed       	ldi	r26, 0xD1	; 209
    3b38:	bf ef       	ldi	r27, 0xFF	; 255
    3b3a:	0e 94 ab 32 	call	0x6556	; 0x6556 <__mulhisi3>
    3b3e:	c6 0e       	add	r12, r22
    3b40:	d7 1e       	adc	r13, r23
    3b42:	e8 1e       	adc	r14, r24
    3b44:	f9 1e       	adc	r15, r25
    acc += (int32_t)W_hz[13][14] * (int32_t)h_state[14];
    3b46:	e3 96       	adiw	r28, 0x33	; 51
    3b48:	2c ad       	ldd	r18, Y+60	; 0x3c
    3b4a:	3d ad       	ldd	r19, Y+61	; 0x3d
    3b4c:	4e ad       	ldd	r20, Y+62	; 0x3e
    3b4e:	5f ad       	ldd	r21, Y+63	; 0x3f
    3b50:	e3 97       	sbiw	r28, 0x33	; 51
    3b52:	c2 0e       	add	r12, r18
    3b54:	d3 1e       	adc	r13, r19
    3b56:	e4 1e       	adc	r14, r20
    3b58:	f5 1e       	adc	r15, r21
    acc += (int32_t)W_hz[13][15] * (int32_t)h_state[15];
    3b5a:	2b 89       	ldd	r18, Y+19	; 0x13
    3b5c:	3c 89       	ldd	r19, Y+20	; 0x14
    3b5e:	a1 ef       	ldi	r26, 0xF1	; 241
    3b60:	bf ef       	ldi	r27, 0xFF	; 255
    3b62:	0e 94 ab 32 	call	0x6556	; 0x6556 <__mulhisi3>
    3b66:	dc 01       	movw	r26, r24
    3b68:	cb 01       	movw	r24, r22
    3b6a:	8c 0d       	add	r24, r12
    3b6c:	9d 1d       	adc	r25, r13
    3b6e:	ae 1d       	adc	r26, r14
    3b70:	bf 1d       	adc	r27, r15
    acc >>= FRAC_BITS;
    3b72:	e6 e0       	ldi	r30, 0x06	; 6
    3b74:	b5 95       	asr	r27
    3b76:	a7 95       	ror	r26
    3b78:	97 95       	ror	r25
    3b7a:	87 95       	ror	r24
    3b7c:	ea 95       	dec	r30
    3b7e:	d1 f7       	brne	.-12     	; 0x3b74 <__stack+0x1975>
static inline int16_t fp_mul(int16_t a, int16_t b) {
    return (int16_t)(((int32_t)a * (int32_t)b) >> FRAC_BITS);
}

static inline int16_t fp_sat32(int32_t v) {
    if (v > FP_MAX) return FP_MAX;
    3b80:	81 15       	cp	r24, r1
    3b82:	30 e8       	ldi	r19, 0x80	; 128
    3b84:	93 07       	cpc	r25, r19
    3b86:	a1 05       	cpc	r26, r1
    3b88:	b1 05       	cpc	r27, r1
    3b8a:	14 f0       	brlt	.+4      	; 0x3b90 <__stack+0x1991>
    3b8c:	0c 94 6a 32 	jmp	0x64d4	; 0x64d4 <__stack+0x42d5>
    if (v < FP_MIN) return FP_MIN;
    3b90:	81 15       	cp	r24, r1
    3b92:	40 e8       	ldi	r20, 0x80	; 128
    3b94:	94 07       	cpc	r25, r20
    3b96:	4f ef       	ldi	r20, 0xFF	; 255
    3b98:	a4 07       	cpc	r26, r20
    3b9a:	b4 07       	cpc	r27, r20
    3b9c:	14 f4       	brge	.+4      	; 0x3ba2 <__stack+0x19a3>
    3b9e:	0c 94 6e 32 	jmp	0x64dc	; 0x64dc <__stack+0x42dd>
    acc += (int32_t)W_hz[13][12] * (int32_t)h_state[12];
    acc += (int32_t)W_hz[13][13] * (int32_t)h_state[13];
    acc += (int32_t)W_hz[13][14] * (int32_t)h_state[14];
    acc += (int32_t)W_hz[13][15] * (int32_t)h_state[15];
    acc >>= FRAC_BITS;
    z[13] = fp_sigmoid(fp_sat32(acc));
    3ba2:	0e 94 b5 00 	call	0x16a	; 0x16a <_ZL10fp_sigmoidi>
    3ba6:	e9 96       	adiw	r28, 0x39	; 57
    3ba8:	9f af       	std	Y+63, r25	; 0x3f
    3baa:	8e af       	std	Y+62, r24	; 0x3e
    3bac:	e9 97       	sbiw	r28, 0x39	; 57
    acc += (int32_t)W_iz[14][61] * (int32_t)x[61];
    acc += (int32_t)W_iz[14][62] * (int32_t)x[62];
    acc += (int32_t)W_iz[14][63] * (int32_t)x[63];
    acc >>= FRAC_BITS;
    acc += (int32_t)b_hz[14];
    acc += (int32_t)W_hz[14][0] * (int32_t)h_state[0];
    3bae:	2e e1       	ldi	r18, 0x1E	; 30
    3bb0:	30 e0       	ldi	r19, 0x00	; 0
    3bb2:	ab 85       	ldd	r26, Y+11	; 0x0b
    3bb4:	bc 85       	ldd	r27, Y+12	; 0x0c
    3bb6:	0e 94 c2 32 	call	0x6584	; 0x6584 <__usmulhisi3>
    3bba:	6b 01       	movw	r12, r22
    3bbc:	7c 01       	movw	r14, r24
    3bbe:	52 e6       	ldi	r21, 0x62	; 98
    3bc0:	c5 0e       	add	r12, r21
    3bc2:	d1 1c       	adc	r13, r1
    3bc4:	e1 1c       	adc	r14, r1
    3bc6:	f1 1c       	adc	r15, r1
    acc += (int32_t)W_hz[14][1] * (int32_t)h_state[1];
    3bc8:	2f 96       	adiw	r28, 0x0f	; 15
    3bca:	8c ad       	ldd	r24, Y+60	; 0x3c
    3bcc:	9d ad       	ldd	r25, Y+61	; 0x3d
    3bce:	ae ad       	ldd	r26, Y+62	; 0x3e
    3bd0:	bf ad       	ldd	r27, Y+63	; 0x3f
    3bd2:	2f 97       	sbiw	r28, 0x0f	; 15
    3bd4:	c8 0e       	add	r12, r24
    3bd6:	d9 1e       	adc	r13, r25
    3bd8:	ea 1e       	adc	r14, r26
    3bda:	fb 1e       	adc	r15, r27
    acc += (int32_t)W_hz[14][2] * (int32_t)h_state[2];
    3bdc:	2d 89       	ldd	r18, Y+21	; 0x15
    3bde:	3e 89       	ldd	r19, Y+22	; 0x16
    3be0:	a8 ee       	ldi	r26, 0xE8	; 232
    3be2:	bf ef       	ldi	r27, 0xFF	; 255
    3be4:	0e 94 ab 32 	call	0x6556	; 0x6556 <__mulhisi3>
    3be8:	cd 56       	subi	r28, 0x6D	; 109
    3bea:	df 4f       	sbci	r29, 0xFF	; 255
    3bec:	68 83       	st	Y, r22
    3bee:	79 83       	std	Y+1, r23	; 0x01
    3bf0:	8a 83       	std	Y+2, r24	; 0x02
    3bf2:	9b 83       	std	Y+3, r25	; 0x03
    3bf4:	c3 59       	subi	r28, 0x93	; 147
    3bf6:	d0 40       	sbci	r29, 0x00	; 0
    3bf8:	c6 0e       	add	r12, r22
    3bfa:	d7 1e       	adc	r13, r23
    3bfc:	e8 1e       	adc	r14, r24
    3bfe:	f9 1e       	adc	r15, r25
    acc += (int32_t)W_hz[14][3] * (int32_t)h_state[3];
    3c00:	21 e3       	ldi	r18, 0x31	; 49
    3c02:	30 e0       	ldi	r19, 0x00	; 0
    3c04:	d1 01       	movw	r26, r2
    3c06:	0e 94 c2 32 	call	0x6584	; 0x6584 <__usmulhisi3>
    3c0a:	c6 0e       	add	r12, r22
    3c0c:	d7 1e       	adc	r13, r23
    3c0e:	e8 1e       	adc	r14, r24
    3c10:	f9 1e       	adc	r15, r25
    acc += (int32_t)W_hz[14][4] * (int32_t)h_state[4];
    3c12:	2d 81       	ldd	r18, Y+5	; 0x05
    3c14:	3e 81       	ldd	r19, Y+6	; 0x06
    3c16:	a2 ed       	ldi	r26, 0xD2	; 210
    3c18:	bf ef       	ldi	r27, 0xFF	; 255
    3c1a:	0e 94 ab 32 	call	0x6556	; 0x6556 <__mulhisi3>
    3c1e:	c6 0e       	add	r12, r22
    3c20:	d7 1e       	adc	r13, r23
    3c22:	e8 1e       	adc	r14, r24
    3c24:	f9 1e       	adc	r15, r25
    acc += (int32_t)W_hz[14][5] * (int32_t)h_state[5];
    3c26:	2b 96       	adiw	r28, 0x0b	; 11
    3c28:	2c ad       	ldd	r18, Y+60	; 0x3c
    3c2a:	3d ad       	ldd	r19, Y+61	; 0x3d
    3c2c:	4e ad       	ldd	r20, Y+62	; 0x3e
    3c2e:	5f ad       	ldd	r21, Y+63	; 0x3f
    3c30:	2b 97       	sbiw	r28, 0x0b	; 11
    3c32:	c2 0e       	add	r12, r18
    3c34:	d3 1e       	adc	r13, r19
    3c36:	e4 1e       	adc	r14, r20
    3c38:	f5 1e       	adc	r15, r21
    acc += (int32_t)W_hz[14][6] * (int32_t)h_state[6];
    3c3a:	c9 54       	subi	r28, 0x49	; 73
    3c3c:	df 4f       	sbci	r29, 0xFF	; 255
    3c3e:	48 80       	ld	r4, Y
    3c40:	59 80       	ldd	r5, Y+1	; 0x01
    3c42:	6a 80       	ldd	r6, Y+2	; 0x02
    3c44:	7b 80       	ldd	r7, Y+3	; 0x03
    3c46:	c7 5b       	subi	r28, 0xB7	; 183
    3c48:	d0 40       	sbci	r29, 0x00	; 0
    3c4a:	35 e0       	ldi	r19, 0x05	; 5
    3c4c:	44 0c       	add	r4, r4
    3c4e:	55 1c       	adc	r5, r5
    3c50:	66 1c       	adc	r6, r6
    3c52:	77 1c       	adc	r7, r7
    3c54:	3a 95       	dec	r19
    3c56:	d1 f7       	brne	.-12     	; 0x3c4c <__stack+0x1a4d>
    3c58:	c4 0c       	add	r12, r4
    3c5a:	d5 1c       	adc	r13, r5
    3c5c:	e6 1c       	adc	r14, r6
    3c5e:	f7 1c       	adc	r15, r7
    acc += (int32_t)W_hz[14][7] * (int32_t)h_state[7];
    3c60:	29 89       	ldd	r18, Y+17	; 0x11
    3c62:	3a 89       	ldd	r19, Y+18	; 0x12
    3c64:	a1 ed       	ldi	r26, 0xD1	; 209
    3c66:	bf ef       	ldi	r27, 0xFF	; 255
    3c68:	0e 94 ab 32 	call	0x6556	; 0x6556 <__mulhisi3>
    3c6c:	c6 0e       	add	r12, r22
    3c6e:	d7 1e       	adc	r13, r23
    3c70:	e8 1e       	adc	r14, r24
    3c72:	f9 1e       	adc	r15, r25
    acc += (int32_t)W_hz[14][8] * (int32_t)h_state[8];
    3c74:	c1 57       	subi	r28, 0x71	; 113
    3c76:	df 4f       	sbci	r29, 0xFF	; 255
    3c78:	88 81       	ld	r24, Y
    3c7a:	99 81       	ldd	r25, Y+1	; 0x01
    3c7c:	aa 81       	ldd	r26, Y+2	; 0x02
    3c7e:	bb 81       	ldd	r27, Y+3	; 0x03
    3c80:	cf 58       	subi	r28, 0x8F	; 143
    3c82:	d0 40       	sbci	r29, 0x00	; 0
    3c84:	c8 0e       	add	r12, r24
    3c86:	d9 1e       	adc	r13, r25
    3c88:	ea 1e       	adc	r14, r26
    3c8a:	fb 1e       	adc	r15, r27
    acc += (int32_t)W_hz[14][9] * (int32_t)h_state[9];
    3c8c:	29 85       	ldd	r18, Y+9	; 0x09
    3c8e:	3a 85       	ldd	r19, Y+10	; 0x0a
    3c90:	a2 ed       	ldi	r26, 0xD2	; 210
    3c92:	bf ef       	ldi	r27, 0xFF	; 255
    3c94:	0e 94 ab 32 	call	0x6556	; 0x6556 <__mulhisi3>
    3c98:	c6 0e       	add	r12, r22
    3c9a:	d7 1e       	adc	r13, r23
    3c9c:	e8 1e       	adc	r14, r24
    3c9e:	f9 1e       	adc	r15, r25
    acc += (int32_t)W_hz[14][10] * (int32_t)h_state[10];
    3ca0:	af 96       	adiw	r28, 0x2f	; 47
    3ca2:	8c ad       	ldd	r24, Y+60	; 0x3c
    3ca4:	9d ad       	ldd	r25, Y+61	; 0x3d
    3ca6:	ae ad       	ldd	r26, Y+62	; 0x3e
    3ca8:	bf ad       	ldd	r27, Y+63	; 0x3f
    3caa:	af 97       	sbiw	r28, 0x2f	; 47
    3cac:	42 e0       	ldi	r20, 0x02	; 2
    3cae:	88 0f       	add	r24, r24
    3cb0:	99 1f       	adc	r25, r25
    3cb2:	aa 1f       	adc	r26, r26
    3cb4:	bb 1f       	adc	r27, r27
    3cb6:	4a 95       	dec	r20
    3cb8:	d1 f7       	brne	.-12     	; 0x3cae <__stack+0x1aaf>
    3cba:	9c 01       	movw	r18, r24
    3cbc:	ad 01       	movw	r20, r26
    3cbe:	2c 0d       	add	r18, r12
    3cc0:	3d 1d       	adc	r19, r13
    3cc2:	4e 1d       	adc	r20, r14
    3cc4:	5f 1d       	adc	r21, r15
    3cc6:	29 83       	std	Y+1, r18	; 0x01
    3cc8:	3a 83       	std	Y+2, r19	; 0x02
    3cca:	4b 83       	std	Y+3, r20	; 0x03
    3ccc:	5c 83       	std	Y+4, r21	; 0x04
    acc += (int32_t)W_hz[14][11] * (int32_t)h_state[11];
    3cce:	29 8d       	ldd	r18, Y+25	; 0x19
    3cd0:	3a 8d       	ldd	r19, Y+26	; 0x1a
    3cd2:	a1 ec       	ldi	r26, 0xC1	; 193
    3cd4:	bf ef       	ldi	r27, 0xFF	; 255
    3cd6:	0e 94 ab 32 	call	0x6556	; 0x6556 <__mulhisi3>
    3cda:	6b 01       	movw	r12, r22
    3cdc:	7c 01       	movw	r14, r24
    3cde:	89 81       	ldd	r24, Y+1	; 0x01
    3ce0:	9a 81       	ldd	r25, Y+2	; 0x02
    3ce2:	ab 81       	ldd	r26, Y+3	; 0x03
    3ce4:	bc 81       	ldd	r27, Y+4	; 0x04
    3ce6:	8c 0d       	add	r24, r12
    3ce8:	9d 1d       	adc	r25, r13
    3cea:	ae 1d       	adc	r26, r14
    3cec:	bf 1d       	adc	r27, r15
    3cee:	89 83       	std	Y+1, r24	; 0x01
    3cf0:	9a 83       	std	Y+2, r25	; 0x02
    3cf2:	ab 83       	std	Y+3, r26	; 0x03
    3cf4:	bc 83       	std	Y+4, r27	; 0x04
    acc += (int32_t)W_hz[14][12] * (int32_t)h_state[12];
    3cf6:	23 e1       	ldi	r18, 0x13	; 19
    3cf8:	30 e0       	ldi	r19, 0x00	; 0
    3cfa:	d8 01       	movw	r26, r16
    3cfc:	0e 94 c2 32 	call	0x6584	; 0x6584 <__usmulhisi3>
    3d00:	29 81       	ldd	r18, Y+1	; 0x01
    3d02:	3a 81       	ldd	r19, Y+2	; 0x02
    3d04:	4b 81       	ldd	r20, Y+3	; 0x03
    3d06:	5c 81       	ldd	r21, Y+4	; 0x04
    3d08:	26 0f       	add	r18, r22
    3d0a:	37 1f       	adc	r19, r23
    3d0c:	48 1f       	adc	r20, r24
    3d0e:	59 1f       	adc	r21, r25
    3d10:	29 83       	std	Y+1, r18	; 0x01
    3d12:	3a 83       	std	Y+2, r19	; 0x02
    3d14:	4b 83       	std	Y+3, r20	; 0x03
    3d16:	5c 83       	std	Y+4, r21	; 0x04
    acc += (int32_t)W_hz[14][13] * (int32_t)h_state[13];
    3d18:	2b 8d       	ldd	r18, Y+27	; 0x1b
    3d1a:	3c 8d       	ldd	r19, Y+28	; 0x1c
    3d1c:	a8 ef       	ldi	r26, 0xF8	; 248
    3d1e:	bf ef       	ldi	r27, 0xFF	; 255
    3d20:	0e 94 ab 32 	call	0x6556	; 0x6556 <__mulhisi3>
    3d24:	29 81       	ldd	r18, Y+1	; 0x01
    3d26:	3a 81       	ldd	r19, Y+2	; 0x02
    3d28:	4b 81       	ldd	r20, Y+3	; 0x03
    3d2a:	5c 81       	ldd	r21, Y+4	; 0x04
    3d2c:	26 0f       	add	r18, r22
    3d2e:	37 1f       	adc	r19, r23
    3d30:	48 1f       	adc	r20, r24
    3d32:	59 1f       	adc	r21, r25
    3d34:	29 83       	std	Y+1, r18	; 0x01
    3d36:	3a 83       	std	Y+2, r19	; 0x02
    3d38:	4b 83       	std	Y+3, r20	; 0x03
    3d3a:	5c 83       	std	Y+4, r21	; 0x04
    acc += (int32_t)W_hz[14][14] * (int32_t)h_state[14];
    3d3c:	2c e1       	ldi	r18, 0x1C	; 28
    3d3e:	30 e0       	ldi	r19, 0x00	; 0
    3d40:	ad 8d       	ldd	r26, Y+29	; 0x1d
    3d42:	be 8d       	ldd	r27, Y+30	; 0x1e
    3d44:	0e 94 c2 32 	call	0x6584	; 0x6584 <__usmulhisi3>
    3d48:	29 81       	ldd	r18, Y+1	; 0x01
    3d4a:	3a 81       	ldd	r19, Y+2	; 0x02
    3d4c:	4b 81       	ldd	r20, Y+3	; 0x03
    3d4e:	5c 81       	ldd	r21, Y+4	; 0x04
    3d50:	26 0f       	add	r18, r22
    3d52:	37 1f       	adc	r19, r23
    3d54:	48 1f       	adc	r20, r24
    3d56:	59 1f       	adc	r21, r25
    acc += (int32_t)W_hz[14][15] * (int32_t)h_state[15];
    3d58:	67 96       	adiw	r28, 0x17	; 23
    3d5a:	8c ad       	ldd	r24, Y+60	; 0x3c
    3d5c:	9d ad       	ldd	r25, Y+61	; 0x3d
    3d5e:	ae ad       	ldd	r26, Y+62	; 0x3e
    3d60:	bf ad       	ldd	r27, Y+63	; 0x3f
    3d62:	67 97       	sbiw	r28, 0x17	; 23
    3d64:	64 e0       	ldi	r22, 0x04	; 4
    3d66:	88 0f       	add	r24, r24
    3d68:	99 1f       	adc	r25, r25
    3d6a:	aa 1f       	adc	r26, r26
    3d6c:	bb 1f       	adc	r27, r27
    3d6e:	6a 95       	dec	r22
    3d70:	d1 f7       	brne	.-12     	; 0x3d66 <__stack+0x1b67>
    3d72:	82 0f       	add	r24, r18
    3d74:	93 1f       	adc	r25, r19
    3d76:	a4 1f       	adc	r26, r20
    3d78:	b5 1f       	adc	r27, r21
    acc >>= FRAC_BITS;
    3d7a:	76 e0       	ldi	r23, 0x06	; 6
    3d7c:	b5 95       	asr	r27
    3d7e:	a7 95       	ror	r26
    3d80:	97 95       	ror	r25
    3d82:	87 95       	ror	r24
    3d84:	7a 95       	dec	r23
    3d86:	d1 f7       	brne	.-12     	; 0x3d7c <__stack+0x1b7d>
static inline int16_t fp_mul(int16_t a, int16_t b) {
    return (int16_t)(((int32_t)a * (int32_t)b) >> FRAC_BITS);
}

static inline int16_t fp_sat32(int32_t v) {
    if (v > FP_MAX) return FP_MAX;
    3d88:	81 15       	cp	r24, r1
    3d8a:	30 e8       	ldi	r19, 0x80	; 128
    3d8c:	93 07       	cpc	r25, r19
    3d8e:	a1 05       	cpc	r26, r1
    3d90:	b1 05       	cpc	r27, r1
    3d92:	14 f0       	brlt	.+4      	; 0x3d98 <__stack+0x1b99>
    3d94:	0c 94 72 32 	jmp	0x64e4	; 0x64e4 <__stack+0x42e5>
    if (v < FP_MIN) return FP_MIN;
    3d98:	81 15       	cp	r24, r1
    3d9a:	40 e8       	ldi	r20, 0x80	; 128
    3d9c:	94 07       	cpc	r25, r20
    3d9e:	4f ef       	ldi	r20, 0xFF	; 255
    3da0:	a4 07       	cpc	r26, r20
    3da2:	b4 07       	cpc	r27, r20
    3da4:	14 f4       	brge	.+4      	; 0x3daa <__stack+0x1bab>
    3da6:	0c 94 76 32 	jmp	0x64ec	; 0x64ec <__stack+0x42ed>
    acc += (int32_t)W_hz[14][12] * (int32_t)h_state[12];
    acc += (int32_t)W_hz[14][13] * (int32_t)h_state[13];
    acc += (int32_t)W_hz[14][14] * (int32_t)h_state[14];
    acc += (int32_t)W_hz[14][15] * (int32_t)h_state[15];
    acc >>= FRAC_BITS;
    z[14] = fp_sigmoid(fp_sat32(acc));
    3daa:	0e 94 b5 00 	call	0x16a	; 0x16a <_ZL10fp_sigmoidi>
    3dae:	65 96       	adiw	r28, 0x15	; 21
    3db0:	9f af       	std	Y+63, r25	; 0x3f
    3db2:	8e af       	std	Y+62, r24	; 0x3e
    3db4:	65 97       	sbiw	r28, 0x15	; 21
    acc += (int32_t)W_iz[15][61] * (int32_t)x[61];
    acc += (int32_t)W_iz[15][62] * (int32_t)x[62];
    acc += (int32_t)W_iz[15][63] * (int32_t)x[63];
    acc >>= FRAC_BITS;
    acc += (int32_t)b_hz[15];
    acc += (int32_t)W_hz[15][0] * (int32_t)h_state[0];
    3db6:	2b 85       	ldd	r18, Y+11	; 0x0b
    3db8:	3c 85       	ldd	r19, Y+12	; 0x0c
    3dba:	a3 ed       	ldi	r26, 0xD3	; 211
    3dbc:	bf ef       	ldi	r27, 0xFF	; 255
    3dbe:	0e 94 ab 32 	call	0x6556	; 0x6556 <__mulhisi3>
    3dc2:	6c 5e       	subi	r22, 0xEC	; 236
    3dc4:	7f 4f       	sbci	r23, 0xFF	; 255
    3dc6:	8f 4f       	sbci	r24, 0xFF	; 255
    3dc8:	9f 4f       	sbci	r25, 0xFF	; 255
    acc += (int32_t)W_hz[15][1] * (int32_t)h_state[1];
    3dca:	27 96       	adiw	r28, 0x07	; 7
    3dcc:	2c ad       	ldd	r18, Y+60	; 0x3c
    3dce:	3d ad       	ldd	r19, Y+61	; 0x3d
    3dd0:	4e ad       	ldd	r20, Y+62	; 0x3e
    3dd2:	5f ad       	ldd	r21, Y+63	; 0x3f
    3dd4:	27 97       	sbiw	r28, 0x07	; 7
    3dd6:	62 0f       	add	r22, r18
    3dd8:	73 1f       	adc	r23, r19
    3dda:	84 1f       	adc	r24, r20
    3ddc:	95 1f       	adc	r25, r21
    acc += (int32_t)W_hz[15][2] * (int32_t)h_state[2];
    3dde:	6b 96       	adiw	r28, 0x1b	; 27
    3de0:	2c ad       	ldd	r18, Y+60	; 0x3c
    3de2:	3d ad       	ldd	r19, Y+61	; 0x3d
    3de4:	4e ad       	ldd	r20, Y+62	; 0x3e
    3de6:	5f ad       	ldd	r21, Y+63	; 0x3f
    3de8:	6b 97       	sbiw	r28, 0x1b	; 27
    3dea:	62 0f       	add	r22, r18
    3dec:	73 1f       	adc	r23, r19
    3dee:	84 1f       	adc	r24, r20
    3df0:	95 1f       	adc	r25, r21
    acc += (int32_t)W_hz[15][3] * (int32_t)h_state[3];
    3df2:	c5 5f       	subi	r28, 0xF5	; 245
    3df4:	de 4f       	sbci	r29, 0xFE	; 254
    3df6:	28 81       	ld	r18, Y
    3df8:	39 81       	ldd	r19, Y+1	; 0x01
    3dfa:	4a 81       	ldd	r20, Y+2	; 0x02
    3dfc:	5b 81       	ldd	r21, Y+3	; 0x03
    3dfe:	cb 50       	subi	r28, 0x0B	; 11
    3e00:	d1 40       	sbci	r29, 0x01	; 1
    3e02:	62 0f       	add	r22, r18
    3e04:	73 1f       	adc	r23, r19
    3e06:	84 1f       	adc	r24, r20
    3e08:	95 1f       	adc	r25, r21
    acc += (int32_t)W_hz[15][4] * (int32_t)h_state[4];
    3e0a:	2f a1       	ldd	r18, Y+39	; 0x27
    3e0c:	38 a5       	ldd	r19, Y+40	; 0x28
    3e0e:	49 a5       	ldd	r20, Y+41	; 0x29
    3e10:	5a a5       	ldd	r21, Y+42	; 0x2a
    3e12:	26 0f       	add	r18, r22
    3e14:	37 1f       	adc	r19, r23
    3e16:	48 1f       	adc	r20, r24
    3e18:	59 1f       	adc	r21, r25
    3e1a:	2f a3       	std	Y+39, r18	; 0x27
    3e1c:	38 a7       	std	Y+40, r19	; 0x28
    3e1e:	49 a7       	std	Y+41, r20	; 0x29
    3e20:	5a a7       	std	Y+42, r21	; 0x2a
    acc += (int32_t)W_hz[15][5] * (int32_t)h_state[5];
    3e22:	2d 85       	ldd	r18, Y+13	; 0x0d
    3e24:	3e 85       	ldd	r19, Y+14	; 0x0e
    3e26:	ad ec       	ldi	r26, 0xCD	; 205
    3e28:	bf ef       	ldi	r27, 0xFF	; 255
    3e2a:	0e 94 ab 32 	call	0x6556	; 0x6556 <__mulhisi3>
    3e2e:	2f a1       	ldd	r18, Y+39	; 0x27
    3e30:	38 a5       	ldd	r19, Y+40	; 0x28
    3e32:	49 a5       	ldd	r20, Y+41	; 0x29
    3e34:	5a a5       	ldd	r21, Y+42	; 0x2a
    3e36:	62 0f       	add	r22, r18
    3e38:	73 1f       	adc	r23, r19
    3e3a:	84 1f       	adc	r24, r20
    3e3c:	95 1f       	adc	r25, r21
    acc += (int32_t)W_hz[15][6] * (int32_t)h_state[6];
    3e3e:	46 0e       	add	r4, r22
    3e40:	57 1e       	adc	r5, r23
    3e42:	68 1e       	adc	r6, r24
    3e44:	79 1e       	adc	r7, r25
    acc += (int32_t)W_hz[15][7] * (int32_t)h_state[7];
    3e46:	2b e0       	ldi	r18, 0x0B	; 11
    3e48:	30 e0       	ldi	r19, 0x00	; 0
    3e4a:	a9 89       	ldd	r26, Y+17	; 0x11
    3e4c:	ba 89       	ldd	r27, Y+18	; 0x12
    3e4e:	0e 94 c2 32 	call	0x6584	; 0x6584 <__usmulhisi3>
    3e52:	46 0e       	add	r4, r22
    3e54:	57 1e       	adc	r5, r23
    3e56:	68 1e       	adc	r6, r24
    3e58:	79 1e       	adc	r7, r25
    acc += (int32_t)W_hz[15][8] * (int32_t)h_state[8];
    3e5a:	2f 89       	ldd	r18, Y+23	; 0x17
    3e5c:	38 8d       	ldd	r19, Y+24	; 0x18
    3e5e:	a1 ef       	ldi	r26, 0xF1	; 241
    3e60:	bf ef       	ldi	r27, 0xFF	; 255
    3e62:	0e 94 ab 32 	call	0x6556	; 0x6556 <__mulhisi3>
    3e66:	46 0e       	add	r4, r22
    3e68:	57 1e       	adc	r5, r23
    3e6a:	68 1e       	adc	r6, r24
    3e6c:	79 1e       	adc	r7, r25
    acc += (int32_t)W_hz[15][9] * (int32_t)h_state[9];
    3e6e:	2b e3       	ldi	r18, 0x3B	; 59
    3e70:	30 e0       	ldi	r19, 0x00	; 0
    3e72:	a9 85       	ldd	r26, Y+9	; 0x09
    3e74:	ba 85       	ldd	r27, Y+10	; 0x0a
    3e76:	0e 94 c2 32 	call	0x6584	; 0x6584 <__usmulhisi3>
    3e7a:	46 0e       	add	r4, r22
    3e7c:	57 1e       	adc	r5, r23
    3e7e:	68 1e       	adc	r6, r24
    3e80:	79 1e       	adc	r7, r25
    acc += (int32_t)W_hz[15][10] * (int32_t)h_state[10];
    3e82:	c1 5e       	subi	r28, 0xE1	; 225
    3e84:	de 4f       	sbci	r29, 0xFE	; 254
    3e86:	88 81       	ld	r24, Y
    3e88:	99 81       	ldd	r25, Y+1	; 0x01
    3e8a:	aa 81       	ldd	r26, Y+2	; 0x02
    3e8c:	bb 81       	ldd	r27, Y+3	; 0x03
    3e8e:	cf 51       	subi	r28, 0x1F	; 31
    3e90:	d1 40       	sbci	r29, 0x01	; 1
    3e92:	48 0e       	add	r4, r24
    3e94:	59 1e       	adc	r5, r25
    3e96:	6a 1e       	adc	r6, r26
    3e98:	7b 1e       	adc	r7, r27
    acc += (int32_t)W_hz[15][11] * (int32_t)h_state[11];
    3e9a:	cb 59       	subi	r28, 0x9B	; 155
    3e9c:	de 4f       	sbci	r29, 0xFE	; 254
    3e9e:	28 81       	ld	r18, Y
    3ea0:	39 81       	ldd	r19, Y+1	; 0x01
    3ea2:	4a 81       	ldd	r20, Y+2	; 0x02
    3ea4:	5b 81       	ldd	r21, Y+3	; 0x03
    3ea6:	c5 56       	subi	r28, 0x65	; 101
    3ea8:	d1 40       	sbci	r29, 0x01	; 1
    3eaa:	42 0e       	add	r4, r18
    3eac:	53 1e       	adc	r5, r19
    3eae:	64 1e       	adc	r6, r20
    3eb0:	75 1e       	adc	r7, r21
    acc += (int32_t)W_hz[15][12] * (int32_t)h_state[12];
    3eb2:	98 01       	movw	r18, r16
    3eb4:	a3 ee       	ldi	r26, 0xE3	; 227
    3eb6:	bf ef       	ldi	r27, 0xFF	; 255
    3eb8:	0e 94 ab 32 	call	0x6556	; 0x6556 <__mulhisi3>
    3ebc:	46 0e       	add	r4, r22
    3ebe:	57 1e       	adc	r5, r23
    3ec0:	68 1e       	adc	r6, r24
    3ec2:	79 1e       	adc	r7, r25
    acc += (int32_t)W_hz[15][13] * (int32_t)h_state[13];
    3ec4:	2b 8d       	ldd	r18, Y+27	; 0x1b
    3ec6:	3c 8d       	ldd	r19, Y+28	; 0x1c
    3ec8:	ab ec       	ldi	r26, 0xCB	; 203
    3eca:	bf ef       	ldi	r27, 0xFF	; 255
    3ecc:	0e 94 ab 32 	call	0x6556	; 0x6556 <__mulhisi3>
    3ed0:	46 0e       	add	r4, r22
    3ed2:	57 1e       	adc	r5, r23
    3ed4:	68 1e       	adc	r6, r24
    3ed6:	79 1e       	adc	r7, r25
    acc += (int32_t)W_hz[15][14] * (int32_t)h_state[14];
    3ed8:	27 e0       	ldi	r18, 0x07	; 7
    3eda:	30 e0       	ldi	r19, 0x00	; 0
    3edc:	ad 8d       	ldd	r26, Y+29	; 0x1d
    3ede:	be 8d       	ldd	r27, Y+30	; 0x1e
    3ee0:	0e 94 c2 32 	call	0x6584	; 0x6584 <__usmulhisi3>
    3ee4:	dc 01       	movw	r26, r24
    3ee6:	cb 01       	movw	r24, r22
    3ee8:	84 0d       	add	r24, r4
    3eea:	95 1d       	adc	r25, r5
    3eec:	a6 1d       	adc	r26, r6
    3eee:	b7 1d       	adc	r27, r7
    acc += (int32_t)W_hz[15][15] * (int32_t)h_state[15];
    3ef0:	c1 50       	subi	r28, 0x01	; 1
    3ef2:	df 4f       	sbci	r29, 0xFF	; 255
    3ef4:	28 81       	ld	r18, Y
    3ef6:	39 81       	ldd	r19, Y+1	; 0x01
    3ef8:	4a 81       	ldd	r20, Y+2	; 0x02
    3efa:	5b 81       	ldd	r21, Y+3	; 0x03
    3efc:	cf 5f       	subi	r28, 0xFF	; 255
    3efe:	d0 40       	sbci	r29, 0x00	; 0
    3f00:	82 0f       	add	r24, r18
    3f02:	93 1f       	adc	r25, r19
    3f04:	a4 1f       	adc	r26, r20
    3f06:	b5 1f       	adc	r27, r21
    acc >>= FRAC_BITS;
    3f08:	26 e0       	ldi	r18, 0x06	; 6
    3f0a:	b5 95       	asr	r27
    3f0c:	a7 95       	ror	r26
    3f0e:	97 95       	ror	r25
    3f10:	87 95       	ror	r24
    3f12:	2a 95       	dec	r18
    3f14:	d1 f7       	brne	.-12     	; 0x3f0a <__stack+0x1d0b>
static inline int16_t fp_mul(int16_t a, int16_t b) {
    return (int16_t)(((int32_t)a * (int32_t)b) >> FRAC_BITS);
}

static inline int16_t fp_sat32(int32_t v) {
    if (v > FP_MAX) return FP_MAX;
    3f16:	81 15       	cp	r24, r1
    3f18:	30 e8       	ldi	r19, 0x80	; 128
    3f1a:	93 07       	cpc	r25, r19
    3f1c:	a1 05       	cpc	r26, r1
    3f1e:	b1 05       	cpc	r27, r1
    3f20:	14 f0       	brlt	.+4      	; 0x3f26 <__stack+0x1d27>
    3f22:	0c 94 7a 32 	jmp	0x64f4	; 0x64f4 <__stack+0x42f5>
    if (v < FP_MIN) return FP_MIN;
    3f26:	81 15       	cp	r24, r1
    3f28:	40 e8       	ldi	r20, 0x80	; 128
    3f2a:	94 07       	cpc	r25, r20
    3f2c:	4f ef       	ldi	r20, 0xFF	; 255
    3f2e:	a4 07       	cpc	r26, r20
    3f30:	b4 07       	cpc	r27, r20
    3f32:	14 f4       	brge	.+4      	; 0x3f38 <__stack+0x1d39>
    3f34:	0c 94 7e 32 	jmp	0x64fc	; 0x64fc <__stack+0x42fd>
    acc += (int32_t)W_hz[15][12] * (int32_t)h_state[12];
    acc += (int32_t)W_hz[15][13] * (int32_t)h_state[13];
    acc += (int32_t)W_hz[15][14] * (int32_t)h_state[14];
    acc += (int32_t)W_hz[15][15] * (int32_t)h_state[15];
    acc >>= FRAC_BITS;
    z[15] = fp_sigmoid(fp_sat32(acc));
    3f38:	0e 94 b5 00 	call	0x16a	; 0x16a <_ZL10fp_sigmoidi>
    3f3c:	98 a7       	std	Y+40, r25	; 0x28
    3f3e:	8f a3       	std	Y+39, r24	; 0x27
    // NEW/CANDIDATE GATE:
    //   n[i] = tanh( W_in[i]@x + b_in[i] + r[i]*(W_hn[i]@h + b_hn[i]) )
    // ================================================================
    // n[0]  -- recurrent term: acc_r = W_hn[0]@h + b_hn[0]
    acc = (int32_t)b_hn[0];
    acc += (int32_t)W_hn[0][0] * (int32_t)h_state[0];
    3f40:	21 e2       	ldi	r18, 0x21	; 33
    3f42:	30 e0       	ldi	r19, 0x00	; 0
    3f44:	ab 85       	ldd	r26, Y+11	; 0x0b
    3f46:	bc 85       	ldd	r27, Y+12	; 0x0c
    3f48:	0e 94 c2 32 	call	0x6584	; 0x6584 <__usmulhisi3>
    3f4c:	2b 01       	movw	r4, r22
    3f4e:	3c 01       	movw	r6, r24
    3f50:	56 e0       	ldi	r21, 0x06	; 6
    3f52:	45 0e       	add	r4, r21
    3f54:	51 1c       	adc	r5, r1
    3f56:	61 1c       	adc	r6, r1
    3f58:	71 1c       	adc	r7, r1
    acc += (int32_t)W_hn[0][1] * (int32_t)h_state[1];
    3f5a:	26 e0       	ldi	r18, 0x06	; 6
    3f5c:	30 e0       	ldi	r19, 0x00	; 0
    3f5e:	af 81       	ldd	r26, Y+7	; 0x07
    3f60:	b8 85       	ldd	r27, Y+8	; 0x08
    3f62:	0e 94 c2 32 	call	0x6584	; 0x6584 <__usmulhisi3>
    3f66:	46 0e       	add	r4, r22
    3f68:	57 1e       	adc	r5, r23
    3f6a:	68 1e       	adc	r6, r24
    3f6c:	79 1e       	adc	r7, r25
    acc += (int32_t)W_hn[0][2] * (int32_t)h_state[2];
    3f6e:	2d e0       	ldi	r18, 0x0D	; 13
    3f70:	30 e0       	ldi	r19, 0x00	; 0
    3f72:	ad 89       	ldd	r26, Y+21	; 0x15
    3f74:	be 89       	ldd	r27, Y+22	; 0x16
    3f76:	0e 94 c2 32 	call	0x6584	; 0x6584 <__usmulhisi3>
    3f7a:	46 0e       	add	r4, r22
    3f7c:	57 1e       	adc	r5, r23
    3f7e:	68 1e       	adc	r6, r24
    3f80:	79 1e       	adc	r7, r25
    acc += (int32_t)W_hn[0][3] * (int32_t)h_state[3];
    3f82:	cf 59       	subi	r28, 0x9F	; 159
    3f84:	de 4f       	sbci	r29, 0xFE	; 254
    3f86:	88 81       	ld	r24, Y
    3f88:	99 81       	ldd	r25, Y+1	; 0x01
    3f8a:	aa 81       	ldd	r26, Y+2	; 0x02
    3f8c:	bb 81       	ldd	r27, Y+3	; 0x03
    3f8e:	c1 56       	subi	r28, 0x61	; 97
    3f90:	d1 40       	sbci	r29, 0x01	; 1
    3f92:	48 0e       	add	r4, r24
    3f94:	59 1e       	adc	r5, r25
    3f96:	6a 1e       	adc	r6, r26
    3f98:	7b 1e       	adc	r7, r27
    acc += (int32_t)W_hn[0][4] * (int32_t)h_state[4];
    3f9a:	2b e3       	ldi	r18, 0x3B	; 59
    3f9c:	30 e0       	ldi	r19, 0x00	; 0
    3f9e:	ad 81       	ldd	r26, Y+5	; 0x05
    3fa0:	be 81       	ldd	r27, Y+6	; 0x06
    3fa2:	0e 94 c2 32 	call	0x6584	; 0x6584 <__usmulhisi3>
    3fa6:	46 0e       	add	r4, r22
    3fa8:	57 1e       	adc	r5, r23
    3faa:	68 1e       	adc	r6, r24
    3fac:	79 1e       	adc	r7, r25
    acc += (int32_t)W_hn[0][5] * (int32_t)h_state[5];
    3fae:	cd 5c       	subi	r28, 0xCD	; 205
    3fb0:	de 4f       	sbci	r29, 0xFE	; 254
    3fb2:	28 81       	ld	r18, Y
    3fb4:	39 81       	ldd	r19, Y+1	; 0x01
    3fb6:	4a 81       	ldd	r20, Y+2	; 0x02
    3fb8:	5b 81       	ldd	r21, Y+3	; 0x03
    3fba:	c3 53       	subi	r28, 0x33	; 51
    3fbc:	d1 40       	sbci	r29, 0x01	; 1
    3fbe:	42 0e       	add	r4, r18
    3fc0:	53 1e       	adc	r5, r19
    3fc2:	64 1e       	adc	r6, r20
    3fc4:	75 1e       	adc	r7, r21
    acc += (int32_t)W_hn[0][6] * (int32_t)h_state[6];
    3fc6:	c9 56       	subi	r28, 0x69	; 105
    3fc8:	de 4f       	sbci	r29, 0xFE	; 254
    3fca:	28 81       	ld	r18, Y
    3fcc:	39 81       	ldd	r19, Y+1	; 0x01
    3fce:	c7 59       	subi	r28, 0x97	; 151
    3fd0:	d1 40       	sbci	r29, 0x01	; 1
    3fd2:	a7 ed       	ldi	r26, 0xD7	; 215
    3fd4:	bf ef       	ldi	r27, 0xFF	; 255
    3fd6:	0e 94 ab 32 	call	0x6556	; 0x6556 <__mulhisi3>
    3fda:	46 0e       	add	r4, r22
    3fdc:	57 1e       	adc	r5, r23
    3fde:	68 1e       	adc	r6, r24
    3fe0:	79 1e       	adc	r7, r25
    acc += (int32_t)W_hn[0][7] * (int32_t)h_state[7];
    3fe2:	48 0c       	add	r4, r8
    3fe4:	59 1c       	adc	r5, r9
    3fe6:	6a 1c       	adc	r6, r10
    3fe8:	7b 1c       	adc	r7, r11
    acc += (int32_t)W_hn[0][8] * (int32_t)h_state[8];
    3fea:	2f 89       	ldd	r18, Y+23	; 0x17
    3fec:	38 8d       	ldd	r19, Y+24	; 0x18
    3fee:	a8 ed       	ldi	r26, 0xD8	; 216
    3ff0:	bf ef       	ldi	r27, 0xFF	; 255
    3ff2:	0e 94 ab 32 	call	0x6556	; 0x6556 <__mulhisi3>
    3ff6:	46 0e       	add	r4, r22
    3ff8:	57 1e       	adc	r5, r23
    3ffa:	68 1e       	adc	r6, r24
    3ffc:	79 1e       	adc	r7, r25
    acc += (int32_t)W_hn[0][9] * (int32_t)h_state[9];
    3ffe:	29 85       	ldd	r18, Y+9	; 0x09
    4000:	3a 85       	ldd	r19, Y+10	; 0x0a
    4002:	a6 ed       	ldi	r26, 0xD6	; 214
    4004:	bf ef       	ldi	r27, 0xFF	; 255
    4006:	0e 94 ab 32 	call	0x6556	; 0x6556 <__mulhisi3>
    400a:	46 0e       	add	r4, r22
    400c:	57 1e       	adc	r5, r23
    400e:	68 1e       	adc	r6, r24
    4010:	79 1e       	adc	r7, r25
    acc += (int32_t)W_hn[0][10] * (int32_t)h_state[10];
    4012:	4f 85       	ldd	r20, Y+15	; 0x0f
    4014:	58 89       	ldd	r21, Y+16	; 0x10
    4016:	ba 01       	movw	r22, r20
    4018:	55 0f       	add	r21, r21
    401a:	88 0b       	sbc	r24, r24
    401c:	99 0b       	sbc	r25, r25
    401e:	66 0f       	add	r22, r22
    4020:	77 1f       	adc	r23, r23
    4022:	88 1f       	adc	r24, r24
    4024:	99 1f       	adc	r25, r25
    4026:	46 0e       	add	r4, r22
    4028:	57 1e       	adc	r5, r23
    402a:	68 1e       	adc	r6, r24
    402c:	79 1e       	adc	r7, r25
    acc += (int32_t)W_hn[0][11] * (int32_t)h_state[11];
    402e:	29 8d       	ldd	r18, Y+25	; 0x19
    4030:	3a 8d       	ldd	r19, Y+26	; 0x1a
    4032:	a0 ef       	ldi	r26, 0xF0	; 240
    4034:	bf ef       	ldi	r27, 0xFF	; 255
    4036:	0e 94 ab 32 	call	0x6556	; 0x6556 <__mulhisi3>
    403a:	46 0e       	add	r4, r22
    403c:	57 1e       	adc	r5, r23
    403e:	68 1e       	adc	r6, r24
    4040:	79 1e       	adc	r7, r25
    acc += (int32_t)W_hn[0][12] * (int32_t)h_state[12];
    4042:	98 01       	movw	r18, r16
    4044:	a7 ef       	ldi	r26, 0xF7	; 247
    4046:	bf ef       	ldi	r27, 0xFF	; 255
    4048:	0e 94 ab 32 	call	0x6556	; 0x6556 <__mulhisi3>
    404c:	46 0e       	add	r4, r22
    404e:	57 1e       	adc	r5, r23
    4050:	68 1e       	adc	r6, r24
    4052:	79 1e       	adc	r7, r25
    acc += (int32_t)W_hn[0][13] * (int32_t)h_state[13];
    4054:	27 e0       	ldi	r18, 0x07	; 7
    4056:	30 e0       	ldi	r19, 0x00	; 0
    4058:	ab 8d       	ldd	r26, Y+27	; 0x1b
    405a:	bc 8d       	ldd	r27, Y+28	; 0x1c
    405c:	0e 94 c2 32 	call	0x6584	; 0x6584 <__usmulhisi3>
    4060:	46 0e       	add	r4, r22
    4062:	57 1e       	adc	r5, r23
    4064:	68 1e       	adc	r6, r24
    4066:	79 1e       	adc	r7, r25
    acc += (int32_t)W_hn[0][14] * (int32_t)h_state[14];
    4068:	2d 8d       	ldd	r18, Y+29	; 0x1d
    406a:	3e 8d       	ldd	r19, Y+30	; 0x1e
    406c:	a1 ed       	ldi	r26, 0xD1	; 209
    406e:	bf ef       	ldi	r27, 0xFF	; 255
    4070:	0e 94 ab 32 	call	0x6556	; 0x6556 <__mulhisi3>
    4074:	46 0e       	add	r4, r22
    4076:	57 1e       	adc	r5, r23
    4078:	68 1e       	adc	r6, r24
    407a:	79 1e       	adc	r7, r25
    acc += (int32_t)W_hn[0][15] * (int32_t)h_state[15];
    407c:	2b e0       	ldi	r18, 0x0B	; 11
    407e:	30 e0       	ldi	r19, 0x00	; 0
    4080:	ab 89       	ldd	r26, Y+19	; 0x13
    4082:	bc 89       	ldd	r27, Y+20	; 0x14
    4084:	0e 94 c2 32 	call	0x6584	; 0x6584 <__usmulhisi3>
    4088:	6b 96       	adiw	r28, 0x1b	; 27
    408a:	6c af       	std	Y+60, r22	; 0x3c
    408c:	7d af       	std	Y+61, r23	; 0x3d
    408e:	8e af       	std	Y+62, r24	; 0x3e
    4090:	9f af       	std	Y+63, r25	; 0x3f
    4092:	6b 97       	sbiw	r28, 0x1b	; 27
    4094:	46 0e       	add	r4, r22
    4096:	57 1e       	adc	r5, r23
    4098:	68 1e       	adc	r6, r24
    409a:	79 1e       	adc	r7, r25
    acc >>= FRAC_BITS;
    409c:	f6 e0       	ldi	r31, 0x06	; 6
    409e:	75 94       	asr	r7
    40a0:	67 94       	ror	r6
    40a2:	57 94       	ror	r5
    40a4:	47 94       	ror	r4
    40a6:	fa 95       	dec	r31
    40a8:	d1 f7       	brne	.-12     	; 0x409e <__stack+0x1e9f>
static inline int16_t fp_mul(int16_t a, int16_t b) {
    return (int16_t)(((int32_t)a * (int32_t)b) >> FRAC_BITS);
}

static inline int16_t fp_sat32(int32_t v) {
    if (v > FP_MAX) return FP_MAX;
    40aa:	af ef       	ldi	r26, 0xFF	; 255
    40ac:	bf e7       	ldi	r27, 0x7F	; 127
    40ae:	41 14       	cp	r4, r1
    40b0:	50 e8       	ldi	r21, 0x80	; 128
    40b2:	55 06       	cpc	r5, r21
    40b4:	61 04       	cpc	r6, r1
    40b6:	71 04       	cpc	r7, r1
    40b8:	54 f4       	brge	.+20     	; 0x40ce <__stack+0x1ecf>
    if (v < FP_MIN) return FP_MIN;
    return (int16_t)v;
    40ba:	d2 01       	movw	r26, r4
    return (int16_t)(((int32_t)a * (int32_t)b) >> FRAC_BITS);
}

static inline int16_t fp_sat32(int32_t v) {
    if (v > FP_MAX) return FP_MAX;
    if (v < FP_MIN) return FP_MIN;
    40bc:	41 14       	cp	r4, r1
    40be:	80 e8       	ldi	r24, 0x80	; 128
    40c0:	58 06       	cpc	r5, r24
    40c2:	8f ef       	ldi	r24, 0xFF	; 255
    40c4:	68 06       	cpc	r6, r24
    40c6:	78 06       	cpc	r7, r24
    40c8:	14 f4       	brge	.+4      	; 0x40ce <__stack+0x1ecf>
    40ca:	a0 e0       	ldi	r26, 0x00	; 0
    40cc:	b0 e8       	ldi	r27, 0x80	; 128
// ---------------------------------------------------------------------------
// Fixed-point primitives  (kept as inline functions so avr-gcc inlines them
// and the assembly is one flat sequence of instructions)
// ---------------------------------------------------------------------------
static inline int16_t fp_mul(int16_t a, int16_t b) {
    return (int16_t)(((int32_t)a * (int32_t)b) >> FRAC_BITS);
    40ce:	c9 58       	subi	r28, 0x89	; 137
    40d0:	de 4f       	sbci	r29, 0xFE	; 254
    40d2:	28 81       	ld	r18, Y
    40d4:	39 81       	ldd	r19, Y+1	; 0x01
    40d6:	c7 57       	subi	r28, 0x77	; 119
    40d8:	d1 40       	sbci	r29, 0x01	; 1
    40da:	0e 94 ab 32 	call	0x6556	; 0x6556 <__mulhisi3>
    40de:	dc 01       	movw	r26, r24
    40e0:	cb 01       	movw	r24, r22
    40e2:	56 e0       	ldi	r21, 0x06	; 6
    40e4:	b5 95       	asr	r27
    40e6:	a7 95       	ror	r26
    40e8:	97 95       	ror	r25
    40ea:	87 95       	ror	r24
    40ec:	5a 95       	dec	r21
    40ee:	d1 f7       	brne	.-12     	; 0x40e4 <__stack+0x1ee5>
    acc += (int32_t)W_hn[0][13] * (int32_t)h_state[13];
    acc += (int32_t)W_hn[0][14] * (int32_t)h_state[14];
    acc += (int32_t)W_hn[0][15] * (int32_t)h_state[15];
    acc >>= FRAC_BITS;
    //   scale by r[0]
    acc = (int32_t)fp_mul(r[0], fp_sat32(acc));
    40f0:	09 2e       	mov	r0, r25
    40f2:	00 0c       	add	r0, r0
    40f4:	aa 0b       	sbc	r26, r26
    40f6:	bb 0b       	sbc	r27, r27
    acc += (int32_t)W_in[0][58] * (int32_t)x[58];
    acc += (int32_t)W_in[0][59] * (int32_t)x[59];
    acc += (int32_t)W_in[0][60] * (int32_t)x[60];
    acc += (int32_t)W_in[0][61] * (int32_t)x[61];
    acc += (int32_t)W_in[0][62] * (int32_t)x[62];
    acc += (int32_t)W_in[0][63] * (int32_t)x[63];
    40f8:	84 5c       	subi	r24, 0xC4	; 196
    40fa:	9f 43       	sbci	r25, 0x3F	; 63
    40fc:	a1 09       	sbc	r26, r1
    40fe:	b1 09       	sbc	r27, r1
    acc >>= FRAC_BITS;
    4100:	66 e0       	ldi	r22, 0x06	; 6
    4102:	b5 95       	asr	r27
    4104:	a7 95       	ror	r26
    4106:	97 95       	ror	r25
    4108:	87 95       	ror	r24
    410a:	6a 95       	dec	r22
    410c:	d1 f7       	brne	.-12     	; 0x4102 <__stack+0x1f03>
    n[0] = fp_tanh(fp_sat32(acc));
    410e:	0e 94 1a 01 	call	0x234	; 0x234 <_ZL7fp_tanhi>
    4112:	c9 54       	subi	r28, 0x49	; 73
    4114:	df 4f       	sbci	r29, 0xFF	; 255
    4116:	99 83       	std	Y+1, r25	; 0x01
    4118:	88 83       	st	Y, r24
    411a:	c7 5b       	subi	r28, 0xB7	; 183
    411c:	d0 40       	sbci	r29, 0x00	; 0

    // n[1]  -- recurrent term: acc_r = W_hn[1]@h + b_hn[1]
    acc = (int32_t)b_hn[1];
    acc += (int32_t)W_hn[1][0] * (int32_t)h_state[0];
    411e:	2b 85       	ldd	r18, Y+11	; 0x0b
    4120:	3c 85       	ldd	r19, Y+12	; 0x0c
    4122:	a1 ee       	ldi	r26, 0xE1	; 225
    4124:	bf ef       	ldi	r27, 0xFF	; 255
    4126:	0e 94 ab 32 	call	0x6556	; 0x6556 <__mulhisi3>
    412a:	2b 01       	movw	r4, r22
    412c:	3c 01       	movw	r6, r24
    412e:	aa e2       	ldi	r26, 0x2A	; 42
    4130:	4a 1a       	sub	r4, r26
    4132:	51 08       	sbc	r5, r1
    4134:	61 08       	sbc	r6, r1
    4136:	71 08       	sbc	r7, r1
    acc += (int32_t)W_hn[1][1] * (int32_t)h_state[1];
    4138:	2f 81       	ldd	r18, Y+7	; 0x07
    413a:	38 85       	ldd	r19, Y+8	; 0x08
    413c:	aa ee       	ldi	r26, 0xEA	; 234
    413e:	bf ef       	ldi	r27, 0xFF	; 255
    4140:	0e 94 ab 32 	call	0x6556	; 0x6556 <__mulhisi3>
    4144:	46 0e       	add	r4, r22
    4146:	57 1e       	adc	r5, r23
    4148:	68 1e       	adc	r6, r24
    414a:	79 1e       	adc	r7, r25
    acc += (int32_t)W_hn[1][2] * (int32_t)h_state[2];
    414c:	c1 59       	subi	r28, 0x91	; 145
    414e:	de 4f       	sbci	r29, 0xFE	; 254
    4150:	28 81       	ld	r18, Y
    4152:	39 81       	ldd	r19, Y+1	; 0x01
    4154:	4a 81       	ldd	r20, Y+2	; 0x02
    4156:	5b 81       	ldd	r21, Y+3	; 0x03
    4158:	cf 56       	subi	r28, 0x6F	; 111
    415a:	d1 40       	sbci	r29, 0x01	; 1
    415c:	42 0e       	add	r4, r18
    415e:	53 1e       	adc	r5, r19
    4160:	64 1e       	adc	r6, r20
    4162:	75 1e       	adc	r7, r21
    acc += (int32_t)W_hn[1][3] * (int32_t)h_state[3];
    4164:	91 01       	movw	r18, r2
    4166:	a4 ed       	ldi	r26, 0xD4	; 212
    4168:	bf ef       	ldi	r27, 0xFF	; 255
    416a:	0e 94 ab 32 	call	0x6556	; 0x6556 <__mulhisi3>
    416e:	46 0e       	add	r4, r22
    4170:	57 1e       	adc	r5, r23
    4172:	68 1e       	adc	r6, r24
    4174:	79 1e       	adc	r7, r25
    acc += (int32_t)W_hn[1][4] * (int32_t)h_state[4];
    4176:	2d 81       	ldd	r18, Y+5	; 0x05
    4178:	3e 81       	ldd	r19, Y+6	; 0x06
    417a:	0e 94 ab 32 	call	0x6556	; 0x6556 <__mulhisi3>
    417e:	46 0e       	add	r4, r22
    4180:	57 1e       	adc	r5, r23
    4182:	68 1e       	adc	r6, r24
    4184:	79 1e       	adc	r7, r25
    acc += (int32_t)W_hn[1][5] * (int32_t)h_state[5];
    4186:	2d 85       	ldd	r18, Y+13	; 0x0d
    4188:	3e 85       	ldd	r19, Y+14	; 0x0e
    418a:	a9 ee       	ldi	r26, 0xE9	; 233
    418c:	bf ef       	ldi	r27, 0xFF	; 255
    418e:	0e 94 ab 32 	call	0x6556	; 0x6556 <__mulhisi3>
    4192:	46 0e       	add	r4, r22
    4194:	57 1e       	adc	r5, r23
    4196:	68 1e       	adc	r6, r24
    4198:	79 1e       	adc	r7, r25
    acc += (int32_t)W_hn[1][6] * (int32_t)h_state[6];
    419a:	c9 56       	subi	r28, 0x69	; 105
    419c:	de 4f       	sbci	r29, 0xFE	; 254
    419e:	28 81       	ld	r18, Y
    41a0:	39 81       	ldd	r19, Y+1	; 0x01
    41a2:	c7 59       	subi	r28, 0x97	; 151
    41a4:	d1 40       	sbci	r29, 0x01	; 1
    41a6:	a7 ec       	ldi	r26, 0xC7	; 199
    41a8:	bf ef       	ldi	r27, 0xFF	; 255
    41aa:	0e 94 ab 32 	call	0x6556	; 0x6556 <__mulhisi3>
    41ae:	46 0e       	add	r4, r22
    41b0:	57 1e       	adc	r5, r23
    41b2:	68 1e       	adc	r6, r24
    41b4:	79 1e       	adc	r7, r25
    acc += (int32_t)W_hn[1][7] * (int32_t)h_state[7];
    41b6:	27 e3       	ldi	r18, 0x37	; 55
    41b8:	30 e0       	ldi	r19, 0x00	; 0
    41ba:	a9 89       	ldd	r26, Y+17	; 0x11
    41bc:	ba 89       	ldd	r27, Y+18	; 0x12
    41be:	0e 94 c2 32 	call	0x6584	; 0x6584 <__usmulhisi3>
    41c2:	46 0e       	add	r4, r22
    41c4:	57 1e       	adc	r5, r23
    41c6:	68 1e       	adc	r6, r24
    41c8:	79 1e       	adc	r7, r25
    acc += (int32_t)W_hn[1][8] * (int32_t)h_state[8];
    41ca:	c5 55       	subi	r28, 0x55	; 85
    41cc:	df 4f       	sbci	r29, 0xFF	; 255
    41ce:	88 81       	ld	r24, Y
    41d0:	99 81       	ldd	r25, Y+1	; 0x01
    41d2:	aa 81       	ldd	r26, Y+2	; 0x02
    41d4:	bb 81       	ldd	r27, Y+3	; 0x03
    41d6:	cb 5a       	subi	r28, 0xAB	; 171
    41d8:	d0 40       	sbci	r29, 0x00	; 0
    41da:	48 0e       	add	r4, r24
    41dc:	59 1e       	adc	r5, r25
    41de:	6a 1e       	adc	r6, r26
    41e0:	7b 1e       	adc	r7, r27
    acc += (int32_t)W_hn[1][9] * (int32_t)h_state[9];
    41e2:	2b a1       	ldd	r18, Y+35	; 0x23
    41e4:	3c a1       	ldd	r19, Y+36	; 0x24
    41e6:	4d a1       	ldd	r20, Y+37	; 0x25
    41e8:	5e a1       	ldd	r21, Y+38	; 0x26
    41ea:	42 0e       	add	r4, r18
    41ec:	53 1e       	adc	r5, r19
    41ee:	64 1e       	adc	r6, r20
    41f0:	75 1e       	adc	r7, r21
    41f2:	af 96       	adiw	r28, 0x2f	; 47
    41f4:	8c ad       	ldd	r24, Y+60	; 0x3c
    41f6:	9d ad       	ldd	r25, Y+61	; 0x3d
    41f8:	ae ad       	ldd	r26, Y+62	; 0x3e
    41fa:	bf ad       	ldd	r27, Y+63	; 0x3f
    41fc:	af 97       	sbiw	r28, 0x2f	; 47
    41fe:	48 1a       	sub	r4, r24
    4200:	59 0a       	sbc	r5, r25
    4202:	6a 0a       	sbc	r6, r26
    4204:	7b 0a       	sbc	r7, r27
    acc += (int32_t)W_hn[1][10] * (int32_t)h_state[10];
    acc += (int32_t)W_hn[1][11] * (int32_t)h_state[11];
    4206:	c1 51       	subi	r28, 0x11	; 17
    4208:	df 4f       	sbci	r29, 0xFF	; 255
    420a:	28 81       	ld	r18, Y
    420c:	39 81       	ldd	r19, Y+1	; 0x01
    420e:	4a 81       	ldd	r20, Y+2	; 0x02
    4210:	5b 81       	ldd	r21, Y+3	; 0x03
    4212:	cf 5e       	subi	r28, 0xEF	; 239
    4214:	d0 40       	sbci	r29, 0x00	; 0
    4216:	42 0e       	add	r4, r18
    4218:	53 1e       	adc	r5, r19
    421a:	64 1e       	adc	r6, r20
    421c:	75 1e       	adc	r7, r21
    acc += (int32_t)W_hn[1][12] * (int32_t)h_state[12];
    421e:	98 01       	movw	r18, r16
    4220:	ae ee       	ldi	r26, 0xEE	; 238
    4222:	bf ef       	ldi	r27, 0xFF	; 255
    4224:	0e 94 ab 32 	call	0x6556	; 0x6556 <__mulhisi3>
    4228:	46 0e       	add	r4, r22
    422a:	57 1e       	adc	r5, r23
    422c:	68 1e       	adc	r6, r24
    422e:	79 1e       	adc	r7, r25
    acc += (int32_t)W_hn[1][13] * (int32_t)h_state[13];
    4230:	24 e2       	ldi	r18, 0x24	; 36
    4232:	30 e0       	ldi	r19, 0x00	; 0
    4234:	ab 8d       	ldd	r26, Y+27	; 0x1b
    4236:	bc 8d       	ldd	r27, Y+28	; 0x1c
    4238:	0e 94 c2 32 	call	0x6584	; 0x6584 <__usmulhisi3>
    423c:	46 0e       	add	r4, r22
    423e:	57 1e       	adc	r5, r23
    4240:	68 1e       	adc	r6, r24
    4242:	79 1e       	adc	r7, r25
    acc += (int32_t)W_hn[1][14] * (int32_t)h_state[14];
    4244:	2d 8d       	ldd	r18, Y+29	; 0x1d
    4246:	3e 8d       	ldd	r19, Y+30	; 0x1e
    4248:	a9 ee       	ldi	r26, 0xE9	; 233
    424a:	bf ef       	ldi	r27, 0xFF	; 255
    424c:	0e 94 ab 32 	call	0x6556	; 0x6556 <__mulhisi3>
    4250:	46 0e       	add	r4, r22
    4252:	57 1e       	adc	r5, r23
    4254:	68 1e       	adc	r6, r24
    4256:	79 1e       	adc	r7, r25
    acc += (int32_t)W_hn[1][15] * (int32_t)h_state[15];
    4258:	2b 89       	ldd	r18, Y+19	; 0x13
    425a:	3c 89       	ldd	r19, Y+20	; 0x14
    425c:	ac ed       	ldi	r26, 0xDC	; 220
    425e:	bf ef       	ldi	r27, 0xFF	; 255
    4260:	0e 94 ab 32 	call	0x6556	; 0x6556 <__mulhisi3>
    4264:	46 0e       	add	r4, r22
    4266:	57 1e       	adc	r5, r23
    4268:	68 1e       	adc	r6, r24
    426a:	79 1e       	adc	r7, r25
    acc >>= FRAC_BITS;
    426c:	76 e0       	ldi	r23, 0x06	; 6
    426e:	75 94       	asr	r7
    4270:	67 94       	ror	r6
    4272:	57 94       	ror	r5
    4274:	47 94       	ror	r4
    4276:	7a 95       	dec	r23
    4278:	d1 f7       	brne	.-12     	; 0x426e <__stack+0x206f>
static inline int16_t fp_mul(int16_t a, int16_t b) {
    return (int16_t)(((int32_t)a * (int32_t)b) >> FRAC_BITS);
}

static inline int16_t fp_sat32(int32_t v) {
    if (v > FP_MAX) return FP_MAX;
    427a:	af ef       	ldi	r26, 0xFF	; 255
    427c:	bf e7       	ldi	r27, 0x7F	; 127
    427e:	41 14       	cp	r4, r1
    4280:	30 e8       	ldi	r19, 0x80	; 128
    4282:	53 06       	cpc	r5, r19
    4284:	61 04       	cpc	r6, r1
    4286:	71 04       	cpc	r7, r1
    4288:	54 f4       	brge	.+20     	; 0x429e <__stack+0x209f>
    if (v < FP_MIN) return FP_MIN;
    return (int16_t)v;
    428a:	d2 01       	movw	r26, r4
    return (int16_t)(((int32_t)a * (int32_t)b) >> FRAC_BITS);
}

static inline int16_t fp_sat32(int32_t v) {
    if (v > FP_MAX) return FP_MAX;
    if (v < FP_MIN) return FP_MIN;
    428c:	41 14       	cp	r4, r1
    428e:	40 e8       	ldi	r20, 0x80	; 128
    4290:	54 06       	cpc	r5, r20
    4292:	4f ef       	ldi	r20, 0xFF	; 255
    4294:	64 06       	cpc	r6, r20
    4296:	74 06       	cpc	r7, r20
    4298:	14 f4       	brge	.+4      	; 0x429e <__stack+0x209f>
    429a:	a0 e0       	ldi	r26, 0x00	; 0
    429c:	b0 e8       	ldi	r27, 0x80	; 128
// ---------------------------------------------------------------------------
// Fixed-point primitives  (kept as inline functions so avr-gcc inlines them
// and the assembly is one flat sequence of instructions)
// ---------------------------------------------------------------------------
static inline int16_t fp_mul(int16_t a, int16_t b) {
    return (int16_t)(((int32_t)a * (int32_t)b) >> FRAC_BITS);
    429e:	c7 58       	subi	r28, 0x87	; 135
    42a0:	de 4f       	sbci	r29, 0xFE	; 254
    42a2:	28 81       	ld	r18, Y
    42a4:	39 81       	ldd	r19, Y+1	; 0x01
    42a6:	c9 57       	subi	r28, 0x79	; 121
    42a8:	d1 40       	sbci	r29, 0x01	; 1
    42aa:	0e 94 ab 32 	call	0x6556	; 0x6556 <__mulhisi3>
    42ae:	dc 01       	movw	r26, r24
    42b0:	cb 01       	movw	r24, r22
    42b2:	26 e0       	ldi	r18, 0x06	; 6
    42b4:	b5 95       	asr	r27
    42b6:	a7 95       	ror	r26
    42b8:	97 95       	ror	r25
    42ba:	87 95       	ror	r24
    42bc:	2a 95       	dec	r18
    42be:	d1 f7       	brne	.-12     	; 0x42b4 <__stack+0x20b5>
    acc += (int32_t)W_hn[1][13] * (int32_t)h_state[13];
    acc += (int32_t)W_hn[1][14] * (int32_t)h_state[14];
    acc += (int32_t)W_hn[1][15] * (int32_t)h_state[15];
    acc >>= FRAC_BITS;
    //   scale by r[1]
    acc = (int32_t)fp_mul(r[1], fp_sat32(acc));
    42c0:	09 2e       	mov	r0, r25
    42c2:	00 0c       	add	r0, r0
    42c4:	aa 0b       	sbc	r26, r26
    42c6:	bb 0b       	sbc	r27, r27
    acc += (int32_t)W_in[1][58] * (int32_t)x[58];
    acc += (int32_t)W_in[1][59] * (int32_t)x[59];
    acc += (int32_t)W_in[1][60] * (int32_t)x[60];
    acc += (int32_t)W_in[1][61] * (int32_t)x[61];
    acc += (int32_t)W_in[1][62] * (int32_t)x[62];
    acc += (int32_t)W_in[1][63] * (int32_t)x[63];
    42c8:	84 53       	subi	r24, 0x34	; 52
    42ca:	95 41       	sbci	r25, 0x15	; 21
    42cc:	a1 09       	sbc	r26, r1
    42ce:	b1 09       	sbc	r27, r1
    acc >>= FRAC_BITS;
    42d0:	36 e0       	ldi	r19, 0x06	; 6
    42d2:	b5 95       	asr	r27
    42d4:	a7 95       	ror	r26
    42d6:	97 95       	ror	r25
    42d8:	87 95       	ror	r24
    42da:	3a 95       	dec	r19
    42dc:	d1 f7       	brne	.-12     	; 0x42d2 <__stack+0x20d3>
    n[1] = fp_tanh(fp_sat32(acc));
    42de:	0e 94 1a 01 	call	0x234	; 0x234 <_ZL7fp_tanhi>
    42e2:	ad 96       	adiw	r28, 0x2d	; 45
    42e4:	9f af       	std	Y+63, r25	; 0x3f
    42e6:	8e af       	std	Y+62, r24	; 0x3e
    42e8:	ad 97       	sbiw	r28, 0x2d	; 45

    // n[2]  -- recurrent term: acc_r = W_hn[2]@h + b_hn[2]
    acc = (int32_t)b_hn[2];
    acc += (int32_t)W_hn[2][0] * (int32_t)h_state[0];
    42ea:	2b 85       	ldd	r18, Y+11	; 0x0b
    42ec:	3c 85       	ldd	r19, Y+12	; 0x0c
    42ee:	a8 ed       	ldi	r26, 0xD8	; 216
    42f0:	bf ef       	ldi	r27, 0xFF	; 255
    42f2:	0e 94 ab 32 	call	0x6556	; 0x6556 <__mulhisi3>
    42f6:	2b 01       	movw	r4, r22
    42f8:	3c 01       	movw	r6, r24
    42fa:	54 e1       	ldi	r21, 0x14	; 20
    42fc:	45 0e       	add	r4, r21
    42fe:	51 1c       	adc	r5, r1
    4300:	61 1c       	adc	r6, r1
    4302:	71 1c       	adc	r7, r1
    acc += (int32_t)W_hn[2][1] * (int32_t)h_state[1];
    4304:	2f 81       	ldd	r18, Y+7	; 0x07
    4306:	38 85       	ldd	r19, Y+8	; 0x08
    4308:	a9 ec       	ldi	r26, 0xC9	; 201
    430a:	bf ef       	ldi	r27, 0xFF	; 255
    430c:	0e 94 ab 32 	call	0x6556	; 0x6556 <__mulhisi3>
    4310:	6b a3       	std	Y+35, r22	; 0x23
    4312:	7c a3       	std	Y+36, r23	; 0x24
    4314:	8d a3       	std	Y+37, r24	; 0x25
    4316:	9e a3       	std	Y+38, r25	; 0x26
    4318:	46 0e       	add	r4, r22
    431a:	57 1e       	adc	r5, r23
    431c:	68 1e       	adc	r6, r24
    431e:	79 1e       	adc	r7, r25
    acc += (int32_t)W_hn[2][2] * (int32_t)h_state[2];
    4320:	8b a5       	ldd	r24, Y+43	; 0x2b
    4322:	9c a5       	ldd	r25, Y+44	; 0x2c
    4324:	ad a5       	ldd	r26, Y+45	; 0x2d
    4326:	be a5       	ldd	r27, Y+46	; 0x2e
    4328:	48 0e       	add	r4, r24
    432a:	59 1e       	adc	r5, r25
    432c:	6a 1e       	adc	r6, r26
    432e:	7b 1e       	adc	r7, r27
    acc += (int32_t)W_hn[2][3] * (int32_t)h_state[3];
    4330:	91 01       	movw	r18, r2
    4332:	a5 ef       	ldi	r26, 0xF5	; 245
    4334:	bf ef       	ldi	r27, 0xFF	; 255
    4336:	0e 94 ab 32 	call	0x6556	; 0x6556 <__mulhisi3>
    433a:	46 0e       	add	r4, r22
    433c:	57 1e       	adc	r5, r23
    433e:	68 1e       	adc	r6, r24
    4340:	79 1e       	adc	r7, r25
    acc += (int32_t)W_hn[2][4] * (int32_t)h_state[4];
    4342:	25 e0       	ldi	r18, 0x05	; 5
    4344:	30 e0       	ldi	r19, 0x00	; 0
    4346:	ad 81       	ldd	r26, Y+5	; 0x05
    4348:	be 81       	ldd	r27, Y+6	; 0x06
    434a:	0e 94 c2 32 	call	0x6584	; 0x6584 <__usmulhisi3>
    434e:	46 0e       	add	r4, r22
    4350:	57 1e       	adc	r5, r23
    4352:	68 1e       	adc	r6, r24
    4354:	79 1e       	adc	r7, r25
    acc += (int32_t)W_hn[2][5] * (int32_t)h_state[5];
    4356:	cd 51       	subi	r28, 0x1D	; 29
    4358:	df 4f       	sbci	r29, 0xFF	; 255
    435a:	28 81       	ld	r18, Y
    435c:	39 81       	ldd	r19, Y+1	; 0x01
    435e:	4a 81       	ldd	r20, Y+2	; 0x02
    4360:	5b 81       	ldd	r21, Y+3	; 0x03
    4362:	c3 5e       	subi	r28, 0xE3	; 227
    4364:	d0 40       	sbci	r29, 0x00	; 0
    4366:	42 0e       	add	r4, r18
    4368:	53 1e       	adc	r5, r19
    436a:	64 1e       	adc	r6, r20
    436c:	75 1e       	adc	r7, r21
    acc += (int32_t)W_hn[2][6] * (int32_t)h_state[6];
    436e:	c9 56       	subi	r28, 0x69	; 105
    4370:	de 4f       	sbci	r29, 0xFE	; 254
    4372:	28 81       	ld	r18, Y
    4374:	39 81       	ldd	r19, Y+1	; 0x01
    4376:	c7 59       	subi	r28, 0x97	; 151
    4378:	d1 40       	sbci	r29, 0x01	; 1
    437a:	ac ed       	ldi	r26, 0xDC	; 220
    437c:	bf ef       	ldi	r27, 0xFF	; 255
    437e:	0e 94 ab 32 	call	0x6556	; 0x6556 <__mulhisi3>
    4382:	6b a7       	std	Y+43, r22	; 0x2b
    4384:	7c a7       	std	Y+44, r23	; 0x2c
    4386:	8d a7       	std	Y+45, r24	; 0x2d
    4388:	9e a7       	std	Y+46, r25	; 0x2e
    438a:	46 0e       	add	r4, r22
    438c:	57 1e       	adc	r5, r23
    438e:	68 1e       	adc	r6, r24
    4390:	79 1e       	adc	r7, r25
    acc += (int32_t)W_hn[2][7] * (int32_t)h_state[7];
    4392:	c5 51       	subi	r28, 0x15	; 21
    4394:	df 4f       	sbci	r29, 0xFF	; 255
    4396:	88 81       	ld	r24, Y
    4398:	99 81       	ldd	r25, Y+1	; 0x01
    439a:	aa 81       	ldd	r26, Y+2	; 0x02
    439c:	bb 81       	ldd	r27, Y+3	; 0x03
    439e:	cb 5e       	subi	r28, 0xEB	; 235
    43a0:	d0 40       	sbci	r29, 0x00	; 0
    43a2:	48 0e       	add	r4, r24
    43a4:	59 1e       	adc	r5, r25
    43a6:	6a 1e       	adc	r6, r26
    43a8:	7b 1e       	adc	r7, r27
    acc += (int32_t)W_hn[2][8] * (int32_t)h_state[8];
    43aa:	2f 89       	ldd	r18, Y+23	; 0x17
    43ac:	38 8d       	ldd	r19, Y+24	; 0x18
    43ae:	aa ee       	ldi	r26, 0xEA	; 234
    43b0:	bf ef       	ldi	r27, 0xFF	; 255
    43b2:	0e 94 ab 32 	call	0x6556	; 0x6556 <__mulhisi3>
    43b6:	46 0e       	add	r4, r22
    43b8:	57 1e       	adc	r5, r23
    43ba:	68 1e       	adc	r6, r24
    43bc:	79 1e       	adc	r7, r25
    acc += (int32_t)W_hn[2][9] * (int32_t)h_state[9];
    43be:	cd 54       	subi	r28, 0x4D	; 77
    43c0:	df 4f       	sbci	r29, 0xFF	; 255
    43c2:	28 81       	ld	r18, Y
    43c4:	39 81       	ldd	r19, Y+1	; 0x01
    43c6:	4a 81       	ldd	r20, Y+2	; 0x02
    43c8:	5b 81       	ldd	r21, Y+3	; 0x03
    43ca:	c3 5b       	subi	r28, 0xB3	; 179
    43cc:	d0 40       	sbci	r29, 0x00	; 0
    43ce:	42 0e       	add	r4, r18
    43d0:	53 1e       	adc	r5, r19
    43d2:	64 1e       	adc	r6, r20
    43d4:	75 1e       	adc	r7, r21
    acc += (int32_t)W_hn[2][10] * (int32_t)h_state[10];
    43d6:	2f 85       	ldd	r18, Y+15	; 0x0f
    43d8:	38 89       	ldd	r19, Y+16	; 0x10
    43da:	ac ed       	ldi	r26, 0xDC	; 220
    43dc:	bf ef       	ldi	r27, 0xFF	; 255
    43de:	0e 94 ab 32 	call	0x6556	; 0x6556 <__mulhisi3>
    43e2:	46 0e       	add	r4, r22
    43e4:	57 1e       	adc	r5, r23
    43e6:	68 1e       	adc	r6, r24
    43e8:	79 1e       	adc	r7, r25
    acc += (int32_t)W_hn[2][11] * (int32_t)h_state[11];
    43ea:	8f a9       	ldd	r24, Y+55	; 0x37
    43ec:	98 ad       	ldd	r25, Y+56	; 0x38
    43ee:	a9 ad       	ldd	r26, Y+57	; 0x39
    43f0:	ba ad       	ldd	r27, Y+58	; 0x3a
    43f2:	48 0e       	add	r4, r24
    43f4:	59 1e       	adc	r5, r25
    43f6:	6a 1e       	adc	r6, r26
    43f8:	7b 1e       	adc	r7, r27
    acc += (int32_t)W_hn[2][12] * (int32_t)h_state[12];
    43fa:	c9 56       	subi	r28, 0x69	; 105
    43fc:	df 4f       	sbci	r29, 0xFF	; 255
    43fe:	28 81       	ld	r18, Y
    4400:	39 81       	ldd	r19, Y+1	; 0x01
    4402:	4a 81       	ldd	r20, Y+2	; 0x02
    4404:	5b 81       	ldd	r21, Y+3	; 0x03
    4406:	c7 59       	subi	r28, 0x97	; 151
    4408:	d0 40       	sbci	r29, 0x00	; 0
    440a:	42 0e       	add	r4, r18
    440c:	53 1e       	adc	r5, r19
    440e:	64 1e       	adc	r6, r20
    4410:	75 1e       	adc	r7, r21
    acc += (int32_t)W_hn[2][13] * (int32_t)h_state[13];
    4412:	c5 5a       	subi	r28, 0xA5	; 165
    4414:	de 4f       	sbci	r29, 0xFE	; 254
    4416:	88 81       	ld	r24, Y
    4418:	99 81       	ldd	r25, Y+1	; 0x01
    441a:	aa 81       	ldd	r26, Y+2	; 0x02
    441c:	bb 81       	ldd	r27, Y+3	; 0x03
    441e:	cb 55       	subi	r28, 0x5B	; 91
    4420:	d1 40       	sbci	r29, 0x01	; 1
    4422:	48 0e       	add	r4, r24
    4424:	59 1e       	adc	r5, r25
    4426:	6a 1e       	adc	r6, r26
    4428:	7b 1e       	adc	r7, r27
    acc += (int32_t)W_hn[2][14] * (int32_t)h_state[14];
    442a:	29 e2       	ldi	r18, 0x29	; 41
    442c:	30 e0       	ldi	r19, 0x00	; 0
    442e:	ad 8d       	ldd	r26, Y+29	; 0x1d
    4430:	be 8d       	ldd	r27, Y+30	; 0x1e
    4432:	0e 94 c2 32 	call	0x6584	; 0x6584 <__usmulhisi3>
    4436:	46 0e       	add	r4, r22
    4438:	57 1e       	adc	r5, r23
    443a:	68 1e       	adc	r6, r24
    443c:	79 1e       	adc	r7, r25
    acc += (int32_t)W_hn[2][15] * (int32_t)h_state[15];
    443e:	2e e3       	ldi	r18, 0x3E	; 62
    4440:	30 e0       	ldi	r19, 0x00	; 0
    4442:	ab 89       	ldd	r26, Y+19	; 0x13
    4444:	bc 89       	ldd	r27, Y+20	; 0x14
    4446:	0e 94 c2 32 	call	0x6584	; 0x6584 <__usmulhisi3>
    444a:	46 0e       	add	r4, r22
    444c:	57 1e       	adc	r5, r23
    444e:	68 1e       	adc	r6, r24
    4450:	79 1e       	adc	r7, r25
    acc >>= FRAC_BITS;
    4452:	46 e0       	ldi	r20, 0x06	; 6
    4454:	75 94       	asr	r7
    4456:	67 94       	ror	r6
    4458:	57 94       	ror	r5
    445a:	47 94       	ror	r4
    445c:	4a 95       	dec	r20
    445e:	d1 f7       	brne	.-12     	; 0x4454 <__stack+0x2255>
static inline int16_t fp_mul(int16_t a, int16_t b) {
    return (int16_t)(((int32_t)a * (int32_t)b) >> FRAC_BITS);
}

static inline int16_t fp_sat32(int32_t v) {
    if (v > FP_MAX) return FP_MAX;
    4460:	af ef       	ldi	r26, 0xFF	; 255
    4462:	bf e7       	ldi	r27, 0x7F	; 127
    4464:	41 14       	cp	r4, r1
    4466:	90 e8       	ldi	r25, 0x80	; 128
    4468:	59 06       	cpc	r5, r25
    446a:	61 04       	cpc	r6, r1
    446c:	71 04       	cpc	r7, r1
    446e:	54 f4       	brge	.+20     	; 0x4484 <__stack+0x2285>
    if (v < FP_MIN) return FP_MIN;
    4470:	41 14       	cp	r4, r1
    4472:	a0 e8       	ldi	r26, 0x80	; 128
    4474:	5a 06       	cpc	r5, r26
    4476:	af ef       	ldi	r26, 0xFF	; 255
    4478:	6a 06       	cpc	r6, r26
    447a:	7a 06       	cpc	r7, r26
    447c:	14 f4       	brge	.+4      	; 0x4482 <__stack+0x2283>
    447e:	0c 94 82 32 	jmp	0x6504	; 0x6504 <__stack+0x4305>
    return (int16_t)v;
    4482:	d2 01       	movw	r26, r4
// ---------------------------------------------------------------------------
// Fixed-point primitives  (kept as inline functions so avr-gcc inlines them
// and the assembly is one flat sequence of instructions)
// ---------------------------------------------------------------------------
static inline int16_t fp_mul(int16_t a, int16_t b) {
    return (int16_t)(((int32_t)a * (int32_t)b) >> FRAC_BITS);
    4484:	c5 58       	subi	r28, 0x85	; 133
    4486:	de 4f       	sbci	r29, 0xFE	; 254
    4488:	28 81       	ld	r18, Y
    448a:	39 81       	ldd	r19, Y+1	; 0x01
    448c:	cb 57       	subi	r28, 0x7B	; 123
    448e:	d1 40       	sbci	r29, 0x01	; 1
    4490:	0e 94 ab 32 	call	0x6556	; 0x6556 <__mulhisi3>
    4494:	dc 01       	movw	r26, r24
    4496:	cb 01       	movw	r24, r22
    4498:	66 e0       	ldi	r22, 0x06	; 6
    449a:	b5 95       	asr	r27
    449c:	a7 95       	ror	r26
    449e:	97 95       	ror	r25
    44a0:	87 95       	ror	r24
    44a2:	6a 95       	dec	r22
    44a4:	d1 f7       	brne	.-12     	; 0x449a <__stack+0x229b>
    acc += (int32_t)W_hn[2][13] * (int32_t)h_state[13];
    acc += (int32_t)W_hn[2][14] * (int32_t)h_state[14];
    acc += (int32_t)W_hn[2][15] * (int32_t)h_state[15];
    acc >>= FRAC_BITS;
    //   scale by r[2]
    acc = (int32_t)fp_mul(r[2], fp_sat32(acc));
    44a6:	09 2e       	mov	r0, r25
    44a8:	00 0c       	add	r0, r0
    44aa:	aa 0b       	sbc	r26, r26
    44ac:	bb 0b       	sbc	r27, r27
    acc += (int32_t)W_in[2][58] * (int32_t)x[58];
    acc += (int32_t)W_in[2][59] * (int32_t)x[59];
    acc += (int32_t)W_in[2][60] * (int32_t)x[60];
    acc += (int32_t)W_in[2][61] * (int32_t)x[61];
    acc += (int32_t)W_in[2][62] * (int32_t)x[62];
    acc += (int32_t)W_in[2][63] * (int32_t)x[63];
    44ae:	8a 58       	subi	r24, 0x8A	; 138
    44b0:	9b 4e       	sbci	r25, 0xEB	; 235
    44b2:	af 4f       	sbci	r26, 0xFF	; 255
    44b4:	bf 4f       	sbci	r27, 0xFF	; 255
    acc >>= FRAC_BITS;
    44b6:	76 e0       	ldi	r23, 0x06	; 6
    44b8:	b5 95       	asr	r27
    44ba:	a7 95       	ror	r26
    44bc:	97 95       	ror	r25
    44be:	87 95       	ror	r24
    44c0:	7a 95       	dec	r23
    44c2:	d1 f7       	brne	.-12     	; 0x44b8 <__stack+0x22b9>
    n[2] = fp_tanh(fp_sat32(acc));
    44c4:	0e 94 1a 01 	call	0x234	; 0x234 <_ZL7fp_tanhi>
    44c8:	98 af       	std	Y+56, r25	; 0x38
    44ca:	8f ab       	std	Y+55, r24	; 0x37

    // n[3]  -- recurrent term: acc_r = W_hn[3]@h + b_hn[3]
    acc = (int32_t)b_hn[3];
    acc += (int32_t)W_hn[3][0] * (int32_t)h_state[0];
    44cc:	cd 5f       	subi	r28, 0xFD	; 253
    44ce:	de 4f       	sbci	r29, 0xFE	; 254
    44d0:	48 80       	ld	r4, Y
    44d2:	59 80       	ldd	r5, Y+1	; 0x01
    44d4:	6a 80       	ldd	r6, Y+2	; 0x02
    44d6:	7b 80       	ldd	r7, Y+3	; 0x03
    44d8:	c3 50       	subi	r28, 0x03	; 3
    44da:	d1 40       	sbci	r29, 0x01	; 1
    44dc:	b1 e1       	ldi	r27, 0x11	; 17
    44de:	4b 1a       	sub	r4, r27
    44e0:	51 08       	sbc	r5, r1
    44e2:	61 08       	sbc	r6, r1
    44e4:	71 08       	sbc	r7, r1
    acc += (int32_t)W_hn[3][1] * (int32_t)h_state[1];
    44e6:	26 e1       	ldi	r18, 0x16	; 22
    44e8:	30 e0       	ldi	r19, 0x00	; 0
    44ea:	af 81       	ldd	r26, Y+7	; 0x07
    44ec:	b8 85       	ldd	r27, Y+8	; 0x08
    44ee:	0e 94 c2 32 	call	0x6584	; 0x6584 <__usmulhisi3>
    44f2:	9b 01       	movw	r18, r22
    44f4:	ac 01       	movw	r20, r24
    44f6:	24 0d       	add	r18, r4
    44f8:	35 1d       	adc	r19, r5
    44fa:	46 1d       	adc	r20, r6
    44fc:	57 1d       	adc	r21, r7
    44fe:	29 83       	std	Y+1, r18	; 0x01
    4500:	3a 83       	std	Y+2, r19	; 0x02
    4502:	4b 83       	std	Y+3, r20	; 0x03
    4504:	5c 83       	std	Y+4, r21	; 0x04
    acc += (int32_t)W_hn[3][2] * (int32_t)h_state[2];
    4506:	2d 89       	ldd	r18, Y+21	; 0x15
    4508:	3e 89       	ldd	r19, Y+22	; 0x16
    450a:	a9 ef       	ldi	r26, 0xF9	; 249
    450c:	bf ef       	ldi	r27, 0xFF	; 255
    450e:	0e 94 ab 32 	call	0x6556	; 0x6556 <__mulhisi3>
    4512:	2b 01       	movw	r4, r22
    4514:	3c 01       	movw	r6, r24
    4516:	89 81       	ldd	r24, Y+1	; 0x01
    4518:	9a 81       	ldd	r25, Y+2	; 0x02
    451a:	ab 81       	ldd	r26, Y+3	; 0x03
    451c:	bc 81       	ldd	r27, Y+4	; 0x04
    451e:	84 0d       	add	r24, r4
    4520:	95 1d       	adc	r25, r5
    4522:	a6 1d       	adc	r26, r6
    4524:	b7 1d       	adc	r27, r7
    4526:	89 83       	std	Y+1, r24	; 0x01
    4528:	9a 83       	std	Y+2, r25	; 0x02
    452a:	ab 83       	std	Y+3, r26	; 0x03
    452c:	bc 83       	std	Y+4, r27	; 0x04
    acc += (int32_t)W_hn[3][3] * (int32_t)h_state[3];
    452e:	24 e3       	ldi	r18, 0x34	; 52
    4530:	30 e0       	ldi	r19, 0x00	; 0
    4532:	d1 01       	movw	r26, r2
    4534:	0e 94 c2 32 	call	0x6584	; 0x6584 <__usmulhisi3>
    4538:	29 81       	ldd	r18, Y+1	; 0x01
    453a:	3a 81       	ldd	r19, Y+2	; 0x02
    453c:	4b 81       	ldd	r20, Y+3	; 0x03
    453e:	5c 81       	ldd	r21, Y+4	; 0x04
    4540:	26 0f       	add	r18, r22
    4542:	37 1f       	adc	r19, r23
    4544:	48 1f       	adc	r20, r24
    4546:	59 1f       	adc	r21, r25
    4548:	29 83       	std	Y+1, r18	; 0x01
    454a:	3a 83       	std	Y+2, r19	; 0x02
    454c:	4b 83       	std	Y+3, r20	; 0x03
    454e:	5c 83       	std	Y+4, r21	; 0x04
    acc += (int32_t)W_hn[3][4] * (int32_t)h_state[4];
    4550:	2f e0       	ldi	r18, 0x0F	; 15
    4552:	30 e0       	ldi	r19, 0x00	; 0
    4554:	ad 81       	ldd	r26, Y+5	; 0x05
    4556:	be 81       	ldd	r27, Y+6	; 0x06
    4558:	0e 94 c2 32 	call	0x6584	; 0x6584 <__usmulhisi3>
    455c:	29 81       	ldd	r18, Y+1	; 0x01
    455e:	3a 81       	ldd	r19, Y+2	; 0x02
    4560:	4b 81       	ldd	r20, Y+3	; 0x03
    4562:	5c 81       	ldd	r21, Y+4	; 0x04
    4564:	62 0f       	add	r22, r18
    4566:	73 1f       	adc	r23, r19
    4568:	84 1f       	adc	r24, r20
    456a:	95 1f       	adc	r25, r21
    acc += (int32_t)W_hn[3][5] * (int32_t)h_state[5];
    456c:	2d 85       	ldd	r18, Y+13	; 0x0d
    456e:	3e 85       	ldd	r19, Y+14	; 0x0e
    4570:	03 2e       	mov	r0, r19
    4572:	00 0c       	add	r0, r0
    4574:	44 0b       	sbc	r20, r20
    4576:	55 0b       	sbc	r21, r21
    4578:	e4 e0       	ldi	r30, 0x04	; 4
    457a:	22 0f       	add	r18, r18
    457c:	33 1f       	adc	r19, r19
    457e:	44 1f       	adc	r20, r20
    4580:	55 1f       	adc	r21, r21
    4582:	ea 95       	dec	r30
    4584:	d1 f7       	brne	.-12     	; 0x457a <__stack+0x237b>
    4586:	26 0f       	add	r18, r22
    4588:	37 1f       	adc	r19, r23
    458a:	48 1f       	adc	r20, r24
    458c:	59 1f       	adc	r21, r25
    458e:	29 83       	std	Y+1, r18	; 0x01
    4590:	3a 83       	std	Y+2, r19	; 0x02
    4592:	4b 83       	std	Y+3, r20	; 0x03
    4594:	5c 83       	std	Y+4, r21	; 0x04
    acc += (int32_t)W_hn[3][6] * (int32_t)h_state[6];
    4596:	2b e3       	ldi	r18, 0x3B	; 59
    4598:	30 e0       	ldi	r19, 0x00	; 0
    459a:	c9 56       	subi	r28, 0x69	; 105
    459c:	de 4f       	sbci	r29, 0xFE	; 254
    459e:	a8 81       	ld	r26, Y
    45a0:	b9 81       	ldd	r27, Y+1	; 0x01
    45a2:	c7 59       	subi	r28, 0x97	; 151
    45a4:	d1 40       	sbci	r29, 0x01	; 1
    45a6:	0e 94 c2 32 	call	0x6584	; 0x6584 <__usmulhisi3>
    45aa:	29 81       	ldd	r18, Y+1	; 0x01
    45ac:	3a 81       	ldd	r19, Y+2	; 0x02
    45ae:	4b 81       	ldd	r20, Y+3	; 0x03
    45b0:	5c 81       	ldd	r21, Y+4	; 0x04
    45b2:	62 0f       	add	r22, r18
    45b4:	73 1f       	adc	r23, r19
    45b6:	84 1f       	adc	r24, r20
    45b8:	95 1f       	adc	r25, r21
    acc += (int32_t)W_hn[3][7] * (int32_t)h_state[7];
    45ba:	86 0e       	add	r8, r22
    45bc:	97 1e       	adc	r9, r23
    45be:	a8 1e       	adc	r10, r24
    45c0:	b9 1e       	adc	r11, r25
    acc += (int32_t)W_hn[3][8] * (int32_t)h_state[8];
    45c2:	2f 89       	ldd	r18, Y+23	; 0x17
    45c4:	38 8d       	ldd	r19, Y+24	; 0x18
    45c6:	a9 ee       	ldi	r26, 0xE9	; 233
    45c8:	bf ef       	ldi	r27, 0xFF	; 255
    45ca:	0e 94 ab 32 	call	0x6556	; 0x6556 <__mulhisi3>
    45ce:	86 0e       	add	r8, r22
    45d0:	97 1e       	adc	r9, r23
    45d2:	a8 1e       	adc	r10, r24
    45d4:	b9 1e       	adc	r11, r25
    acc += (int32_t)W_hn[3][9] * (int32_t)h_state[9];
    45d6:	25 e3       	ldi	r18, 0x35	; 53
    45d8:	30 e0       	ldi	r19, 0x00	; 0
    45da:	a9 85       	ldd	r26, Y+9	; 0x09
    45dc:	ba 85       	ldd	r27, Y+10	; 0x0a
    45de:	0e 94 c2 32 	call	0x6584	; 0x6584 <__usmulhisi3>
    45e2:	86 0e       	add	r8, r22
    45e4:	97 1e       	adc	r9, r23
    45e6:	a8 1e       	adc	r10, r24
    45e8:	b9 1e       	adc	r11, r25
    acc += (int32_t)W_hn[3][10] * (int32_t)h_state[10];
    45ea:	29 e3       	ldi	r18, 0x39	; 57
    45ec:	30 e0       	ldi	r19, 0x00	; 0
    45ee:	af 85       	ldd	r26, Y+15	; 0x0f
    45f0:	b8 89       	ldd	r27, Y+16	; 0x10
    45f2:	0e 94 c2 32 	call	0x6584	; 0x6584 <__usmulhisi3>
    45f6:	86 0e       	add	r8, r22
    45f8:	97 1e       	adc	r9, r23
    45fa:	a8 1e       	adc	r10, r24
    45fc:	b9 1e       	adc	r11, r25
    acc += (int32_t)W_hn[3][11] * (int32_t)h_state[11];
    45fe:	29 8d       	ldd	r18, Y+25	; 0x19
    4600:	3a 8d       	ldd	r19, Y+26	; 0x1a
    4602:	a1 ef       	ldi	r26, 0xF1	; 241
    4604:	bf ef       	ldi	r27, 0xFF	; 255
    4606:	0e 94 ab 32 	call	0x6556	; 0x6556 <__mulhisi3>
    460a:	86 0e       	add	r8, r22
    460c:	97 1e       	adc	r9, r23
    460e:	a8 1e       	adc	r10, r24
    4610:	b9 1e       	adc	r11, r25
    acc += (int32_t)W_hn[3][12] * (int32_t)h_state[12];
    4612:	25 e0       	ldi	r18, 0x05	; 5
    4614:	30 e0       	ldi	r19, 0x00	; 0
    4616:	d8 01       	movw	r26, r16
    4618:	0e 94 c2 32 	call	0x6584	; 0x6584 <__usmulhisi3>
    461c:	86 0e       	add	r8, r22
    461e:	97 1e       	adc	r9, r23
    4620:	a8 1e       	adc	r10, r24
    4622:	b9 1e       	adc	r11, r25
    acc += (int32_t)W_hn[3][13] * (int32_t)h_state[13];
    4624:	2b 8d       	ldd	r18, Y+27	; 0x1b
    4626:	3c 8d       	ldd	r19, Y+28	; 0x1c
    4628:	a4 ee       	ldi	r26, 0xE4	; 228
    462a:	bf ef       	ldi	r27, 0xFF	; 255
    462c:	0e 94 ab 32 	call	0x6556	; 0x6556 <__mulhisi3>
    4630:	86 0e       	add	r8, r22
    4632:	97 1e       	adc	r9, r23
    4634:	a8 1e       	adc	r10, r24
    4636:	b9 1e       	adc	r11, r25
    acc += (int32_t)W_hn[3][14] * (int32_t)h_state[14];
    4638:	25 e3       	ldi	r18, 0x35	; 53
    463a:	30 e0       	ldi	r19, 0x00	; 0
    463c:	ad 8d       	ldd	r26, Y+29	; 0x1d
    463e:	be 8d       	ldd	r27, Y+30	; 0x1e
    4640:	0e 94 c2 32 	call	0x6584	; 0x6584 <__usmulhisi3>
    4644:	86 0e       	add	r8, r22
    4646:	97 1e       	adc	r9, r23
    4648:	a8 1e       	adc	r10, r24
    464a:	b9 1e       	adc	r11, r25
    acc += (int32_t)W_hn[3][15] * (int32_t)h_state[15];
    464c:	c1 5f       	subi	r28, 0xF1	; 241
    464e:	de 4f       	sbci	r29, 0xFE	; 254
    4650:	88 81       	ld	r24, Y
    4652:	99 81       	ldd	r25, Y+1	; 0x01
    4654:	aa 81       	ldd	r26, Y+2	; 0x02
    4656:	bb 81       	ldd	r27, Y+3	; 0x03
    4658:	cf 50       	subi	r28, 0x0F	; 15
    465a:	d1 40       	sbci	r29, 0x01	; 1
    465c:	88 0e       	add	r8, r24
    465e:	99 1e       	adc	r9, r25
    4660:	aa 1e       	adc	r10, r26
    4662:	bb 1e       	adc	r11, r27
    acc >>= FRAC_BITS;
    4664:	f6 e0       	ldi	r31, 0x06	; 6
    4666:	b5 94       	asr	r11
    4668:	a7 94       	ror	r10
    466a:	97 94       	ror	r9
    466c:	87 94       	ror	r8
    466e:	fa 95       	dec	r31
    4670:	d1 f7       	brne	.-12     	; 0x4666 <__stack+0x2467>
static inline int16_t fp_mul(int16_t a, int16_t b) {
    return (int16_t)(((int32_t)a * (int32_t)b) >> FRAC_BITS);
}

static inline int16_t fp_sat32(int32_t v) {
    if (v > FP_MAX) return FP_MAX;
    4672:	af ef       	ldi	r26, 0xFF	; 255
    4674:	bf e7       	ldi	r27, 0x7F	; 127
    4676:	81 14       	cp	r8, r1
    4678:	90 e8       	ldi	r25, 0x80	; 128
    467a:	99 06       	cpc	r9, r25
    467c:	a1 04       	cpc	r10, r1
    467e:	b1 04       	cpc	r11, r1
    4680:	54 f4       	brge	.+20     	; 0x4696 <__stack+0x2497>
    if (v < FP_MIN) return FP_MIN;
    4682:	81 14       	cp	r8, r1
    4684:	a0 e8       	ldi	r26, 0x80	; 128
    4686:	9a 06       	cpc	r9, r26
    4688:	af ef       	ldi	r26, 0xFF	; 255
    468a:	aa 06       	cpc	r10, r26
    468c:	ba 06       	cpc	r11, r26
    468e:	14 f4       	brge	.+4      	; 0x4694 <__stack+0x2495>
    4690:	0c 94 86 32 	jmp	0x650c	; 0x650c <__stack+0x430d>
    return (int16_t)v;
    4694:	d4 01       	movw	r26, r8
// ---------------------------------------------------------------------------
// Fixed-point primitives  (kept as inline functions so avr-gcc inlines them
// and the assembly is one flat sequence of instructions)
// ---------------------------------------------------------------------------
static inline int16_t fp_mul(int16_t a, int16_t b) {
    return (int16_t)(((int32_t)a * (int32_t)b) >> FRAC_BITS);
    4696:	c3 58       	subi	r28, 0x83	; 131
    4698:	de 4f       	sbci	r29, 0xFE	; 254
    469a:	28 81       	ld	r18, Y
    469c:	39 81       	ldd	r19, Y+1	; 0x01
    469e:	cd 57       	subi	r28, 0x7D	; 125
    46a0:	d1 40       	sbci	r29, 0x01	; 1
    46a2:	0e 94 ab 32 	call	0x6556	; 0x6556 <__mulhisi3>
    46a6:	dc 01       	movw	r26, r24
    46a8:	cb 01       	movw	r24, r22
    46aa:	26 e0       	ldi	r18, 0x06	; 6
    46ac:	b5 95       	asr	r27
    46ae:	a7 95       	ror	r26
    46b0:	97 95       	ror	r25
    46b2:	87 95       	ror	r24
    46b4:	2a 95       	dec	r18
    46b6:	d1 f7       	brne	.-12     	; 0x46ac <__stack+0x24ad>
    acc += (int32_t)W_hn[3][13] * (int32_t)h_state[13];
    acc += (int32_t)W_hn[3][14] * (int32_t)h_state[14];
    acc += (int32_t)W_hn[3][15] * (int32_t)h_state[15];
    acc >>= FRAC_BITS;
    //   scale by r[3]
    acc = (int32_t)fp_mul(r[3], fp_sat32(acc));
    46b8:	09 2e       	mov	r0, r25
    46ba:	00 0c       	add	r0, r0
    46bc:	aa 0b       	sbc	r26, r26
    46be:	bb 0b       	sbc	r27, r27
    acc += (int32_t)W_in[3][58] * (int32_t)x[58];
    acc += (int32_t)W_in[3][59] * (int32_t)x[59];
    acc += (int32_t)W_in[3][60] * (int32_t)x[60];
    acc += (int32_t)W_in[3][61] * (int32_t)x[61];
    acc += (int32_t)W_in[3][62] * (int32_t)x[62];
    acc += (int32_t)W_in[3][63] * (int32_t)x[63];
    46c0:	88 57       	subi	r24, 0x78	; 120
    46c2:	9e 4e       	sbci	r25, 0xEE	; 238
    46c4:	af 4f       	sbci	r26, 0xFF	; 255
    46c6:	bf 4f       	sbci	r27, 0xFF	; 255
    acc >>= FRAC_BITS;
    46c8:	36 e0       	ldi	r19, 0x06	; 6
    46ca:	b5 95       	asr	r27
    46cc:	a7 95       	ror	r26
    46ce:	97 95       	ror	r25
    46d0:	87 95       	ror	r24
    46d2:	3a 95       	dec	r19
    46d4:	d1 f7       	brne	.-12     	; 0x46ca <__stack+0x24cb>
    n[3] = fp_tanh(fp_sat32(acc));
    46d6:	0e 94 1a 01 	call	0x234	; 0x234 <_ZL7fp_tanhi>
    46da:	9a 83       	std	Y+2, r25	; 0x02
    46dc:	89 83       	std	Y+1, r24	; 0x01

    // n[4]  -- recurrent term: acc_r = W_hn[4]@h + b_hn[4]
    acc = (int32_t)b_hn[4];
    acc += (int32_t)W_hn[4][0] * (int32_t)h_state[0];
    46de:	c5 54       	subi	r28, 0x45	; 69
    46e0:	df 4f       	sbci	r29, 0xFF	; 255
    46e2:	88 80       	ld	r8, Y
    46e4:	99 80       	ldd	r9, Y+1	; 0x01
    46e6:	aa 80       	ldd	r10, Y+2	; 0x02
    46e8:	bb 80       	ldd	r11, Y+3	; 0x03
    46ea:	cb 5b       	subi	r28, 0xBB	; 187
    46ec:	d0 40       	sbci	r29, 0x00	; 0
    46ee:	b4 e1       	ldi	r27, 0x14	; 20
    46f0:	8b 0e       	add	r8, r27
    46f2:	91 1c       	adc	r9, r1
    46f4:	a1 1c       	adc	r10, r1
    46f6:	b1 1c       	adc	r11, r1
    acc += (int32_t)W_hn[4][1] * (int32_t)h_state[1];
    46f8:	27 e2       	ldi	r18, 0x27	; 39
    46fa:	30 e0       	ldi	r19, 0x00	; 0
    46fc:	af 81       	ldd	r26, Y+7	; 0x07
    46fe:	b8 85       	ldd	r27, Y+8	; 0x08
    4700:	0e 94 c2 32 	call	0x6584	; 0x6584 <__usmulhisi3>
    4704:	86 0e       	add	r8, r22
    4706:	97 1e       	adc	r9, r23
    4708:	a8 1e       	adc	r10, r24
    470a:	b9 1e       	adc	r11, r25
    acc += (int32_t)W_hn[4][2] * (int32_t)h_state[2];
    470c:	48 0c       	add	r4, r8
    470e:	59 1c       	adc	r5, r9
    4710:	6a 1c       	adc	r6, r10
    4712:	7b 1c       	adc	r7, r11
    acc += (int32_t)W_hn[4][3] * (int32_t)h_state[3];
    4714:	91 01       	movw	r18, r2
    4716:	a6 ec       	ldi	r26, 0xC6	; 198
    4718:	bf ef       	ldi	r27, 0xFF	; 255
    471a:	0e 94 ab 32 	call	0x6556	; 0x6556 <__mulhisi3>
    471e:	46 0e       	add	r4, r22
    4720:	57 1e       	adc	r5, r23
    4722:	68 1e       	adc	r6, r24
    4724:	79 1e       	adc	r7, r25
    acc += (int32_t)W_hn[4][4] * (int32_t)h_state[4];
    4726:	23 e3       	ldi	r18, 0x33	; 51
    4728:	30 e0       	ldi	r19, 0x00	; 0
    472a:	ad 81       	ldd	r26, Y+5	; 0x05
    472c:	be 81       	ldd	r27, Y+6	; 0x06
    472e:	0e 94 c2 32 	call	0x6584	; 0x6584 <__usmulhisi3>
    4732:	46 0e       	add	r4, r22
    4734:	57 1e       	adc	r5, r23
    4736:	68 1e       	adc	r6, r24
    4738:	79 1e       	adc	r7, r25
    acc += (int32_t)W_hn[4][5] * (int32_t)h_state[5];
    473a:	2d 85       	ldd	r18, Y+13	; 0x0d
    473c:	3e 85       	ldd	r19, Y+14	; 0x0e
    473e:	a9 ed       	ldi	r26, 0xD9	; 217
    4740:	bf ef       	ldi	r27, 0xFF	; 255
    4742:	0e 94 ab 32 	call	0x6556	; 0x6556 <__mulhisi3>
    4746:	46 0e       	add	r4, r22
    4748:	57 1e       	adc	r5, r23
    474a:	68 1e       	adc	r6, r24
    474c:	79 1e       	adc	r7, r25
    acc += (int32_t)W_hn[4][6] * (int32_t)h_state[6];
    474e:	c9 56       	subi	r28, 0x69	; 105
    4750:	de 4f       	sbci	r29, 0xFE	; 254
    4752:	e8 81       	ld	r30, Y
    4754:	f9 81       	ldd	r31, Y+1	; 0x01
    4756:	c7 59       	subi	r28, 0x97	; 151
    4758:	d1 40       	sbci	r29, 0x01	; 1
    475a:	bf 01       	movw	r22, r30
    475c:	ff 0f       	add	r31, r31
    475e:	88 0b       	sbc	r24, r24
    4760:	99 0b       	sbc	r25, r25
    4762:	66 0f       	add	r22, r22
    4764:	77 1f       	adc	r23, r23
    4766:	88 1f       	adc	r24, r24
    4768:	99 1f       	adc	r25, r25
    476a:	46 0e       	add	r4, r22
    476c:	57 1e       	adc	r5, r23
    476e:	68 1e       	adc	r6, r24
    4770:	79 1e       	adc	r7, r25
    acc += (int32_t)W_hn[4][7] * (int32_t)h_state[7];
    4772:	29 e3       	ldi	r18, 0x39	; 57
    4774:	30 e0       	ldi	r19, 0x00	; 0
    4776:	a9 89       	ldd	r26, Y+17	; 0x11
    4778:	ba 89       	ldd	r27, Y+18	; 0x12
    477a:	0e 94 c2 32 	call	0x6584	; 0x6584 <__usmulhisi3>
    477e:	46 0e       	add	r4, r22
    4780:	57 1e       	adc	r5, r23
    4782:	68 1e       	adc	r6, r24
    4784:	79 1e       	adc	r7, r25
    acc += (int32_t)W_hn[4][8] * (int32_t)h_state[8];
    4786:	2f 89       	ldd	r18, Y+23	; 0x17
    4788:	38 8d       	ldd	r19, Y+24	; 0x18
    478a:	a5 ed       	ldi	r26, 0xD5	; 213
    478c:	bf ef       	ldi	r27, 0xFF	; 255
    478e:	0e 94 ab 32 	call	0x6556	; 0x6556 <__mulhisi3>
    4792:	46 0e       	add	r4, r22
    4794:	57 1e       	adc	r5, r23
    4796:	68 1e       	adc	r6, r24
    4798:	79 1e       	adc	r7, r25
    acc += (int32_t)W_hn[4][9] * (int32_t)h_state[9];
    479a:	2a e3       	ldi	r18, 0x3A	; 58
    479c:	30 e0       	ldi	r19, 0x00	; 0
    479e:	a9 85       	ldd	r26, Y+9	; 0x09
    47a0:	ba 85       	ldd	r27, Y+10	; 0x0a
    47a2:	0e 94 c2 32 	call	0x6584	; 0x6584 <__usmulhisi3>
    47a6:	46 0e       	add	r4, r22
    47a8:	57 1e       	adc	r5, r23
    47aa:	68 1e       	adc	r6, r24
    47ac:	79 1e       	adc	r7, r25
    acc += (int32_t)W_hn[4][10] * (int32_t)h_state[10];
    47ae:	25 e0       	ldi	r18, 0x05	; 5
    47b0:	30 e0       	ldi	r19, 0x00	; 0
    47b2:	af 85       	ldd	r26, Y+15	; 0x0f
    47b4:	b8 89       	ldd	r27, Y+16	; 0x10
    47b6:	0e 94 c2 32 	call	0x6584	; 0x6584 <__usmulhisi3>
    47ba:	46 0e       	add	r4, r22
    47bc:	57 1e       	adc	r5, r23
    47be:	68 1e       	adc	r6, r24
    47c0:	79 1e       	adc	r7, r25
    acc += (int32_t)W_hn[4][11] * (int32_t)h_state[11];
    47c2:	c4 0c       	add	r12, r4
    47c4:	d5 1c       	adc	r13, r5
    47c6:	e6 1c       	adc	r14, r6
    47c8:	f7 1c       	adc	r15, r7
    acc += (int32_t)W_hn[4][12] * (int32_t)h_state[12];
    47ca:	98 01       	movw	r18, r16
    47cc:	a8 ec       	ldi	r26, 0xC8	; 200
    47ce:	bf ef       	ldi	r27, 0xFF	; 255
    47d0:	0e 94 ab 32 	call	0x6556	; 0x6556 <__mulhisi3>
    47d4:	c6 0e       	add	r12, r22
    47d6:	d7 1e       	adc	r13, r23
    47d8:	e8 1e       	adc	r14, r24
    47da:	f9 1e       	adc	r15, r25
    acc += (int32_t)W_hn[4][13] * (int32_t)h_state[13];
    47dc:	26 e1       	ldi	r18, 0x16	; 22
    47de:	30 e0       	ldi	r19, 0x00	; 0
    47e0:	ab 8d       	ldd	r26, Y+27	; 0x1b
    47e2:	bc 8d       	ldd	r27, Y+28	; 0x1c
    47e4:	0e 94 c2 32 	call	0x6584	; 0x6584 <__usmulhisi3>
    47e8:	c6 0e       	add	r12, r22
    47ea:	d7 1e       	adc	r13, r23
    47ec:	e8 1e       	adc	r14, r24
    47ee:	f9 1e       	adc	r15, r25
    acc += (int32_t)W_hn[4][14] * (int32_t)h_state[14];
    47f0:	23 e2       	ldi	r18, 0x23	; 35
    47f2:	30 e0       	ldi	r19, 0x00	; 0
    47f4:	ad 8d       	ldd	r26, Y+29	; 0x1d
    47f6:	be 8d       	ldd	r27, Y+30	; 0x1e
    47f8:	0e 94 c2 32 	call	0x6584	; 0x6584 <__usmulhisi3>
    47fc:	c6 0e       	add	r12, r22
    47fe:	d7 1e       	adc	r13, r23
    4800:	e8 1e       	adc	r14, r24
    4802:	f9 1e       	adc	r15, r25
    acc += (int32_t)W_hn[4][15] * (int32_t)h_state[15];
    4804:	cd 5d       	subi	r28, 0xDD	; 221
    4806:	de 4f       	sbci	r29, 0xFE	; 254
    4808:	28 81       	ld	r18, Y
    480a:	39 81       	ldd	r19, Y+1	; 0x01
    480c:	4a 81       	ldd	r20, Y+2	; 0x02
    480e:	5b 81       	ldd	r21, Y+3	; 0x03
    4810:	c3 52       	subi	r28, 0x23	; 35
    4812:	d1 40       	sbci	r29, 0x01	; 1
    4814:	c2 0e       	add	r12, r18
    4816:	d3 1e       	adc	r13, r19
    4818:	e4 1e       	adc	r14, r20
    481a:	f5 1e       	adc	r15, r21
    acc >>= FRAC_BITS;
    481c:	56 e0       	ldi	r21, 0x06	; 6
    481e:	f5 94       	asr	r15
    4820:	e7 94       	ror	r14
    4822:	d7 94       	ror	r13
    4824:	c7 94       	ror	r12
    4826:	5a 95       	dec	r21
    4828:	d1 f7       	brne	.-12     	; 0x481e <__stack+0x261f>
static inline int16_t fp_mul(int16_t a, int16_t b) {
    return (int16_t)(((int32_t)a * (int32_t)b) >> FRAC_BITS);
}

static inline int16_t fp_sat32(int32_t v) {
    if (v > FP_MAX) return FP_MAX;
    482a:	af ef       	ldi	r26, 0xFF	; 255
    482c:	bf e7       	ldi	r27, 0x7F	; 127
    482e:	c1 14       	cp	r12, r1
    4830:	30 e8       	ldi	r19, 0x80	; 128
    4832:	d3 06       	cpc	r13, r19
    4834:	e1 04       	cpc	r14, r1
    4836:	f1 04       	cpc	r15, r1
    4838:	54 f4       	brge	.+20     	; 0x484e <__stack+0x264f>
    if (v < FP_MIN) return FP_MIN;
    return (int16_t)v;
    483a:	d6 01       	movw	r26, r12
    return (int16_t)(((int32_t)a * (int32_t)b) >> FRAC_BITS);
}

static inline int16_t fp_sat32(int32_t v) {
    if (v > FP_MAX) return FP_MAX;
    if (v < FP_MIN) return FP_MIN;
    483c:	c1 14       	cp	r12, r1
    483e:	40 e8       	ldi	r20, 0x80	; 128
    4840:	d4 06       	cpc	r13, r20
    4842:	4f ef       	ldi	r20, 0xFF	; 255
    4844:	e4 06       	cpc	r14, r20
    4846:	f4 06       	cpc	r15, r20
    4848:	14 f4       	brge	.+4      	; 0x484e <__stack+0x264f>
    484a:	a0 e0       	ldi	r26, 0x00	; 0
    484c:	b0 e8       	ldi	r27, 0x80	; 128
// ---------------------------------------------------------------------------
// Fixed-point primitives  (kept as inline functions so avr-gcc inlines them
// and the assembly is one flat sequence of instructions)
// ---------------------------------------------------------------------------
static inline int16_t fp_mul(int16_t a, int16_t b) {
    return (int16_t)(((int32_t)a * (int32_t)b) >> FRAC_BITS);
    484e:	c1 58       	subi	r28, 0x81	; 129
    4850:	de 4f       	sbci	r29, 0xFE	; 254
    4852:	28 81       	ld	r18, Y
    4854:	39 81       	ldd	r19, Y+1	; 0x01
    4856:	cf 57       	subi	r28, 0x7F	; 127
    4858:	d1 40       	sbci	r29, 0x01	; 1
    485a:	0e 94 ab 32 	call	0x6556	; 0x6556 <__mulhisi3>
    485e:	dc 01       	movw	r26, r24
    4860:	cb 01       	movw	r24, r22
    4862:	56 e0       	ldi	r21, 0x06	; 6
    4864:	b5 95       	asr	r27
    4866:	a7 95       	ror	r26
    4868:	97 95       	ror	r25
    486a:	87 95       	ror	r24
    486c:	5a 95       	dec	r21
    486e:	d1 f7       	brne	.-12     	; 0x4864 <__stack+0x2665>
    acc += (int32_t)W_hn[4][13] * (int32_t)h_state[13];
    acc += (int32_t)W_hn[4][14] * (int32_t)h_state[14];
    acc += (int32_t)W_hn[4][15] * (int32_t)h_state[15];
    acc >>= FRAC_BITS;
    //   scale by r[4]
    acc = (int32_t)fp_mul(r[4], fp_sat32(acc));
    4870:	09 2e       	mov	r0, r25
    4872:	00 0c       	add	r0, r0
    4874:	aa 0b       	sbc	r26, r26
    4876:	bb 0b       	sbc	r27, r27
    acc += (int32_t)W_in[4][58] * (int32_t)x[58];
    acc += (int32_t)W_in[4][59] * (int32_t)x[59];
    acc += (int32_t)W_in[4][60] * (int32_t)x[60];
    acc += (int32_t)W_in[4][61] * (int32_t)x[61];
    acc += (int32_t)W_in[4][62] * (int32_t)x[62];
    acc += (int32_t)W_in[4][63] * (int32_t)x[63];
    4878:	82 5a       	subi	r24, 0xA2	; 162
    487a:	95 46       	sbci	r25, 0x65	; 101
    487c:	a1 09       	sbc	r26, r1
    487e:	b1 09       	sbc	r27, r1
    acc >>= FRAC_BITS;
    4880:	66 e0       	ldi	r22, 0x06	; 6
    4882:	b5 95       	asr	r27
    4884:	a7 95       	ror	r26
    4886:	97 95       	ror	r25
    4888:	87 95       	ror	r24
    488a:	6a 95       	dec	r22
    488c:	d1 f7       	brne	.-12     	; 0x4882 <__stack+0x2683>
    n[4] = fp_tanh(fp_sat32(acc));
    488e:	0e 94 1a 01 	call	0x234	; 0x234 <_ZL7fp_tanhi>
    4892:	c5 54       	subi	r28, 0x45	; 69
    4894:	df 4f       	sbci	r29, 0xFF	; 255
    4896:	99 83       	std	Y+1, r25	; 0x01
    4898:	88 83       	st	Y, r24
    489a:	cb 5b       	subi	r28, 0xBB	; 187
    489c:	d0 40       	sbci	r29, 0x00	; 0

    // n[5]  -- recurrent term: acc_r = W_hn[5]@h + b_hn[5]
    acc = (int32_t)b_hn[5];
    acc += (int32_t)W_hn[5][0] * (int32_t)h_state[0];
    489e:	2b 85       	ldd	r18, Y+11	; 0x0b
    48a0:	3c 85       	ldd	r19, Y+12	; 0x0c
    48a2:	a6 ef       	ldi	r26, 0xF6	; 246
    48a4:	bf ef       	ldi	r27, 0xFF	; 255
    48a6:	0e 94 ab 32 	call	0x6556	; 0x6556 <__mulhisi3>
    48aa:	6b 01       	movw	r12, r22
    48ac:	7c 01       	movw	r14, r24
    48ae:	5b e2       	ldi	r21, 0x2B	; 43
    48b0:	c5 0e       	add	r12, r21
    48b2:	d1 1c       	adc	r13, r1
    48b4:	e1 1c       	adc	r14, r1
    48b6:	f1 1c       	adc	r15, r1
    acc += (int32_t)W_hn[5][1] * (int32_t)h_state[1];
    48b8:	2f 96       	adiw	r28, 0x0f	; 15
    48ba:	8c ad       	ldd	r24, Y+60	; 0x3c
    48bc:	9d ad       	ldd	r25, Y+61	; 0x3d
    48be:	ae ad       	ldd	r26, Y+62	; 0x3e
    48c0:	bf ad       	ldd	r27, Y+63	; 0x3f
    48c2:	2f 97       	sbiw	r28, 0x0f	; 15
    48c4:	c8 0e       	add	r12, r24
    48c6:	d9 1e       	adc	r13, r25
    48c8:	ea 1e       	adc	r14, r26
    48ca:	fb 1e       	adc	r15, r27
    acc += (int32_t)W_hn[5][2] * (int32_t)h_state[2];
    48cc:	25 e0       	ldi	r18, 0x05	; 5
    48ce:	30 e0       	ldi	r19, 0x00	; 0
    48d0:	ad 89       	ldd	r26, Y+21	; 0x15
    48d2:	be 89       	ldd	r27, Y+22	; 0x16
    48d4:	0e 94 c2 32 	call	0x6584	; 0x6584 <__usmulhisi3>
    48d8:	c6 0e       	add	r12, r22
    48da:	d7 1e       	adc	r13, r23
    48dc:	e8 1e       	adc	r14, r24
    48de:	f9 1e       	adc	r15, r25
    acc += (int32_t)W_hn[5][3] * (int32_t)h_state[3];
    48e0:	c5 59       	subi	r28, 0x95	; 149
    48e2:	de 4f       	sbci	r29, 0xFE	; 254
    48e4:	28 81       	ld	r18, Y
    48e6:	39 81       	ldd	r19, Y+1	; 0x01
    48e8:	4a 81       	ldd	r20, Y+2	; 0x02
    48ea:	5b 81       	ldd	r21, Y+3	; 0x03
    48ec:	cb 56       	subi	r28, 0x6B	; 107
    48ee:	d1 40       	sbci	r29, 0x01	; 1
    48f0:	c2 0e       	add	r12, r18
    48f2:	d3 1e       	adc	r13, r19
    48f4:	e4 1e       	adc	r14, r20
    48f6:	f5 1e       	adc	r15, r21
    acc += (int32_t)W_hn[5][4] * (int32_t)h_state[4];
    48f8:	2d e3       	ldi	r18, 0x3D	; 61
    48fa:	30 e0       	ldi	r19, 0x00	; 0
    48fc:	ad 81       	ldd	r26, Y+5	; 0x05
    48fe:	be 81       	ldd	r27, Y+6	; 0x06
    4900:	0e 94 c2 32 	call	0x6584	; 0x6584 <__usmulhisi3>
    4904:	c6 0e       	add	r12, r22
    4906:	d7 1e       	adc	r13, r23
    4908:	e8 1e       	adc	r14, r24
    490a:	f9 1e       	adc	r15, r25
    acc += (int32_t)W_hn[5][5] * (int32_t)h_state[5];
    490c:	2b 96       	adiw	r28, 0x0b	; 11
    490e:	8c ad       	ldd	r24, Y+60	; 0x3c
    4910:	9d ad       	ldd	r25, Y+61	; 0x3d
    4912:	ae ad       	ldd	r26, Y+62	; 0x3e
    4914:	bf ad       	ldd	r27, Y+63	; 0x3f
    4916:	2b 97       	sbiw	r28, 0x0b	; 11
    4918:	c8 0e       	add	r12, r24
    491a:	d9 1e       	adc	r13, r25
    491c:	ea 1e       	adc	r14, r26
    491e:	fb 1e       	adc	r15, r27
    acc += (int32_t)W_hn[5][6] * (int32_t)h_state[6];
    4920:	23 e1       	ldi	r18, 0x13	; 19
    4922:	30 e0       	ldi	r19, 0x00	; 0
    4924:	c9 56       	subi	r28, 0x69	; 105
    4926:	de 4f       	sbci	r29, 0xFE	; 254
    4928:	a8 81       	ld	r26, Y
    492a:	b9 81       	ldd	r27, Y+1	; 0x01
    492c:	c7 59       	subi	r28, 0x97	; 151
    492e:	d1 40       	sbci	r29, 0x01	; 1
    4930:	0e 94 c2 32 	call	0x6584	; 0x6584 <__usmulhisi3>
    4934:	c6 0e       	add	r12, r22
    4936:	d7 1e       	adc	r13, r23
    4938:	e8 1e       	adc	r14, r24
    493a:	f9 1e       	adc	r15, r25
    acc += (int32_t)W_hn[5][7] * (int32_t)h_state[7];
    493c:	28 e3       	ldi	r18, 0x38	; 56
    493e:	30 e0       	ldi	r19, 0x00	; 0
    4940:	a9 89       	ldd	r26, Y+17	; 0x11
    4942:	ba 89       	ldd	r27, Y+18	; 0x12
    4944:	0e 94 c2 32 	call	0x6584	; 0x6584 <__usmulhisi3>
    4948:	6c 0d       	add	r22, r12
    494a:	7d 1d       	adc	r23, r13
    494c:	8e 1d       	adc	r24, r14
    494e:	9f 1d       	adc	r25, r15
    acc += (int32_t)W_hn[5][8] * (int32_t)h_state[8];
    4950:	cd 58       	subi	r28, 0x8D	; 141
    4952:	de 4f       	sbci	r29, 0xFE	; 254
    4954:	c8 80       	ld	r12, Y
    4956:	d9 80       	ldd	r13, Y+1	; 0x01
    4958:	ea 80       	ldd	r14, Y+2	; 0x02
    495a:	fb 80       	ldd	r15, Y+3	; 0x03
    495c:	c3 57       	subi	r28, 0x73	; 115
    495e:	d1 40       	sbci	r29, 0x01	; 1
    4960:	e5 e0       	ldi	r30, 0x05	; 5
    4962:	cc 0c       	add	r12, r12
    4964:	dd 1c       	adc	r13, r13
    4966:	ee 1c       	adc	r14, r14
    4968:	ff 1c       	adc	r15, r15
    496a:	ea 95       	dec	r30
    496c:	d1 f7       	brne	.-12     	; 0x4962 <__stack+0x2763>
    496e:	c6 0e       	add	r12, r22
    4970:	d7 1e       	adc	r13, r23
    4972:	e8 1e       	adc	r14, r24
    4974:	f9 1e       	adc	r15, r25
    acc += (int32_t)W_hn[5][9] * (int32_t)h_state[9];
    4976:	29 85       	ldd	r18, Y+9	; 0x09
    4978:	3a 85       	ldd	r19, Y+10	; 0x0a
    497a:	a4 ed       	ldi	r26, 0xD4	; 212
    497c:	bf ef       	ldi	r27, 0xFF	; 255
    497e:	0e 94 ab 32 	call	0x6556	; 0x6556 <__mulhisi3>
    4982:	c6 0e       	add	r12, r22
    4984:	d7 1e       	adc	r13, r23
    4986:	e8 1e       	adc	r14, r24
    4988:	f9 1e       	adc	r15, r25
    acc += (int32_t)W_hn[5][10] * (int32_t)h_state[10];
    498a:	2f 85       	ldd	r18, Y+15	; 0x0f
    498c:	38 89       	ldd	r19, Y+16	; 0x10
    498e:	ab ef       	ldi	r26, 0xFB	; 251
    4990:	bf ef       	ldi	r27, 0xFF	; 255
    4992:	0e 94 ab 32 	call	0x6556	; 0x6556 <__mulhisi3>
    4996:	c6 0e       	add	r12, r22
    4998:	d7 1e       	adc	r13, r23
    499a:	e8 1e       	adc	r14, r24
    499c:	f9 1e       	adc	r15, r25
    acc += (int32_t)W_hn[5][11] * (int32_t)h_state[11];
    499e:	29 8d       	ldd	r18, Y+25	; 0x19
    49a0:	3a 8d       	ldd	r19, Y+26	; 0x1a
    49a2:	aa ee       	ldi	r26, 0xEA	; 234
    49a4:	bf ef       	ldi	r27, 0xFF	; 255
    49a6:	0e 94 ab 32 	call	0x6556	; 0x6556 <__mulhisi3>
    49aa:	c6 0e       	add	r12, r22
    49ac:	d7 1e       	adc	r13, r23
    49ae:	e8 1e       	adc	r14, r24
    49b0:	f9 1e       	adc	r15, r25
    acc += (int32_t)W_hn[5][12] * (int32_t)h_state[12];
    49b2:	cd 50       	subi	r28, 0x0D	; 13
    49b4:	df 4f       	sbci	r29, 0xFF	; 255
    49b6:	28 81       	ld	r18, Y
    49b8:	39 81       	ldd	r19, Y+1	; 0x01
    49ba:	4a 81       	ldd	r20, Y+2	; 0x02
    49bc:	5b 81       	ldd	r21, Y+3	; 0x03
    49be:	c3 5f       	subi	r28, 0xF3	; 243
    49c0:	d0 40       	sbci	r29, 0x00	; 0
    49c2:	c2 0e       	add	r12, r18
    49c4:	d3 1e       	adc	r13, r19
    49c6:	e4 1e       	adc	r14, r20
    49c8:	f5 1e       	adc	r15, r21
    acc += (int32_t)W_hn[5][13] * (int32_t)h_state[13];
    49ca:	c9 50       	subi	r28, 0x09	; 9
    49cc:	df 4f       	sbci	r29, 0xFF	; 255
    49ce:	88 81       	ld	r24, Y
    49d0:	99 81       	ldd	r25, Y+1	; 0x01
    49d2:	aa 81       	ldd	r26, Y+2	; 0x02
    49d4:	bb 81       	ldd	r27, Y+3	; 0x03
    49d6:	c7 5f       	subi	r28, 0xF7	; 247
    49d8:	d0 40       	sbci	r29, 0x00	; 0
    49da:	c8 0e       	add	r12, r24
    49dc:	d9 1e       	adc	r13, r25
    49de:	ea 1e       	adc	r14, r26
    49e0:	fb 1e       	adc	r15, r27
    acc += (int32_t)W_hn[5][14] * (int32_t)h_state[14];
    49e2:	26 e2       	ldi	r18, 0x26	; 38
    49e4:	30 e0       	ldi	r19, 0x00	; 0
    49e6:	ad 8d       	ldd	r26, Y+29	; 0x1d
    49e8:	be 8d       	ldd	r27, Y+30	; 0x1e
    49ea:	0e 94 c2 32 	call	0x6584	; 0x6584 <__usmulhisi3>
    49ee:	c6 0e       	add	r12, r22
    49f0:	d7 1e       	adc	r13, r23
    49f2:	e8 1e       	adc	r14, r24
    49f4:	f9 1e       	adc	r15, r25
    acc += (int32_t)W_hn[5][15] * (int32_t)h_state[15];
    49f6:	27 e0       	ldi	r18, 0x07	; 7
    49f8:	30 e0       	ldi	r19, 0x00	; 0
    49fa:	ab 89       	ldd	r26, Y+19	; 0x13
    49fc:	bc 89       	ldd	r27, Y+20	; 0x14
    49fe:	0e 94 c2 32 	call	0x6584	; 0x6584 <__usmulhisi3>
    4a02:	c6 0e       	add	r12, r22
    4a04:	d7 1e       	adc	r13, r23
    4a06:	e8 1e       	adc	r14, r24
    4a08:	f9 1e       	adc	r15, r25
    acc >>= FRAC_BITS;
    4a0a:	f6 e0       	ldi	r31, 0x06	; 6
    4a0c:	f5 94       	asr	r15
    4a0e:	e7 94       	ror	r14
    4a10:	d7 94       	ror	r13
    4a12:	c7 94       	ror	r12
    4a14:	fa 95       	dec	r31
    4a16:	d1 f7       	brne	.-12     	; 0x4a0c <__stack+0x280d>
static inline int16_t fp_mul(int16_t a, int16_t b) {
    return (int16_t)(((int32_t)a * (int32_t)b) >> FRAC_BITS);
}

static inline int16_t fp_sat32(int32_t v) {
    if (v > FP_MAX) return FP_MAX;
    4a18:	af ef       	ldi	r26, 0xFF	; 255
    4a1a:	bf e7       	ldi	r27, 0x7F	; 127
    4a1c:	c1 14       	cp	r12, r1
    4a1e:	90 e8       	ldi	r25, 0x80	; 128
    4a20:	d9 06       	cpc	r13, r25
    4a22:	e1 04       	cpc	r14, r1
    4a24:	f1 04       	cpc	r15, r1
    4a26:	54 f4       	brge	.+20     	; 0x4a3c <__stack+0x283d>
    if (v < FP_MIN) return FP_MIN;
    4a28:	c1 14       	cp	r12, r1
    4a2a:	a0 e8       	ldi	r26, 0x80	; 128
    4a2c:	da 06       	cpc	r13, r26
    4a2e:	af ef       	ldi	r26, 0xFF	; 255
    4a30:	ea 06       	cpc	r14, r26
    4a32:	fa 06       	cpc	r15, r26
    4a34:	14 f4       	brge	.+4      	; 0x4a3a <__stack+0x283b>
    4a36:	0c 94 8a 32 	jmp	0x6514	; 0x6514 <__stack+0x4315>
    return (int16_t)v;
    4a3a:	d6 01       	movw	r26, r12
// ---------------------------------------------------------------------------
// Fixed-point primitives  (kept as inline functions so avr-gcc inlines them
// and the assembly is one flat sequence of instructions)
// ---------------------------------------------------------------------------
static inline int16_t fp_mul(int16_t a, int16_t b) {
    return (int16_t)(((int32_t)a * (int32_t)b) >> FRAC_BITS);
    4a3c:	cf 57       	subi	r28, 0x7F	; 127
    4a3e:	de 4f       	sbci	r29, 0xFE	; 254
    4a40:	28 81       	ld	r18, Y
    4a42:	39 81       	ldd	r19, Y+1	; 0x01
    4a44:	c1 58       	subi	r28, 0x81	; 129
    4a46:	d1 40       	sbci	r29, 0x01	; 1
    4a48:	0e 94 ab 32 	call	0x6556	; 0x6556 <__mulhisi3>
    4a4c:	dc 01       	movw	r26, r24
    4a4e:	cb 01       	movw	r24, r22
    4a50:	26 e0       	ldi	r18, 0x06	; 6
    4a52:	b5 95       	asr	r27
    4a54:	a7 95       	ror	r26
    4a56:	97 95       	ror	r25
    4a58:	87 95       	ror	r24
    4a5a:	2a 95       	dec	r18
    4a5c:	d1 f7       	brne	.-12     	; 0x4a52 <__stack+0x2853>
    acc += (int32_t)W_hn[5][13] * (int32_t)h_state[13];
    acc += (int32_t)W_hn[5][14] * (int32_t)h_state[14];
    acc += (int32_t)W_hn[5][15] * (int32_t)h_state[15];
    acc >>= FRAC_BITS;
    //   scale by r[5]
    acc = (int32_t)fp_mul(r[5], fp_sat32(acc));
    4a5e:	09 2e       	mov	r0, r25
    4a60:	00 0c       	add	r0, r0
    4a62:	aa 0b       	sbc	r26, r26
    4a64:	bb 0b       	sbc	r27, r27
    acc += (int32_t)W_in[5][58] * (int32_t)x[58];
    acc += (int32_t)W_in[5][59] * (int32_t)x[59];
    acc += (int32_t)W_in[5][60] * (int32_t)x[60];
    acc += (int32_t)W_in[5][61] * (int32_t)x[61];
    acc += (int32_t)W_in[5][62] * (int32_t)x[62];
    acc += (int32_t)W_in[5][63] * (int32_t)x[63];
    4a66:	84 52       	subi	r24, 0x24	; 36
    4a68:	99 44       	sbci	r25, 0x49	; 73
    4a6a:	a1 09       	sbc	r26, r1
    4a6c:	b1 09       	sbc	r27, r1
    acc >>= FRAC_BITS;
    4a6e:	36 e0       	ldi	r19, 0x06	; 6
    4a70:	b5 95       	asr	r27
    4a72:	a7 95       	ror	r26
    4a74:	97 95       	ror	r25
    4a76:	87 95       	ror	r24
    4a78:	3a 95       	dec	r19
    4a7a:	d1 f7       	brne	.-12     	; 0x4a70 <__stack+0x2871>
    n[5] = fp_tanh(fp_sat32(acc));
    4a7c:	0e 94 1a 01 	call	0x234	; 0x234 <_ZL7fp_tanhi>
    4a80:	2d 96       	adiw	r28, 0x0d	; 13
    4a82:	9f af       	std	Y+63, r25	; 0x3f
    4a84:	8e af       	std	Y+62, r24	; 0x3e
    4a86:	2d 97       	sbiw	r28, 0x0d	; 13

    // n[6]  -- recurrent term: acc_r = W_hn[6]@h + b_hn[6]
    acc = (int32_t)b_hn[6];
    acc += (int32_t)W_hn[6][0] * (int32_t)h_state[0];
    4a88:	2a e0       	ldi	r18, 0x0A	; 10
    4a8a:	30 e0       	ldi	r19, 0x00	; 0
    4a8c:	ab 85       	ldd	r26, Y+11	; 0x0b
    4a8e:	bc 85       	ldd	r27, Y+12	; 0x0c
    4a90:	0e 94 c2 32 	call	0x6584	; 0x6584 <__usmulhisi3>
    4a94:	6b 01       	movw	r12, r22
    4a96:	7c 01       	movw	r14, r24
    4a98:	b2 e0       	ldi	r27, 0x02	; 2
    4a9a:	cb 0e       	add	r12, r27
    4a9c:	d1 1c       	adc	r13, r1
    4a9e:	e1 1c       	adc	r14, r1
    4aa0:	f1 1c       	adc	r15, r1
    acc += (int32_t)W_hn[6][1] * (int32_t)h_state[1];
    4aa2:	2f 81       	ldd	r18, Y+7	; 0x07
    4aa4:	38 85       	ldd	r19, Y+8	; 0x08
    4aa6:	ad ed       	ldi	r26, 0xDD	; 221
    4aa8:	bf ef       	ldi	r27, 0xFF	; 255
    4aaa:	0e 94 ab 32 	call	0x6556	; 0x6556 <__mulhisi3>
    4aae:	c6 0e       	add	r12, r22
    4ab0:	d7 1e       	adc	r13, r23
    4ab2:	e8 1e       	adc	r14, r24
    4ab4:	f9 1e       	adc	r15, r25
    acc += (int32_t)W_hn[6][2] * (int32_t)h_state[2];
    4ab6:	2d 89       	ldd	r18, Y+21	; 0x15
    4ab8:	3e 89       	ldd	r19, Y+22	; 0x16
    4aba:	a1 ee       	ldi	r26, 0xE1	; 225
    4abc:	bf ef       	ldi	r27, 0xFF	; 255
    4abe:	0e 94 ab 32 	call	0x6556	; 0x6556 <__mulhisi3>
    4ac2:	c6 0e       	add	r12, r22
    4ac4:	d7 1e       	adc	r13, r23
    4ac6:	e8 1e       	adc	r14, r24
    4ac8:	f9 1e       	adc	r15, r25
    acc += (int32_t)W_hn[6][3] * (int32_t)h_state[3];
    4aca:	91 01       	movw	r18, r2
    4acc:	a2 ef       	ldi	r26, 0xF2	; 242
    4ace:	bf ef       	ldi	r27, 0xFF	; 255
    4ad0:	0e 94 ab 32 	call	0x6556	; 0x6556 <__mulhisi3>
    4ad4:	c6 0e       	add	r12, r22
    4ad6:	d7 1e       	adc	r13, r23
    4ad8:	e8 1e       	adc	r14, r24
    4ada:	f9 1e       	adc	r15, r25
    acc += (int32_t)W_hn[6][4] * (int32_t)h_state[4];
    4adc:	21 e1       	ldi	r18, 0x11	; 17
    4ade:	30 e0       	ldi	r19, 0x00	; 0
    4ae0:	ad 81       	ldd	r26, Y+5	; 0x05
    4ae2:	be 81       	ldd	r27, Y+6	; 0x06
    4ae4:	0e 94 c2 32 	call	0x6584	; 0x6584 <__usmulhisi3>
    4ae8:	c6 0e       	add	r12, r22
    4aea:	d7 1e       	adc	r13, r23
    4aec:	e8 1e       	adc	r14, r24
    4aee:	f9 1e       	adc	r15, r25
    acc += (int32_t)W_hn[6][5] * (int32_t)h_state[5];
    4af0:	2d 85       	ldd	r18, Y+13	; 0x0d
    4af2:	3e 85       	ldd	r19, Y+14	; 0x0e
    4af4:	a7 ef       	ldi	r26, 0xF7	; 247
    4af6:	bf ef       	ldi	r27, 0xFF	; 255
    4af8:	0e 94 ab 32 	call	0x6556	; 0x6556 <__mulhisi3>
    4afc:	c6 0e       	add	r12, r22
    4afe:	d7 1e       	adc	r13, r23
    4b00:	e8 1e       	adc	r14, r24
    4b02:	f9 1e       	adc	r15, r25
    acc += (int32_t)W_hn[6][6] * (int32_t)h_state[6];
    4b04:	c9 56       	subi	r28, 0x69	; 105
    4b06:	de 4f       	sbci	r29, 0xFE	; 254
    4b08:	28 81       	ld	r18, Y
    4b0a:	39 81       	ldd	r19, Y+1	; 0x01
    4b0c:	c7 59       	subi	r28, 0x97	; 151
    4b0e:	d1 40       	sbci	r29, 0x01	; 1
    4b10:	a2 ec       	ldi	r26, 0xC2	; 194
    4b12:	bf ef       	ldi	r27, 0xFF	; 255
    4b14:	0e 94 ab 32 	call	0x6556	; 0x6556 <__mulhisi3>
    4b18:	c6 0e       	add	r12, r22
    4b1a:	d7 1e       	adc	r13, r23
    4b1c:	e8 1e       	adc	r14, r24
    4b1e:	f9 1e       	adc	r15, r25
    acc += (int32_t)W_hn[6][7] * (int32_t)h_state[7];
    4b20:	26 e1       	ldi	r18, 0x16	; 22
    4b22:	30 e0       	ldi	r19, 0x00	; 0
    4b24:	a9 89       	ldd	r26, Y+17	; 0x11
    4b26:	ba 89       	ldd	r27, Y+18	; 0x12
    4b28:	0e 94 c2 32 	call	0x6584	; 0x6584 <__usmulhisi3>
    4b2c:	c6 0e       	add	r12, r22
    4b2e:	d7 1e       	adc	r13, r23
    4b30:	e8 1e       	adc	r14, r24
    4b32:	f9 1e       	adc	r15, r25
    acc += (int32_t)W_hn[6][8] * (int32_t)h_state[8];
    4b34:	cf 5b       	subi	r28, 0xBF	; 191
    4b36:	de 4f       	sbci	r29, 0xFE	; 254
    4b38:	28 81       	ld	r18, Y
    4b3a:	39 81       	ldd	r19, Y+1	; 0x01
    4b3c:	4a 81       	ldd	r20, Y+2	; 0x02
    4b3e:	5b 81       	ldd	r21, Y+3	; 0x03
    4b40:	c1 54       	subi	r28, 0x41	; 65
    4b42:	d1 40       	sbci	r29, 0x01	; 1
    4b44:	c2 0e       	add	r12, r18
    4b46:	d3 1e       	adc	r13, r19
    4b48:	e4 1e       	adc	r14, r20
    4b4a:	f5 1e       	adc	r15, r21
    acc += (int32_t)W_hn[6][9] * (int32_t)h_state[9];
    4b4c:	cb 5b       	subi	r28, 0xBB	; 187
    4b4e:	de 4f       	sbci	r29, 0xFE	; 254
    4b50:	88 81       	ld	r24, Y
    4b52:	99 81       	ldd	r25, Y+1	; 0x01
    4b54:	aa 81       	ldd	r26, Y+2	; 0x02
    4b56:	bb 81       	ldd	r27, Y+3	; 0x03
    4b58:	c5 54       	subi	r28, 0x45	; 69
    4b5a:	d1 40       	sbci	r29, 0x01	; 1
    4b5c:	c8 0e       	add	r12, r24
    4b5e:	d9 1e       	adc	r13, r25
    4b60:	ea 1e       	adc	r14, r26
    4b62:	fb 1e       	adc	r15, r27
    acc += (int32_t)W_hn[6][10] * (int32_t)h_state[10];
    4b64:	2f e0       	ldi	r18, 0x0F	; 15
    4b66:	30 e0       	ldi	r19, 0x00	; 0
    4b68:	af 85       	ldd	r26, Y+15	; 0x0f
    4b6a:	b8 89       	ldd	r27, Y+16	; 0x10
    4b6c:	0e 94 c2 32 	call	0x6584	; 0x6584 <__usmulhisi3>
    4b70:	c6 0e       	add	r12, r22
    4b72:	d7 1e       	adc	r13, r23
    4b74:	e8 1e       	adc	r14, r24
    4b76:	f9 1e       	adc	r15, r25
    acc += (int32_t)W_hn[6][11] * (int32_t)h_state[11];
    4b78:	c9 5e       	subi	r28, 0xE9	; 233
    4b7a:	de 4f       	sbci	r29, 0xFE	; 254
    4b7c:	28 81       	ld	r18, Y
    4b7e:	39 81       	ldd	r19, Y+1	; 0x01
    4b80:	4a 81       	ldd	r20, Y+2	; 0x02
    4b82:	5b 81       	ldd	r21, Y+3	; 0x03
    4b84:	c7 51       	subi	r28, 0x17	; 23
    4b86:	d1 40       	sbci	r29, 0x01	; 1
    4b88:	c2 0e       	add	r12, r18
    4b8a:	d3 1e       	adc	r13, r19
    4b8c:	e4 1e       	adc	r14, r20
    4b8e:	f5 1e       	adc	r15, r21
    acc += (int32_t)W_hn[6][12] * (int32_t)h_state[12];
    4b90:	c7 5b       	subi	r28, 0xB7	; 183
    4b92:	de 4f       	sbci	r29, 0xFE	; 254
    4b94:	88 81       	ld	r24, Y
    4b96:	99 81       	ldd	r25, Y+1	; 0x01
    4b98:	aa 81       	ldd	r26, Y+2	; 0x02
    4b9a:	bb 81       	ldd	r27, Y+3	; 0x03
    4b9c:	c9 54       	subi	r28, 0x49	; 73
    4b9e:	d1 40       	sbci	r29, 0x01	; 1
    4ba0:	c8 0e       	add	r12, r24
    4ba2:	d9 1e       	adc	r13, r25
    4ba4:	ea 1e       	adc	r14, r26
    4ba6:	fb 1e       	adc	r15, r27
    acc += (int32_t)W_hn[6][13] * (int32_t)h_state[13];
    4ba8:	2a e1       	ldi	r18, 0x1A	; 26
    4baa:	30 e0       	ldi	r19, 0x00	; 0
    4bac:	ab 8d       	ldd	r26, Y+27	; 0x1b
    4bae:	bc 8d       	ldd	r27, Y+28	; 0x1c
    4bb0:	0e 94 c2 32 	call	0x6584	; 0x6584 <__usmulhisi3>
    4bb4:	c6 0e       	add	r12, r22
    4bb6:	d7 1e       	adc	r13, r23
    4bb8:	e8 1e       	adc	r14, r24
    4bba:	f9 1e       	adc	r15, r25
    acc += (int32_t)W_hn[6][14] * (int32_t)h_state[14];
    4bbc:	e3 96       	adiw	r28, 0x33	; 51
    4bbe:	2c ad       	ldd	r18, Y+60	; 0x3c
    4bc0:	3d ad       	ldd	r19, Y+61	; 0x3d
    4bc2:	4e ad       	ldd	r20, Y+62	; 0x3e
    4bc4:	5f ad       	ldd	r21, Y+63	; 0x3f
    4bc6:	e3 97       	sbiw	r28, 0x33	; 51
    4bc8:	c2 0e       	add	r12, r18
    4bca:	d3 1e       	adc	r13, r19
    4bcc:	e4 1e       	adc	r14, r20
    4bce:	f5 1e       	adc	r15, r21
    acc += (int32_t)W_hn[6][15] * (int32_t)h_state[15];
    4bd0:	27 e3       	ldi	r18, 0x37	; 55
    4bd2:	30 e0       	ldi	r19, 0x00	; 0
    4bd4:	ab 89       	ldd	r26, Y+19	; 0x13
    4bd6:	bc 89       	ldd	r27, Y+20	; 0x14
    4bd8:	0e 94 c2 32 	call	0x6584	; 0x6584 <__usmulhisi3>
    4bdc:	c6 0e       	add	r12, r22
    4bde:	d7 1e       	adc	r13, r23
    4be0:	e8 1e       	adc	r14, r24
    4be2:	f9 1e       	adc	r15, r25
    acc >>= FRAC_BITS;
    4be4:	46 e0       	ldi	r20, 0x06	; 6
    4be6:	f5 94       	asr	r15
    4be8:	e7 94       	ror	r14
    4bea:	d7 94       	ror	r13
    4bec:	c7 94       	ror	r12
    4bee:	4a 95       	dec	r20
    4bf0:	d1 f7       	brne	.-12     	; 0x4be6 <__stack+0x29e7>
static inline int16_t fp_mul(int16_t a, int16_t b) {
    return (int16_t)(((int32_t)a * (int32_t)b) >> FRAC_BITS);
}

static inline int16_t fp_sat32(int32_t v) {
    if (v > FP_MAX) return FP_MAX;
    4bf2:	af ef       	ldi	r26, 0xFF	; 255
    4bf4:	bf e7       	ldi	r27, 0x7F	; 127
    4bf6:	c1 14       	cp	r12, r1
    4bf8:	30 e8       	ldi	r19, 0x80	; 128
    4bfa:	d3 06       	cpc	r13, r19
    4bfc:	e1 04       	cpc	r14, r1
    4bfe:	f1 04       	cpc	r15, r1
    4c00:	54 f4       	brge	.+20     	; 0x4c16 <__stack+0x2a17>
    if (v < FP_MIN) return FP_MIN;
    return (int16_t)v;
    4c02:	d6 01       	movw	r26, r12
    return (int16_t)(((int32_t)a * (int32_t)b) >> FRAC_BITS);
}

static inline int16_t fp_sat32(int32_t v) {
    if (v > FP_MAX) return FP_MAX;
    if (v < FP_MIN) return FP_MIN;
    4c04:	c1 14       	cp	r12, r1
    4c06:	40 e8       	ldi	r20, 0x80	; 128
    4c08:	d4 06       	cpc	r13, r20
    4c0a:	4f ef       	ldi	r20, 0xFF	; 255
    4c0c:	e4 06       	cpc	r14, r20
    4c0e:	f4 06       	cpc	r15, r20
    4c10:	14 f4       	brge	.+4      	; 0x4c16 <__stack+0x2a17>
    4c12:	a0 e0       	ldi	r26, 0x00	; 0
    4c14:	b0 e8       	ldi	r27, 0x80	; 128
// ---------------------------------------------------------------------------
// Fixed-point primitives  (kept as inline functions so avr-gcc inlines them
// and the assembly is one flat sequence of instructions)
// ---------------------------------------------------------------------------
static inline int16_t fp_mul(int16_t a, int16_t b) {
    return (int16_t)(((int32_t)a * (int32_t)b) >> FRAC_BITS);
    4c16:	cd 57       	subi	r28, 0x7D	; 125
    4c18:	de 4f       	sbci	r29, 0xFE	; 254
    4c1a:	28 81       	ld	r18, Y
    4c1c:	39 81       	ldd	r19, Y+1	; 0x01
    4c1e:	c3 58       	subi	r28, 0x83	; 131
    4c20:	d1 40       	sbci	r29, 0x01	; 1
    4c22:	0e 94 ab 32 	call	0x6556	; 0x6556 <__mulhisi3>
    4c26:	dc 01       	movw	r26, r24
    4c28:	cb 01       	movw	r24, r22
    4c2a:	56 e0       	ldi	r21, 0x06	; 6
    4c2c:	b5 95       	asr	r27
    4c2e:	a7 95       	ror	r26
    4c30:	97 95       	ror	r25
    4c32:	87 95       	ror	r24
    4c34:	5a 95       	dec	r21
    4c36:	d1 f7       	brne	.-12     	; 0x4c2c <__stack+0x2a2d>
    acc += (int32_t)W_hn[6][13] * (int32_t)h_state[13];
    acc += (int32_t)W_hn[6][14] * (int32_t)h_state[14];
    acc += (int32_t)W_hn[6][15] * (int32_t)h_state[15];
    acc >>= FRAC_BITS;
    //   scale by r[6]
    acc = (int32_t)fp_mul(r[6], fp_sat32(acc));
    4c38:	09 2e       	mov	r0, r25
    4c3a:	00 0c       	add	r0, r0
    4c3c:	aa 0b       	sbc	r26, r26
    4c3e:	bb 0b       	sbc	r27, r27
    acc += (int32_t)W_in[6][58] * (int32_t)x[58];
    acc += (int32_t)W_in[6][59] * (int32_t)x[59];
    acc += (int32_t)W_in[6][60] * (int32_t)x[60];
    acc += (int32_t)W_in[6][61] * (int32_t)x[61];
    acc += (int32_t)W_in[6][62] * (int32_t)x[62];
    acc += (int32_t)W_in[6][63] * (int32_t)x[63];
    4c40:	8b 59       	subi	r24, 0x9B	; 155
    4c42:	9b 4b       	sbci	r25, 0xBB	; 187
    4c44:	af 4f       	sbci	r26, 0xFF	; 255
    4c46:	bf 4f       	sbci	r27, 0xFF	; 255
    acc >>= FRAC_BITS;
    4c48:	66 e0       	ldi	r22, 0x06	; 6
    4c4a:	b5 95       	asr	r27
    4c4c:	a7 95       	ror	r26
    4c4e:	97 95       	ror	r25
    4c50:	87 95       	ror	r24
    4c52:	6a 95       	dec	r22
    4c54:	d1 f7       	brne	.-12     	; 0x4c4a <__stack+0x2a4b>
    n[6] = fp_tanh(fp_sat32(acc));
    4c56:	0e 94 1a 01 	call	0x234	; 0x234 <_ZL7fp_tanhi>
    4c5a:	e1 96       	adiw	r28, 0x31	; 49
    4c5c:	9f af       	std	Y+63, r25	; 0x3f
    4c5e:	8e af       	std	Y+62, r24	; 0x3e
    4c60:	e1 97       	sbiw	r28, 0x31	; 49

    // n[7]  -- recurrent term: acc_r = W_hn[7]@h + b_hn[7]
    acc = (int32_t)b_hn[7];
    acc += (int32_t)W_hn[7][0] * (int32_t)h_state[0];
    4c62:	2b 85       	ldd	r18, Y+11	; 0x0b
    4c64:	3c 85       	ldd	r19, Y+12	; 0x0c
    4c66:	ae ec       	ldi	r26, 0xCE	; 206
    4c68:	bf ef       	ldi	r27, 0xFF	; 255
    4c6a:	0e 94 ab 32 	call	0x6556	; 0x6556 <__mulhisi3>
    4c6e:	6b 01       	movw	r12, r22
    4c70:	7c 01       	movw	r14, r24
    4c72:	50 e1       	ldi	r21, 0x10	; 16
    4c74:	c5 1a       	sub	r12, r21
    4c76:	d1 08       	sbc	r13, r1
    4c78:	e1 08       	sbc	r14, r1
    4c7a:	f1 08       	sbc	r15, r1
    acc += (int32_t)W_hn[7][1] * (int32_t)h_state[1];
    4c7c:	25 e2       	ldi	r18, 0x25	; 37
    4c7e:	30 e0       	ldi	r19, 0x00	; 0
    4c80:	af 81       	ldd	r26, Y+7	; 0x07
    4c82:	b8 85       	ldd	r27, Y+8	; 0x08
    4c84:	0e 94 c2 32 	call	0x6584	; 0x6584 <__usmulhisi3>
    4c88:	c6 0e       	add	r12, r22
    4c8a:	d7 1e       	adc	r13, r23
    4c8c:	e8 1e       	adc	r14, r24
    4c8e:	f9 1e       	adc	r15, r25
    acc += (int32_t)W_hn[7][2] * (int32_t)h_state[2];
    4c90:	2d 89       	ldd	r18, Y+21	; 0x15
    4c92:	3e 89       	ldd	r19, Y+22	; 0x16
    4c94:	a7 ee       	ldi	r26, 0xE7	; 231
    4c96:	bf ef       	ldi	r27, 0xFF	; 255
    4c98:	0e 94 ab 32 	call	0x6556	; 0x6556 <__mulhisi3>
    4c9c:	c6 0e       	add	r12, r22
    4c9e:	d7 1e       	adc	r13, r23
    4ca0:	e8 1e       	adc	r14, r24
    4ca2:	f9 1e       	adc	r15, r25
    acc += (int32_t)W_hn[7][3] * (int32_t)h_state[3];
    4ca4:	91 01       	movw	r18, r2
    4ca6:	ab ec       	ldi	r26, 0xCB	; 203
    4ca8:	bf ef       	ldi	r27, 0xFF	; 255
    4caa:	0e 94 ab 32 	call	0x6556	; 0x6556 <__mulhisi3>
    4cae:	c6 0e       	add	r12, r22
    4cb0:	d7 1e       	adc	r13, r23
    4cb2:	e8 1e       	adc	r14, r24
    4cb4:	f9 1e       	adc	r15, r25
    acc += (int32_t)W_hn[7][4] * (int32_t)h_state[4];
    4cb6:	22 e2       	ldi	r18, 0x22	; 34
    4cb8:	30 e0       	ldi	r19, 0x00	; 0
    4cba:	ad 81       	ldd	r26, Y+5	; 0x05
    4cbc:	be 81       	ldd	r27, Y+6	; 0x06
    4cbe:	0e 94 c2 32 	call	0x6584	; 0x6584 <__usmulhisi3>
    4cc2:	c6 0e       	add	r12, r22
    4cc4:	d7 1e       	adc	r13, r23
    4cc6:	e8 1e       	adc	r14, r24
    4cc8:	f9 1e       	adc	r15, r25
    acc += (int32_t)W_hn[7][5] * (int32_t)h_state[5];
    4cca:	c1 5d       	subi	r28, 0xD1	; 209
    4ccc:	de 4f       	sbci	r29, 0xFE	; 254
    4cce:	88 81       	ld	r24, Y
    4cd0:	99 81       	ldd	r25, Y+1	; 0x01
    4cd2:	aa 81       	ldd	r26, Y+2	; 0x02
    4cd4:	bb 81       	ldd	r27, Y+3	; 0x03
    4cd6:	cf 52       	subi	r28, 0x2F	; 47
    4cd8:	d1 40       	sbci	r29, 0x01	; 1
    4cda:	c8 0e       	add	r12, r24
    4cdc:	d9 1e       	adc	r13, r25
    4cde:	ea 1e       	adc	r14, r26
    4ce0:	fb 1e       	adc	r15, r27
    acc += (int32_t)W_hn[7][6] * (int32_t)h_state[6];
    4ce2:	c9 56       	subi	r28, 0x69	; 105
    4ce4:	de 4f       	sbci	r29, 0xFE	; 254
    4ce6:	28 81       	ld	r18, Y
    4ce8:	39 81       	ldd	r19, Y+1	; 0x01
    4cea:	c7 59       	subi	r28, 0x97	; 151
    4cec:	d1 40       	sbci	r29, 0x01	; 1
    4cee:	a3 ef       	ldi	r26, 0xF3	; 243
    4cf0:	bf ef       	ldi	r27, 0xFF	; 255
    4cf2:	0e 94 ab 32 	call	0x6556	; 0x6556 <__mulhisi3>
    4cf6:	c6 0e       	add	r12, r22
    4cf8:	d7 1e       	adc	r13, r23
    4cfa:	e8 1e       	adc	r14, r24
    4cfc:	f9 1e       	adc	r15, r25
    acc += (int32_t)W_hn[7][7] * (int32_t)h_state[7];
    4cfe:	25 e1       	ldi	r18, 0x15	; 21
    4d00:	30 e0       	ldi	r19, 0x00	; 0
    4d02:	a9 89       	ldd	r26, Y+17	; 0x11
    4d04:	ba 89       	ldd	r27, Y+18	; 0x12
    4d06:	0e 94 c2 32 	call	0x6584	; 0x6584 <__usmulhisi3>
    4d0a:	c6 0e       	add	r12, r22
    4d0c:	d7 1e       	adc	r13, r23
    4d0e:	e8 1e       	adc	r14, r24
    4d10:	f9 1e       	adc	r15, r25
    acc += (int32_t)W_hn[7][8] * (int32_t)h_state[8];
    4d12:	2f 89       	ldd	r18, Y+23	; 0x17
    4d14:	38 8d       	ldd	r19, Y+24	; 0x18
    4d16:	ad ef       	ldi	r26, 0xFD	; 253
    4d18:	bf ef       	ldi	r27, 0xFF	; 255
    4d1a:	0e 94 ab 32 	call	0x6556	; 0x6556 <__mulhisi3>
    4d1e:	c6 0e       	add	r12, r22
    4d20:	d7 1e       	adc	r13, r23
    4d22:	e8 1e       	adc	r14, r24
    4d24:	f9 1e       	adc	r15, r25
    acc += (int32_t)W_hn[7][9] * (int32_t)h_state[9];
    4d26:	a9 85       	ldd	r26, Y+9	; 0x09
    4d28:	ba 85       	ldd	r27, Y+10	; 0x0a
    4d2a:	bd 01       	movw	r22, r26
    4d2c:	bb 0f       	add	r27, r27
    4d2e:	88 0b       	sbc	r24, r24
    4d30:	99 0b       	sbc	r25, r25
    4d32:	e2 e0       	ldi	r30, 0x02	; 2
    4d34:	66 0f       	add	r22, r22
    4d36:	77 1f       	adc	r23, r23
    4d38:	88 1f       	adc	r24, r24
    4d3a:	99 1f       	adc	r25, r25
    4d3c:	ea 95       	dec	r30
    4d3e:	d1 f7       	brne	.-12     	; 0x4d34 <__stack+0x2b35>
    4d40:	c6 0e       	add	r12, r22
    4d42:	d7 1e       	adc	r13, r23
    4d44:	e8 1e       	adc	r14, r24
    4d46:	f9 1e       	adc	r15, r25
    acc += (int32_t)W_hn[7][10] * (int32_t)h_state[10];
    4d48:	2f 85       	ldd	r18, Y+15	; 0x0f
    4d4a:	38 89       	ldd	r19, Y+16	; 0x10
    4d4c:	a1 ed       	ldi	r26, 0xD1	; 209
    4d4e:	bf ef       	ldi	r27, 0xFF	; 255
    4d50:	0e 94 ab 32 	call	0x6556	; 0x6556 <__mulhisi3>
    4d54:	4b 01       	movw	r8, r22
    4d56:	5c 01       	movw	r10, r24
    4d58:	c8 0c       	add	r12, r8
    4d5a:	d9 1c       	adc	r13, r9
    4d5c:	ea 1c       	adc	r14, r10
    4d5e:	fb 1c       	adc	r15, r11
    acc += (int32_t)W_hn[7][11] * (int32_t)h_state[11];
    4d60:	c9 5c       	subi	r28, 0xC9	; 201
    4d62:	de 4f       	sbci	r29, 0xFE	; 254
    4d64:	28 81       	ld	r18, Y
    4d66:	39 81       	ldd	r19, Y+1	; 0x01
    4d68:	4a 81       	ldd	r20, Y+2	; 0x02
    4d6a:	5b 81       	ldd	r21, Y+3	; 0x03
    4d6c:	c7 53       	subi	r28, 0x37	; 55
    4d6e:	d1 40       	sbci	r29, 0x01	; 1
    4d70:	c2 0e       	add	r12, r18
    4d72:	d3 1e       	adc	r13, r19
    4d74:	e4 1e       	adc	r14, r20
    4d76:	f5 1e       	adc	r15, r21
    acc += (int32_t)W_hn[7][12] * (int32_t)h_state[12];
    4d78:	26 e2       	ldi	r18, 0x26	; 38
    4d7a:	30 e0       	ldi	r19, 0x00	; 0
    4d7c:	d8 01       	movw	r26, r16
    4d7e:	0e 94 c2 32 	call	0x6584	; 0x6584 <__usmulhisi3>
    4d82:	c6 0e       	add	r12, r22
    4d84:	d7 1e       	adc	r13, r23
    4d86:	e8 1e       	adc	r14, r24
    4d88:	f9 1e       	adc	r15, r25
    acc += (int32_t)W_hn[7][13] * (int32_t)h_state[13];
    4d8a:	26 e0       	ldi	r18, 0x06	; 6
    4d8c:	30 e0       	ldi	r19, 0x00	; 0
    4d8e:	ab 8d       	ldd	r26, Y+27	; 0x1b
    4d90:	bc 8d       	ldd	r27, Y+28	; 0x1c
    4d92:	0e 94 c2 32 	call	0x6584	; 0x6584 <__usmulhisi3>
    4d96:	c6 0e       	add	r12, r22
    4d98:	d7 1e       	adc	r13, r23
    4d9a:	e8 1e       	adc	r14, r24
    4d9c:	f9 1e       	adc	r15, r25
    acc += (int32_t)W_hn[7][14] * (int32_t)h_state[14];
    4d9e:	c5 52       	subi	r28, 0x25	; 37
    4da0:	df 4f       	sbci	r29, 0xFF	; 255
    4da2:	88 81       	ld	r24, Y
    4da4:	99 81       	ldd	r25, Y+1	; 0x01
    4da6:	aa 81       	ldd	r26, Y+2	; 0x02
    4da8:	bb 81       	ldd	r27, Y+3	; 0x03
    4daa:	cb 5d       	subi	r28, 0xDB	; 219
    4dac:	d0 40       	sbci	r29, 0x00	; 0
    4dae:	c8 0e       	add	r12, r24
    4db0:	d9 1e       	adc	r13, r25
    4db2:	ea 1e       	adc	r14, r26
    4db4:	fb 1e       	adc	r15, r27
    acc += (int32_t)W_hn[7][15] * (int32_t)h_state[15];
    4db6:	2b 89       	ldd	r18, Y+19	; 0x13
    4db8:	3c 89       	ldd	r19, Y+20	; 0x14
    4dba:	a2 ed       	ldi	r26, 0xD2	; 210
    4dbc:	bf ef       	ldi	r27, 0xFF	; 255
    4dbe:	0e 94 ab 32 	call	0x6556	; 0x6556 <__mulhisi3>
    4dc2:	c6 0e       	add	r12, r22
    4dc4:	d7 1e       	adc	r13, r23
    4dc6:	e8 1e       	adc	r14, r24
    4dc8:	f9 1e       	adc	r15, r25
    acc >>= FRAC_BITS;
    4dca:	f6 e0       	ldi	r31, 0x06	; 6
    4dcc:	f5 94       	asr	r15
    4dce:	e7 94       	ror	r14
    4dd0:	d7 94       	ror	r13
    4dd2:	c7 94       	ror	r12
    4dd4:	fa 95       	dec	r31
    4dd6:	d1 f7       	brne	.-12     	; 0x4dcc <__stack+0x2bcd>
static inline int16_t fp_mul(int16_t a, int16_t b) {
    return (int16_t)(((int32_t)a * (int32_t)b) >> FRAC_BITS);
}

static inline int16_t fp_sat32(int32_t v) {
    if (v > FP_MAX) return FP_MAX;
    4dd8:	af ef       	ldi	r26, 0xFF	; 255
    4dda:	bf e7       	ldi	r27, 0x7F	; 127
    4ddc:	c1 14       	cp	r12, r1
    4dde:	90 e8       	ldi	r25, 0x80	; 128
    4de0:	d9 06       	cpc	r13, r25
    4de2:	e1 04       	cpc	r14, r1
    4de4:	f1 04       	cpc	r15, r1
    4de6:	54 f4       	brge	.+20     	; 0x4dfc <__stack+0x2bfd>
    if (v < FP_MIN) return FP_MIN;
    4de8:	c1 14       	cp	r12, r1
    4dea:	a0 e8       	ldi	r26, 0x80	; 128
    4dec:	da 06       	cpc	r13, r26
    4dee:	af ef       	ldi	r26, 0xFF	; 255
    4df0:	ea 06       	cpc	r14, r26
    4df2:	fa 06       	cpc	r15, r26
    4df4:	14 f4       	brge	.+4      	; 0x4dfa <__stack+0x2bfb>
    4df6:	0c 94 8e 32 	jmp	0x651c	; 0x651c <__stack+0x431d>
    return (int16_t)v;
    4dfa:	d6 01       	movw	r26, r12
// ---------------------------------------------------------------------------
// Fixed-point primitives  (kept as inline functions so avr-gcc inlines them
// and the assembly is one flat sequence of instructions)
// ---------------------------------------------------------------------------
static inline int16_t fp_mul(int16_t a, int16_t b) {
    return (int16_t)(((int32_t)a * (int32_t)b) >> FRAC_BITS);
    4dfc:	cb 57       	subi	r28, 0x7B	; 123
    4dfe:	de 4f       	sbci	r29, 0xFE	; 254
    4e00:	28 81       	ld	r18, Y
    4e02:	39 81       	ldd	r19, Y+1	; 0x01
    4e04:	c5 58       	subi	r28, 0x85	; 133
    4e06:	d1 40       	sbci	r29, 0x01	; 1
    4e08:	0e 94 ab 32 	call	0x6556	; 0x6556 <__mulhisi3>
    4e0c:	dc 01       	movw	r26, r24
    4e0e:	cb 01       	movw	r24, r22
    4e10:	26 e0       	ldi	r18, 0x06	; 6
    4e12:	b5 95       	asr	r27
    4e14:	a7 95       	ror	r26
    4e16:	97 95       	ror	r25
    4e18:	87 95       	ror	r24
    4e1a:	2a 95       	dec	r18
    4e1c:	d1 f7       	brne	.-12     	; 0x4e12 <__stack+0x2c13>
    acc += (int32_t)W_hn[7][13] * (int32_t)h_state[13];
    acc += (int32_t)W_hn[7][14] * (int32_t)h_state[14];
    acc += (int32_t)W_hn[7][15] * (int32_t)h_state[15];
    acc >>= FRAC_BITS;
    //   scale by r[7]
    acc = (int32_t)fp_mul(r[7], fp_sat32(acc));
    4e1e:	09 2e       	mov	r0, r25
    4e20:	00 0c       	add	r0, r0
    4e22:	aa 0b       	sbc	r26, r26
    4e24:	bb 0b       	sbc	r27, r27
    acc += (int32_t)W_in[7][58] * (int32_t)x[58];
    acc += (int32_t)W_in[7][59] * (int32_t)x[59];
    acc += (int32_t)W_in[7][60] * (int32_t)x[60];
    acc += (int32_t)W_in[7][61] * (int32_t)x[61];
    acc += (int32_t)W_in[7][62] * (int32_t)x[62];
    acc += (int32_t)W_in[7][63] * (int32_t)x[63];
    4e26:	87 5b       	subi	r24, 0xB7	; 183
    4e28:	97 4f       	sbci	r25, 0xF7	; 247
    4e2a:	af 4f       	sbci	r26, 0xFF	; 255
    4e2c:	bf 4f       	sbci	r27, 0xFF	; 255
    acc >>= FRAC_BITS;
    4e2e:	36 e0       	ldi	r19, 0x06	; 6
    4e30:	b5 95       	asr	r27
    4e32:	a7 95       	ror	r26
    4e34:	97 95       	ror	r25
    4e36:	87 95       	ror	r24
    4e38:	3a 95       	dec	r19
    4e3a:	d1 f7       	brne	.-12     	; 0x4e30 <__stack+0x2c31>
    n[7] = fp_tanh(fp_sat32(acc));
    4e3c:	0e 94 1a 01 	call	0x234	; 0x234 <_ZL7fp_tanhi>
    4e40:	29 96       	adiw	r28, 0x09	; 9
    4e42:	9f af       	std	Y+63, r25	; 0x3f
    4e44:	8e af       	std	Y+62, r24	; 0x3e
    4e46:	29 97       	sbiw	r28, 0x09	; 9

    // n[8]  -- recurrent term: acc_r = W_hn[8]@h + b_hn[8]
    acc = (int32_t)b_hn[8];
    acc += (int32_t)W_hn[8][0] * (int32_t)h_state[0];
    4e48:	27 e1       	ldi	r18, 0x17	; 23
    4e4a:	30 e0       	ldi	r19, 0x00	; 0
    4e4c:	ab 85       	ldd	r26, Y+11	; 0x0b
    4e4e:	bc 85       	ldd	r27, Y+12	; 0x0c
    4e50:	0e 94 c2 32 	call	0x6584	; 0x6584 <__usmulhisi3>
    4e54:	6b 01       	movw	r12, r22
    4e56:	7c 01       	movw	r14, r24
    4e58:	b4 e3       	ldi	r27, 0x34	; 52
    4e5a:	cb 0e       	add	r12, r27
    4e5c:	d1 1c       	adc	r13, r1
    4e5e:	e1 1c       	adc	r14, r1
    4e60:	f1 1c       	adc	r15, r1
    acc += (int32_t)W_hn[8][1] * (int32_t)h_state[1];
    4e62:	25 e3       	ldi	r18, 0x35	; 53
    4e64:	30 e0       	ldi	r19, 0x00	; 0
    4e66:	af 81       	ldd	r26, Y+7	; 0x07
    4e68:	b8 85       	ldd	r27, Y+8	; 0x08
    4e6a:	0e 94 c2 32 	call	0x6584	; 0x6584 <__usmulhisi3>
    4e6e:	c6 0e       	add	r12, r22
    4e70:	d7 1e       	adc	r13, r23
    4e72:	e8 1e       	adc	r14, r24
    4e74:	f9 1e       	adc	r15, r25
    acc += (int32_t)W_hn[8][2] * (int32_t)h_state[2];
    4e76:	26 e2       	ldi	r18, 0x26	; 38
    4e78:	30 e0       	ldi	r19, 0x00	; 0
    4e7a:	ad 89       	ldd	r26, Y+21	; 0x15
    4e7c:	be 89       	ldd	r27, Y+22	; 0x16
    4e7e:	0e 94 c2 32 	call	0x6584	; 0x6584 <__usmulhisi3>
    4e82:	c6 0e       	add	r12, r22
    4e84:	d7 1e       	adc	r13, r23
    4e86:	e8 1e       	adc	r14, r24
    4e88:	f9 1e       	adc	r15, r25
    acc += (int32_t)W_hn[8][3] * (int32_t)h_state[3];
    4e8a:	2d e1       	ldi	r18, 0x1D	; 29
    4e8c:	30 e0       	ldi	r19, 0x00	; 0
    4e8e:	d1 01       	movw	r26, r2
    4e90:	0e 94 c2 32 	call	0x6584	; 0x6584 <__usmulhisi3>
    4e94:	2b 01       	movw	r4, r22
    4e96:	3c 01       	movw	r6, r24
    4e98:	c4 0c       	add	r12, r4
    4e9a:	d5 1c       	adc	r13, r5
    4e9c:	e6 1c       	adc	r14, r6
    4e9e:	f7 1c       	adc	r15, r7
    acc += (int32_t)W_hn[8][4] * (int32_t)h_state[4];
    4ea0:	2d 81       	ldd	r18, Y+5	; 0x05
    4ea2:	3e 81       	ldd	r19, Y+6	; 0x06
    4ea4:	a0 ef       	ldi	r26, 0xF0	; 240
    4ea6:	bf ef       	ldi	r27, 0xFF	; 255
    4ea8:	0e 94 ab 32 	call	0x6556	; 0x6556 <__mulhisi3>
    4eac:	c6 0e       	add	r12, r22
    4eae:	d7 1e       	adc	r13, r23
    4eb0:	e8 1e       	adc	r14, r24
    4eb2:	f9 1e       	adc	r15, r25
    acc += (int32_t)W_hn[8][5] * (int32_t)h_state[5];
    4eb4:	2a e3       	ldi	r18, 0x3A	; 58
    4eb6:	30 e0       	ldi	r19, 0x00	; 0
    4eb8:	ad 85       	ldd	r26, Y+13	; 0x0d
    4eba:	be 85       	ldd	r27, Y+14	; 0x0e
    4ebc:	0e 94 c2 32 	call	0x6584	; 0x6584 <__usmulhisi3>
    4ec0:	c6 0e       	add	r12, r22
    4ec2:	d7 1e       	adc	r13, r23
    4ec4:	e8 1e       	adc	r14, r24
    4ec6:	f9 1e       	adc	r15, r25
    acc += (int32_t)W_hn[8][6] * (int32_t)h_state[6];
    4ec8:	27 e0       	ldi	r18, 0x07	; 7
    4eca:	30 e0       	ldi	r19, 0x00	; 0
    4ecc:	c9 56       	subi	r28, 0x69	; 105
    4ece:	de 4f       	sbci	r29, 0xFE	; 254
    4ed0:	a8 81       	ld	r26, Y
    4ed2:	b9 81       	ldd	r27, Y+1	; 0x01
    4ed4:	c7 59       	subi	r28, 0x97	; 151
    4ed6:	d1 40       	sbci	r29, 0x01	; 1
    4ed8:	0e 94 c2 32 	call	0x6584	; 0x6584 <__usmulhisi3>
    4edc:	c6 0e       	add	r12, r22
    4ede:	d7 1e       	adc	r13, r23
    4ee0:	e8 1e       	adc	r14, r24
    4ee2:	f9 1e       	adc	r15, r25
    acc += (int32_t)W_hn[8][7] * (int32_t)h_state[7];
    4ee4:	a9 89       	ldd	r26, Y+17	; 0x11
    4ee6:	ba 89       	ldd	r27, Y+18	; 0x12
    4ee8:	0e 94 c2 32 	call	0x6584	; 0x6584 <__usmulhisi3>
    4eec:	c6 0e       	add	r12, r22
    4eee:	d7 1e       	adc	r13, r23
    4ef0:	e8 1e       	adc	r14, r24
    4ef2:	f9 1e       	adc	r15, r25
    acc += (int32_t)W_hn[8][8] * (int32_t)h_state[8];
    4ef4:	2f 89       	ldd	r18, Y+23	; 0x17
    4ef6:	38 8d       	ldd	r19, Y+24	; 0x18
    4ef8:	a0 ed       	ldi	r26, 0xD0	; 208
    4efa:	bf ef       	ldi	r27, 0xFF	; 255
    4efc:	0e 94 ab 32 	call	0x6556	; 0x6556 <__mulhisi3>
    4f00:	c6 0e       	add	r12, r22
    4f02:	d7 1e       	adc	r13, r23
    4f04:	e8 1e       	adc	r14, r24
    4f06:	f9 1e       	adc	r15, r25
    acc += (int32_t)W_hn[8][9] * (int32_t)h_state[9];
    4f08:	29 85       	ldd	r18, Y+9	; 0x09
    4f0a:	3a 85       	ldd	r19, Y+10	; 0x0a
    4f0c:	a1 ec       	ldi	r26, 0xC1	; 193
    4f0e:	bf ef       	ldi	r27, 0xFF	; 255
    4f10:	0e 94 ab 32 	call	0x6556	; 0x6556 <__mulhisi3>
    4f14:	c6 0e       	add	r12, r22
    4f16:	d7 1e       	adc	r13, r23
    4f18:	e8 1e       	adc	r14, r24
    4f1a:	f9 1e       	adc	r15, r25
    acc += (int32_t)W_hn[8][10] * (int32_t)h_state[10];
    4f1c:	23 96       	adiw	r28, 0x03	; 3
    4f1e:	2c ad       	ldd	r18, Y+60	; 0x3c
    4f20:	3d ad       	ldd	r19, Y+61	; 0x3d
    4f22:	4e ad       	ldd	r20, Y+62	; 0x3e
    4f24:	5f ad       	ldd	r21, Y+63	; 0x3f
    4f26:	23 97       	sbiw	r28, 0x03	; 3
    4f28:	c2 0e       	add	r12, r18
    4f2a:	d3 1e       	adc	r13, r19
    4f2c:	e4 1e       	adc	r14, r20
    4f2e:	f5 1e       	adc	r15, r21
    acc += (int32_t)W_hn[8][11] * (int32_t)h_state[11];
    4f30:	25 e0       	ldi	r18, 0x05	; 5
    4f32:	30 e0       	ldi	r19, 0x00	; 0
    4f34:	a9 8d       	ldd	r26, Y+25	; 0x19
    4f36:	ba 8d       	ldd	r27, Y+26	; 0x1a
    4f38:	0e 94 c2 32 	call	0x6584	; 0x6584 <__usmulhisi3>
    4f3c:	c6 0e       	add	r12, r22
    4f3e:	d7 1e       	adc	r13, r23
    4f40:	e8 1e       	adc	r14, r24
    4f42:	f9 1e       	adc	r15, r25
    acc += (int32_t)W_hn[8][12] * (int32_t)h_state[12];
    4f44:	29 e3       	ldi	r18, 0x39	; 57
    4f46:	30 e0       	ldi	r19, 0x00	; 0
    4f48:	d8 01       	movw	r26, r16
    4f4a:	0e 94 c2 32 	call	0x6584	; 0x6584 <__usmulhisi3>
    4f4e:	c6 0e       	add	r12, r22
    4f50:	d7 1e       	adc	r13, r23
    4f52:	e8 1e       	adc	r14, r24
    4f54:	f9 1e       	adc	r15, r25
    acc += (int32_t)W_hn[8][13] * (int32_t)h_state[13];
    4f56:	2b 8d       	ldd	r18, Y+27	; 0x1b
    4f58:	3c 8d       	ldd	r19, Y+28	; 0x1c
    4f5a:	a7 ee       	ldi	r26, 0xE7	; 231
    4f5c:	bf ef       	ldi	r27, 0xFF	; 255
    4f5e:	0e 94 ab 32 	call	0x6556	; 0x6556 <__mulhisi3>
    4f62:	c6 0e       	add	r12, r22
    4f64:	d7 1e       	adc	r13, r23
    4f66:	e8 1e       	adc	r14, r24
    4f68:	f9 1e       	adc	r15, r25
    acc += (int32_t)W_hn[8][14] * (int32_t)h_state[14];
    4f6a:	c5 5c       	subi	r28, 0xC5	; 197
    4f6c:	de 4f       	sbci	r29, 0xFE	; 254
    4f6e:	88 81       	ld	r24, Y
    4f70:	99 81       	ldd	r25, Y+1	; 0x01
    4f72:	aa 81       	ldd	r26, Y+2	; 0x02
    4f74:	bb 81       	ldd	r27, Y+3	; 0x03
    4f76:	cb 53       	subi	r28, 0x3B	; 59
    4f78:	d1 40       	sbci	r29, 0x01	; 1
    4f7a:	c8 0e       	add	r12, r24
    4f7c:	d9 1e       	adc	r13, r25
    4f7e:	ea 1e       	adc	r14, r26
    4f80:	fb 1e       	adc	r15, r27
    acc += (int32_t)W_hn[8][15] * (int32_t)h_state[15];
    4f82:	24 e3       	ldi	r18, 0x34	; 52
    4f84:	30 e0       	ldi	r19, 0x00	; 0
    4f86:	ab 89       	ldd	r26, Y+19	; 0x13
    4f88:	bc 89       	ldd	r27, Y+20	; 0x14
    4f8a:	0e 94 c2 32 	call	0x6584	; 0x6584 <__usmulhisi3>
    4f8e:	c6 0e       	add	r12, r22
    4f90:	d7 1e       	adc	r13, r23
    4f92:	e8 1e       	adc	r14, r24
    4f94:	f9 1e       	adc	r15, r25
    acc >>= FRAC_BITS;
    4f96:	46 e0       	ldi	r20, 0x06	; 6
    4f98:	f5 94       	asr	r15
    4f9a:	e7 94       	ror	r14
    4f9c:	d7 94       	ror	r13
    4f9e:	c7 94       	ror	r12
    4fa0:	4a 95       	dec	r20
    4fa2:	d1 f7       	brne	.-12     	; 0x4f98 <__stack+0x2d99>
static inline int16_t fp_mul(int16_t a, int16_t b) {
    return (int16_t)(((int32_t)a * (int32_t)b) >> FRAC_BITS);
}

static inline int16_t fp_sat32(int32_t v) {
    if (v > FP_MAX) return FP_MAX;
    4fa4:	af ef       	ldi	r26, 0xFF	; 255
    4fa6:	bf e7       	ldi	r27, 0x7F	; 127
    4fa8:	c1 14       	cp	r12, r1
    4faa:	90 e8       	ldi	r25, 0x80	; 128
    4fac:	d9 06       	cpc	r13, r25
    4fae:	e1 04       	cpc	r14, r1
    4fb0:	f1 04       	cpc	r15, r1
    4fb2:	54 f4       	brge	.+20     	; 0x4fc8 <__stack+0x2dc9>
    if (v < FP_MIN) return FP_MIN;
    4fb4:	c1 14       	cp	r12, r1
    4fb6:	a0 e8       	ldi	r26, 0x80	; 128
    4fb8:	da 06       	cpc	r13, r26
    4fba:	af ef       	ldi	r26, 0xFF	; 255
    4fbc:	ea 06       	cpc	r14, r26
    4fbe:	fa 06       	cpc	r15, r26
    4fc0:	14 f4       	brge	.+4      	; 0x4fc6 <__stack+0x2dc7>
    4fc2:	0c 94 92 32 	jmp	0x6524	; 0x6524 <__stack+0x4325>
    return (int16_t)v;
    4fc6:	d6 01       	movw	r26, r12
// ---------------------------------------------------------------------------
// Fixed-point primitives  (kept as inline functions so avr-gcc inlines them
// and the assembly is one flat sequence of instructions)
// ---------------------------------------------------------------------------
static inline int16_t fp_mul(int16_t a, int16_t b) {
    return (int16_t)(((int32_t)a * (int32_t)b) >> FRAC_BITS);
    4fc8:	c9 57       	subi	r28, 0x79	; 121
    4fca:	de 4f       	sbci	r29, 0xFE	; 254
    4fcc:	28 81       	ld	r18, Y
    4fce:	39 81       	ldd	r19, Y+1	; 0x01
    4fd0:	c7 58       	subi	r28, 0x87	; 135
    4fd2:	d1 40       	sbci	r29, 0x01	; 1
    4fd4:	0e 94 ab 32 	call	0x6556	; 0x6556 <__mulhisi3>
    4fd8:	dc 01       	movw	r26, r24
    4fda:	cb 01       	movw	r24, r22
    4fdc:	56 e0       	ldi	r21, 0x06	; 6
    4fde:	b5 95       	asr	r27
    4fe0:	a7 95       	ror	r26
    4fe2:	97 95       	ror	r25
    4fe4:	87 95       	ror	r24
    4fe6:	5a 95       	dec	r21
    4fe8:	d1 f7       	brne	.-12     	; 0x4fde <__stack+0x2ddf>
    acc += (int32_t)W_hn[8][13] * (int32_t)h_state[13];
    acc += (int32_t)W_hn[8][14] * (int32_t)h_state[14];
    acc += (int32_t)W_hn[8][15] * (int32_t)h_state[15];
    acc >>= FRAC_BITS;
    //   scale by r[8]
    acc = (int32_t)fp_mul(r[8], fp_sat32(acc));
    4fea:	09 2e       	mov	r0, r25
    4fec:	00 0c       	add	r0, r0
    4fee:	aa 0b       	sbc	r26, r26
    4ff0:	bb 0b       	sbc	r27, r27
    acc += (int32_t)W_in[8][58] * (int32_t)x[58];
    acc += (int32_t)W_in[8][59] * (int32_t)x[59];
    acc += (int32_t)W_in[8][60] * (int32_t)x[60];
    acc += (int32_t)W_in[8][61] * (int32_t)x[61];
    acc += (int32_t)W_in[8][62] * (int32_t)x[62];
    acc += (int32_t)W_in[8][63] * (int32_t)x[63];
    4ff2:	80 55       	subi	r24, 0x50	; 80
    4ff4:	9d 41       	sbci	r25, 0x1D	; 29
    4ff6:	a1 09       	sbc	r26, r1
    4ff8:	b1 09       	sbc	r27, r1
    acc >>= FRAC_BITS;
    4ffa:	66 e0       	ldi	r22, 0x06	; 6
    4ffc:	b5 95       	asr	r27
    4ffe:	a7 95       	ror	r26
    5000:	97 95       	ror	r25
    5002:	87 95       	ror	r24
    5004:	6a 95       	dec	r22
    5006:	d1 f7       	brne	.-12     	; 0x4ffc <__stack+0x2dfd>
    n[8] = fp_tanh(fp_sat32(acc));
    5008:	0e 94 1a 01 	call	0x234	; 0x234 <_ZL7fp_tanhi>
    500c:	21 96       	adiw	r28, 0x01	; 1
    500e:	9f af       	std	Y+63, r25	; 0x3f
    5010:	8e af       	std	Y+62, r24	; 0x3e
    5012:	21 97       	sbiw	r28, 0x01	; 1

    // n[9]  -- recurrent term: acc_r = W_hn[9]@h + b_hn[9]
    acc = (int32_t)b_hn[9];
    acc += (int32_t)W_hn[9][0] * (int32_t)h_state[0];
    5014:	c5 5d       	subi	r28, 0xD5	; 213
    5016:	de 4f       	sbci	r29, 0xFE	; 254
    5018:	c8 80       	ld	r12, Y
    501a:	d9 80       	ldd	r13, Y+1	; 0x01
    501c:	ea 80       	ldd	r14, Y+2	; 0x02
    501e:	fb 80       	ldd	r15, Y+3	; 0x03
    5020:	cb 52       	subi	r28, 0x2B	; 43
    5022:	d1 40       	sbci	r29, 0x01	; 1
    5024:	b2 e0       	ldi	r27, 0x02	; 2
    5026:	cb 0e       	add	r12, r27
    5028:	d1 1c       	adc	r13, r1
    502a:	e1 1c       	adc	r14, r1
    502c:	f1 1c       	adc	r15, r1
    acc += (int32_t)W_hn[9][1] * (int32_t)h_state[1];
    502e:	27 96       	adiw	r28, 0x07	; 7
    5030:	2c ad       	ldd	r18, Y+60	; 0x3c
    5032:	3d ad       	ldd	r19, Y+61	; 0x3d
    5034:	4e ad       	ldd	r20, Y+62	; 0x3e
    5036:	5f ad       	ldd	r21, Y+63	; 0x3f
    5038:	27 97       	sbiw	r28, 0x07	; 7
    503a:	c2 0e       	add	r12, r18
    503c:	d3 1e       	adc	r13, r19
    503e:	e4 1e       	adc	r14, r20
    5040:	f5 1e       	adc	r15, r21
    acc += (int32_t)W_hn[9][2] * (int32_t)h_state[2];
    5042:	23 e1       	ldi	r18, 0x13	; 19
    5044:	30 e0       	ldi	r19, 0x00	; 0
    5046:	ad 89       	ldd	r26, Y+21	; 0x15
    5048:	be 89       	ldd	r27, Y+22	; 0x16
    504a:	0e 94 c2 32 	call	0x6584	; 0x6584 <__usmulhisi3>
    504e:	c6 0e       	add	r12, r22
    5050:	d7 1e       	adc	r13, r23
    5052:	e8 1e       	adc	r14, r24
    5054:	f9 1e       	adc	r15, r25
    acc += (int32_t)W_hn[9][3] * (int32_t)h_state[3];
    5056:	b1 01       	movw	r22, r2
    5058:	03 2c       	mov	r0, r3
    505a:	00 0c       	add	r0, r0
    505c:	88 0b       	sbc	r24, r24
    505e:	99 0b       	sbc	r25, r25
    5060:	66 0f       	add	r22, r22
    5062:	77 1f       	adc	r23, r23
    5064:	88 1f       	adc	r24, r24
    5066:	99 1f       	adc	r25, r25
    5068:	9b 01       	movw	r18, r22
    506a:	ac 01       	movw	r20, r24
    506c:	2c 0d       	add	r18, r12
    506e:	3d 1d       	adc	r19, r13
    5070:	4e 1d       	adc	r20, r14
    5072:	5f 1d       	adc	r21, r15
    5074:	27 96       	adiw	r28, 0x07	; 7
    5076:	2c af       	std	Y+60, r18	; 0x3c
    5078:	3d af       	std	Y+61, r19	; 0x3d
    507a:	4e af       	std	Y+62, r20	; 0x3e
    507c:	5f af       	std	Y+63, r21	; 0x3f
    507e:	27 97       	sbiw	r28, 0x07	; 7
    acc += (int32_t)W_hn[9][4] * (int32_t)h_state[4];
    5080:	2d 81       	ldd	r18, Y+5	; 0x05
    5082:	3e 81       	ldd	r19, Y+6	; 0x06
    5084:	a5 ed       	ldi	r26, 0xD5	; 213
    5086:	bf ef       	ldi	r27, 0xFF	; 255
    5088:	0e 94 ab 32 	call	0x6556	; 0x6556 <__mulhisi3>
    508c:	6b 01       	movw	r12, r22
    508e:	7c 01       	movw	r14, r24
    5090:	27 96       	adiw	r28, 0x07	; 7
    5092:	8c ad       	ldd	r24, Y+60	; 0x3c
    5094:	9d ad       	ldd	r25, Y+61	; 0x3d
    5096:	ae ad       	ldd	r26, Y+62	; 0x3e
    5098:	bf ad       	ldd	r27, Y+63	; 0x3f
    509a:	27 97       	sbiw	r28, 0x07	; 7
    509c:	8c 0d       	add	r24, r12
    509e:	9d 1d       	adc	r25, r13
    50a0:	ae 1d       	adc	r26, r14
    50a2:	bf 1d       	adc	r27, r15
    acc += (int32_t)W_hn[9][5] * (int32_t)h_state[5];
    50a4:	2b ad       	ldd	r18, Y+59	; 0x3b
    50a6:	3c ad       	ldd	r19, Y+60	; 0x3c
    50a8:	4d ad       	ldd	r20, Y+61	; 0x3d
    50aa:	5e ad       	ldd	r21, Y+62	; 0x3e
    50ac:	28 0f       	add	r18, r24
    50ae:	39 1f       	adc	r19, r25
    50b0:	4a 1f       	adc	r20, r26
    50b2:	5b 1f       	adc	r21, r27
    50b4:	2b af       	std	Y+59, r18	; 0x3b
    50b6:	3c af       	std	Y+60, r19	; 0x3c
    50b8:	4d af       	std	Y+61, r20	; 0x3d
    50ba:	5e af       	std	Y+62, r21	; 0x3e
    acc += (int32_t)W_hn[9][6] * (int32_t)h_state[6];
    50bc:	2b e2       	ldi	r18, 0x2B	; 43
    50be:	30 e0       	ldi	r19, 0x00	; 0
    50c0:	c9 56       	subi	r28, 0x69	; 105
    50c2:	de 4f       	sbci	r29, 0xFE	; 254
    50c4:	a8 81       	ld	r26, Y
    50c6:	b9 81       	ldd	r27, Y+1	; 0x01
    50c8:	c7 59       	subi	r28, 0x97	; 151
    50ca:	d1 40       	sbci	r29, 0x01	; 1
    50cc:	0e 94 c2 32 	call	0x6584	; 0x6584 <__usmulhisi3>
    50d0:	2b ad       	ldd	r18, Y+59	; 0x3b
    50d2:	3c ad       	ldd	r19, Y+60	; 0x3c
    50d4:	4d ad       	ldd	r20, Y+61	; 0x3d
    50d6:	5e ad       	ldd	r21, Y+62	; 0x3e
    50d8:	26 0f       	add	r18, r22
    50da:	37 1f       	adc	r19, r23
    50dc:	48 1f       	adc	r20, r24
    50de:	59 1f       	adc	r21, r25
    50e0:	2b af       	std	Y+59, r18	; 0x3b
    50e2:	3c af       	std	Y+60, r19	; 0x3c
    50e4:	4d af       	std	Y+61, r20	; 0x3d
    50e6:	5e af       	std	Y+62, r21	; 0x3e
    acc += (int32_t)W_hn[9][7] * (int32_t)h_state[7];
    50e8:	29 89       	ldd	r18, Y+17	; 0x11
    50ea:	3a 89       	ldd	r19, Y+18	; 0x12
    50ec:	a9 ed       	ldi	r26, 0xD9	; 217
    50ee:	bf ef       	ldi	r27, 0xFF	; 255
    50f0:	0e 94 ab 32 	call	0x6556	; 0x6556 <__mulhisi3>
    50f4:	2b ad       	ldd	r18, Y+59	; 0x3b
    50f6:	3c ad       	ldd	r19, Y+60	; 0x3c
    50f8:	4d ad       	ldd	r20, Y+61	; 0x3d
    50fa:	5e ad       	ldd	r21, Y+62	; 0x3e
    50fc:	62 0f       	add	r22, r18
    50fe:	73 1f       	adc	r23, r19
    5100:	84 1f       	adc	r24, r20
    5102:	95 1f       	adc	r25, r21
    acc += (int32_t)W_hn[9][8] * (int32_t)h_state[8];
    5104:	2f 8d       	ldd	r18, Y+31	; 0x1f
    5106:	38 a1       	ldd	r19, Y+32	; 0x20
    5108:	49 a1       	ldd	r20, Y+33	; 0x21
    510a:	5a a1       	ldd	r21, Y+34	; 0x22
    510c:	26 0f       	add	r18, r22
    510e:	37 1f       	adc	r19, r23
    5110:	48 1f       	adc	r20, r24
    5112:	59 1f       	adc	r21, r25
    5114:	2f 8f       	std	Y+31, r18	; 0x1f
    5116:	38 a3       	std	Y+32, r19	; 0x20
    5118:	49 a3       	std	Y+33, r20	; 0x21
    511a:	5a a3       	std	Y+34, r21	; 0x22
    acc += (int32_t)W_hn[9][9] * (int32_t)h_state[9];
    511c:	26 e2       	ldi	r18, 0x26	; 38
    511e:	30 e0       	ldi	r19, 0x00	; 0
    5120:	a9 85       	ldd	r26, Y+9	; 0x09
    5122:	ba 85       	ldd	r27, Y+10	; 0x0a
    5124:	0e 94 c2 32 	call	0x6584	; 0x6584 <__usmulhisi3>
    5128:	2f 8d       	ldd	r18, Y+31	; 0x1f
    512a:	38 a1       	ldd	r19, Y+32	; 0x20
    512c:	49 a1       	ldd	r20, Y+33	; 0x21
    512e:	5a a1       	ldd	r21, Y+34	; 0x22
    5130:	26 0f       	add	r18, r22
    5132:	37 1f       	adc	r19, r23
    5134:	48 1f       	adc	r20, r24
    5136:	59 1f       	adc	r21, r25
    5138:	2f 8f       	std	Y+31, r18	; 0x1f
    513a:	38 a3       	std	Y+32, r19	; 0x20
    513c:	49 a3       	std	Y+33, r20	; 0x21
    513e:	5a a3       	std	Y+34, r21	; 0x22
    acc += (int32_t)W_hn[9][10] * (int32_t)h_state[10];
    5140:	2d e2       	ldi	r18, 0x2D	; 45
    5142:	30 e0       	ldi	r19, 0x00	; 0
    5144:	af 85       	ldd	r26, Y+15	; 0x0f
    5146:	b8 89       	ldd	r27, Y+16	; 0x10
    5148:	0e 94 c2 32 	call	0x6584	; 0x6584 <__usmulhisi3>
    514c:	2f 8d       	ldd	r18, Y+31	; 0x1f
    514e:	38 a1       	ldd	r19, Y+32	; 0x20
    5150:	49 a1       	ldd	r20, Y+33	; 0x21
    5152:	5a a1       	ldd	r21, Y+34	; 0x22
    5154:	26 0f       	add	r18, r22
    5156:	37 1f       	adc	r19, r23
    5158:	48 1f       	adc	r20, r24
    515a:	59 1f       	adc	r21, r25
    515c:	2f 8f       	std	Y+31, r18	; 0x1f
    515e:	38 a3       	std	Y+32, r19	; 0x20
    5160:	49 a3       	std	Y+33, r20	; 0x21
    5162:	5a a3       	std	Y+34, r21	; 0x22
    acc += (int32_t)W_hn[9][11] * (int32_t)h_state[11];
    5164:	2d e2       	ldi	r18, 0x2D	; 45
    5166:	30 e0       	ldi	r19, 0x00	; 0
    5168:	a9 8d       	ldd	r26, Y+25	; 0x19
    516a:	ba 8d       	ldd	r27, Y+26	; 0x1a
    516c:	0e 94 c2 32 	call	0x6584	; 0x6584 <__usmulhisi3>
    5170:	2f 8d       	ldd	r18, Y+31	; 0x1f
    5172:	38 a1       	ldd	r19, Y+32	; 0x20
    5174:	49 a1       	ldd	r20, Y+33	; 0x21
    5176:	5a a1       	ldd	r21, Y+34	; 0x22
    5178:	26 0f       	add	r18, r22
    517a:	37 1f       	adc	r19, r23
    517c:	48 1f       	adc	r20, r24
    517e:	59 1f       	adc	r21, r25
    5180:	2f 8f       	std	Y+31, r18	; 0x1f
    5182:	38 a3       	std	Y+32, r19	; 0x20
    5184:	49 a3       	std	Y+33, r20	; 0x21
    5186:	5a a3       	std	Y+34, r21	; 0x22
    acc += (int32_t)W_hn[9][12] * (int32_t)h_state[12];
    5188:	27 e3       	ldi	r18, 0x37	; 55
    518a:	30 e0       	ldi	r19, 0x00	; 0
    518c:	d8 01       	movw	r26, r16
    518e:	0e 94 c2 32 	call	0x6584	; 0x6584 <__usmulhisi3>
    5192:	2f 8d       	ldd	r18, Y+31	; 0x1f
    5194:	38 a1       	ldd	r19, Y+32	; 0x20
    5196:	49 a1       	ldd	r20, Y+33	; 0x21
    5198:	5a a1       	ldd	r21, Y+34	; 0x22
    519a:	62 0f       	add	r22, r18
    519c:	73 1f       	adc	r23, r19
    519e:	84 1f       	adc	r24, r20
    51a0:	95 1f       	adc	r25, r21
    acc += (int32_t)W_hn[9][13] * (int32_t)h_state[13];
    51a2:	2f a5       	ldd	r18, Y+47	; 0x2f
    51a4:	38 a9       	ldd	r19, Y+48	; 0x30
    51a6:	49 a9       	ldd	r20, Y+49	; 0x31
    51a8:	5a a9       	ldd	r21, Y+50	; 0x32
    51aa:	26 0f       	add	r18, r22
    51ac:	37 1f       	adc	r19, r23
    51ae:	48 1f       	adc	r20, r24
    51b0:	59 1f       	adc	r21, r25
    51b2:	2f a7       	std	Y+47, r18	; 0x2f
    51b4:	38 ab       	std	Y+48, r19	; 0x30
    51b6:	49 ab       	std	Y+49, r20	; 0x31
    51b8:	5a ab       	std	Y+50, r21	; 0x32
    acc += (int32_t)W_hn[9][14] * (int32_t)h_state[14];
    51ba:	2d 8d       	ldd	r18, Y+29	; 0x1d
    51bc:	3e 8d       	ldd	r19, Y+30	; 0x1e
    51be:	ab ef       	ldi	r26, 0xFB	; 251
    51c0:	bf ef       	ldi	r27, 0xFF	; 255
    51c2:	0e 94 ab 32 	call	0x6556	; 0x6556 <__mulhisi3>
    51c6:	2f a5       	ldd	r18, Y+47	; 0x2f
    51c8:	38 a9       	ldd	r19, Y+48	; 0x30
    51ca:	49 a9       	ldd	r20, Y+49	; 0x31
    51cc:	5a a9       	ldd	r21, Y+50	; 0x32
    51ce:	26 0f       	add	r18, r22
    51d0:	37 1f       	adc	r19, r23
    51d2:	48 1f       	adc	r20, r24
    51d4:	59 1f       	adc	r21, r25
    51d6:	2f a7       	std	Y+47, r18	; 0x2f
    51d8:	38 ab       	std	Y+48, r19	; 0x30
    51da:	49 ab       	std	Y+49, r20	; 0x31
    51dc:	5a ab       	std	Y+50, r21	; 0x32
    acc += (int32_t)W_hn[9][15] * (int32_t)h_state[15];
    51de:	26 e0       	ldi	r18, 0x06	; 6
    51e0:	30 e0       	ldi	r19, 0x00	; 0
    51e2:	ab 89       	ldd	r26, Y+19	; 0x13
    51e4:	bc 89       	ldd	r27, Y+20	; 0x14
    51e6:	0e 94 c2 32 	call	0x6584	; 0x6584 <__usmulhisi3>
    51ea:	2f a5       	ldd	r18, Y+47	; 0x2f
    51ec:	38 a9       	ldd	r19, Y+48	; 0x30
    51ee:	49 a9       	ldd	r20, Y+49	; 0x31
    51f0:	5a a9       	ldd	r21, Y+50	; 0x32
    51f2:	26 0f       	add	r18, r22
    51f4:	37 1f       	adc	r19, r23
    51f6:	48 1f       	adc	r20, r24
    51f8:	59 1f       	adc	r21, r25
    51fa:	da 01       	movw	r26, r20
    51fc:	c9 01       	movw	r24, r18
    acc >>= FRAC_BITS;
    51fe:	f6 e0       	ldi	r31, 0x06	; 6
    5200:	b5 95       	asr	r27
    5202:	a7 95       	ror	r26
    5204:	97 95       	ror	r25
    5206:	87 95       	ror	r24
    5208:	fa 95       	dec	r31
    520a:	d1 f7       	brne	.-12     	; 0x5200 <__stack+0x3001>
static inline int16_t fp_mul(int16_t a, int16_t b) {
    return (int16_t)(((int32_t)a * (int32_t)b) >> FRAC_BITS);
}

static inline int16_t fp_sat32(int32_t v) {
    if (v > FP_MAX) return FP_MAX;
    520c:	81 15       	cp	r24, r1
    520e:	30 e8       	ldi	r19, 0x80	; 128
    5210:	93 07       	cpc	r25, r19
    5212:	a1 05       	cpc	r26, r1
    5214:	b1 05       	cpc	r27, r1
    5216:	14 f0       	brlt	.+4      	; 0x521c <__stack+0x301d>
    5218:	0c 94 96 32 	jmp	0x652c	; 0x652c <__stack+0x432d>
    if (v < FP_MIN) return FP_MIN;
    521c:	81 15       	cp	r24, r1
    521e:	40 e8       	ldi	r20, 0x80	; 128
    5220:	94 07       	cpc	r25, r20
    5222:	4f ef       	ldi	r20, 0xFF	; 255
    5224:	a4 07       	cpc	r26, r20
    5226:	b4 07       	cpc	r27, r20
    5228:	14 f4       	brge	.+4      	; 0x522e <__stack+0x302f>
    522a:	0c 94 9a 32 	jmp	0x6534	; 0x6534 <__stack+0x4335>
    return (int16_t)v;
    522e:	dc 01       	movw	r26, r24
// ---------------------------------------------------------------------------
// Fixed-point primitives  (kept as inline functions so avr-gcc inlines them
// and the assembly is one flat sequence of instructions)
// ---------------------------------------------------------------------------
static inline int16_t fp_mul(int16_t a, int16_t b) {
    return (int16_t)(((int32_t)a * (int32_t)b) >> FRAC_BITS);
    5230:	c7 57       	subi	r28, 0x77	; 119
    5232:	de 4f       	sbci	r29, 0xFE	; 254
    5234:	28 81       	ld	r18, Y
    5236:	39 81       	ldd	r19, Y+1	; 0x01
    5238:	c9 58       	subi	r28, 0x89	; 137
    523a:	d1 40       	sbci	r29, 0x01	; 1
    523c:	0e 94 ab 32 	call	0x6556	; 0x6556 <__mulhisi3>
    5240:	dc 01       	movw	r26, r24
    5242:	cb 01       	movw	r24, r22
    5244:	26 e0       	ldi	r18, 0x06	; 6
    5246:	b5 95       	asr	r27
    5248:	a7 95       	ror	r26
    524a:	97 95       	ror	r25
    524c:	87 95       	ror	r24
    524e:	2a 95       	dec	r18
    5250:	d1 f7       	brne	.-12     	; 0x5246 <__stack+0x3047>
    acc += (int32_t)W_hn[9][13] * (int32_t)h_state[13];
    acc += (int32_t)W_hn[9][14] * (int32_t)h_state[14];
    acc += (int32_t)W_hn[9][15] * (int32_t)h_state[15];
    acc >>= FRAC_BITS;
    //   scale by r[9]
    acc = (int32_t)fp_mul(r[9], fp_sat32(acc));
    5252:	09 2e       	mov	r0, r25
    5254:	00 0c       	add	r0, r0
    5256:	aa 0b       	sbc	r26, r26
    5258:	bb 0b       	sbc	r27, r27
    acc += (int32_t)W_in[9][58] * (int32_t)x[58];
    acc += (int32_t)W_in[9][59] * (int32_t)x[59];
    acc += (int32_t)W_in[9][60] * (int32_t)x[60];
    acc += (int32_t)W_in[9][61] * (int32_t)x[61];
    acc += (int32_t)W_in[9][62] * (int32_t)x[62];
    acc += (int32_t)W_in[9][63] * (int32_t)x[63];
    525a:	89 56       	subi	r24, 0x69	; 105
    525c:	9b 40       	sbci	r25, 0x0B	; 11
    525e:	a1 09       	sbc	r26, r1
    5260:	b1 09       	sbc	r27, r1
    acc >>= FRAC_BITS;
    5262:	36 e0       	ldi	r19, 0x06	; 6
    5264:	b5 95       	asr	r27
    5266:	a7 95       	ror	r26
    5268:	97 95       	ror	r25
    526a:	87 95       	ror	r24
    526c:	3a 95       	dec	r19
    526e:	d1 f7       	brne	.-12     	; 0x5264 <__stack+0x3065>
    n[9] = fp_tanh(fp_sat32(acc));
    5270:	0e 94 1a 01 	call	0x234	; 0x234 <_ZL7fp_tanhi>
    5274:	98 a3       	std	Y+32, r25	; 0x20
    5276:	8f 8f       	std	Y+31, r24	; 0x1f

    // n[10]  -- recurrent term: acc_r = W_hn[10]@h + b_hn[10]
    acc = (int32_t)b_hn[10];
    acc += (int32_t)W_hn[10][0] * (int32_t)h_state[0];
    5278:	2b 85       	ldd	r18, Y+11	; 0x0b
    527a:	3c 85       	ldd	r19, Y+12	; 0x0c
    527c:	a5 ee       	ldi	r26, 0xE5	; 229
    527e:	bf ef       	ldi	r27, 0xFF	; 255
    5280:	0e 94 ab 32 	call	0x6556	; 0x6556 <__mulhisi3>
    5284:	63 51       	subi	r22, 0x13	; 19
    5286:	71 09       	sbc	r23, r1
    5288:	81 09       	sbc	r24, r1
    528a:	91 09       	sbc	r25, r1
    acc += (int32_t)W_hn[10][1] * (int32_t)h_state[1];
    528c:	2b a1       	ldd	r18, Y+35	; 0x23
    528e:	3c a1       	ldd	r19, Y+36	; 0x24
    5290:	4d a1       	ldd	r20, Y+37	; 0x25
    5292:	5e a1       	ldd	r21, Y+38	; 0x26
    5294:	26 0f       	add	r18, r22
    5296:	37 1f       	adc	r19, r23
    5298:	48 1f       	adc	r20, r24
    529a:	59 1f       	adc	r21, r25
    529c:	2b a3       	std	Y+35, r18	; 0x23
    529e:	3c a3       	std	Y+36, r19	; 0x24
    52a0:	4d a3       	std	Y+37, r20	; 0x25
    52a2:	5e a3       	std	Y+38, r21	; 0x26
    acc += (int32_t)W_hn[10][2] * (int32_t)h_state[2];
    52a4:	2d 89       	ldd	r18, Y+21	; 0x15
    52a6:	3e 89       	ldd	r19, Y+22	; 0x16
    52a8:	ad ec       	ldi	r26, 0xCD	; 205
    52aa:	bf ef       	ldi	r27, 0xFF	; 255
    52ac:	0e 94 ab 32 	call	0x6556	; 0x6556 <__mulhisi3>
    52b0:	2b a1       	ldd	r18, Y+35	; 0x23
    52b2:	3c a1       	ldd	r19, Y+36	; 0x24
    52b4:	4d a1       	ldd	r20, Y+37	; 0x25
    52b6:	5e a1       	ldd	r21, Y+38	; 0x26
    52b8:	62 0f       	add	r22, r18
    52ba:	73 1f       	adc	r23, r19
    52bc:	84 1f       	adc	r24, r20
    52be:	95 1f       	adc	r25, r21
    acc += (int32_t)W_hn[10][3] * (int32_t)h_state[3];
    52c0:	46 0e       	add	r4, r22
    52c2:	57 1e       	adc	r5, r23
    52c4:	68 1e       	adc	r6, r24
    52c6:	79 1e       	adc	r7, r25
    acc += (int32_t)W_hn[10][4] * (int32_t)h_state[4];
    52c8:	2d 81       	ldd	r18, Y+5	; 0x05
    52ca:	3e 81       	ldd	r19, Y+6	; 0x06
    52cc:	ae ef       	ldi	r26, 0xFE	; 254
    52ce:	bf ef       	ldi	r27, 0xFF	; 255
    52d0:	0e 94 ab 32 	call	0x6556	; 0x6556 <__mulhisi3>
    52d4:	46 0e       	add	r4, r22
    52d6:	57 1e       	adc	r5, r23
    52d8:	68 1e       	adc	r6, r24
    52da:	79 1e       	adc	r7, r25
    acc += (int32_t)W_hn[10][5] * (int32_t)h_state[5];
    52dc:	c9 5f       	subi	r28, 0xF9	; 249
    52de:	de 4f       	sbci	r29, 0xFE	; 254
    52e0:	88 81       	ld	r24, Y
    52e2:	99 81       	ldd	r25, Y+1	; 0x01
    52e4:	aa 81       	ldd	r26, Y+2	; 0x02
    52e6:	bb 81       	ldd	r27, Y+3	; 0x03
    52e8:	c7 50       	subi	r28, 0x07	; 7
    52ea:	d1 40       	sbci	r29, 0x01	; 1
    52ec:	48 0e       	add	r4, r24
    52ee:	59 1e       	adc	r5, r25
    52f0:	6a 1e       	adc	r6, r26
    52f2:	7b 1e       	adc	r7, r27
    acc += (int32_t)W_hn[10][6] * (int32_t)h_state[6];
    52f4:	c9 56       	subi	r28, 0x69	; 105
    52f6:	de 4f       	sbci	r29, 0xFE	; 254
    52f8:	28 81       	ld	r18, Y
    52fa:	39 81       	ldd	r19, Y+1	; 0x01
    52fc:	c7 59       	subi	r28, 0x97	; 151
    52fe:	d1 40       	sbci	r29, 0x01	; 1
    5300:	a0 ed       	ldi	r26, 0xD0	; 208
    5302:	bf ef       	ldi	r27, 0xFF	; 255
    5304:	0e 94 ab 32 	call	0x6556	; 0x6556 <__mulhisi3>
    5308:	46 0e       	add	r4, r22
    530a:	57 1e       	adc	r5, r23
    530c:	68 1e       	adc	r6, r24
    530e:	79 1e       	adc	r7, r25
    acc += (int32_t)W_hn[10][7] * (int32_t)h_state[7];
    5310:	24 e1       	ldi	r18, 0x14	; 20
    5312:	30 e0       	ldi	r19, 0x00	; 0
    5314:	a9 89       	ldd	r26, Y+17	; 0x11
    5316:	ba 89       	ldd	r27, Y+18	; 0x12
    5318:	0e 94 c2 32 	call	0x6584	; 0x6584 <__usmulhisi3>
    531c:	46 0e       	add	r4, r22
    531e:	57 1e       	adc	r5, r23
    5320:	68 1e       	adc	r6, r24
    5322:	79 1e       	adc	r7, r25
    acc += (int32_t)W_hn[10][8] * (int32_t)h_state[8];
    5324:	2f 89       	ldd	r18, Y+23	; 0x17
    5326:	38 8d       	ldd	r19, Y+24	; 0x18
    5328:	ad ec       	ldi	r26, 0xCD	; 205
    532a:	bf ef       	ldi	r27, 0xFF	; 255
    532c:	0e 94 ab 32 	call	0x6556	; 0x6556 <__mulhisi3>
    5330:	46 0e       	add	r4, r22
    5332:	57 1e       	adc	r5, r23
    5334:	68 1e       	adc	r6, r24
    5336:	79 1e       	adc	r7, r25
    acc += (int32_t)W_hn[10][9] * (int32_t)h_state[9];
    5338:	2f e0       	ldi	r18, 0x0F	; 15
    533a:	30 e0       	ldi	r19, 0x00	; 0
    533c:	a9 85       	ldd	r26, Y+9	; 0x09
    533e:	ba 85       	ldd	r27, Y+10	; 0x0a
    5340:	0e 94 c2 32 	call	0x6584	; 0x6584 <__usmulhisi3>
    5344:	46 0e       	add	r4, r22
    5346:	57 1e       	adc	r5, r23
    5348:	68 1e       	adc	r6, r24
    534a:	79 1e       	adc	r7, r25
    acc += (int32_t)W_hn[10][10] * (int32_t)h_state[10];
    534c:	23 e3       	ldi	r18, 0x33	; 51
    534e:	30 e0       	ldi	r19, 0x00	; 0
    5350:	af 85       	ldd	r26, Y+15	; 0x0f
    5352:	b8 89       	ldd	r27, Y+16	; 0x10
    5354:	0e 94 c2 32 	call	0x6584	; 0x6584 <__usmulhisi3>
    5358:	46 0e       	add	r4, r22
    535a:	57 1e       	adc	r5, r23
    535c:	68 1e       	adc	r6, r24
    535e:	79 1e       	adc	r7, r25
    acc += (int32_t)W_hn[10][11] * (int32_t)h_state[11];
    5360:	29 8d       	ldd	r18, Y+25	; 0x19
    5362:	3a 8d       	ldd	r19, Y+26	; 0x1a
    5364:	a9 ee       	ldi	r26, 0xE9	; 233
    5366:	bf ef       	ldi	r27, 0xFF	; 255
    5368:	0e 94 ab 32 	call	0x6556	; 0x6556 <__mulhisi3>
    536c:	46 0e       	add	r4, r22
    536e:	57 1e       	adc	r5, r23
    5370:	68 1e       	adc	r6, r24
    5372:	79 1e       	adc	r7, r25
    acc += (int32_t)W_hn[10][12] * (int32_t)h_state[12];
    5374:	98 01       	movw	r18, r16
    5376:	aa ef       	ldi	r26, 0xFA	; 250
    5378:	bf ef       	ldi	r27, 0xFF	; 255
    537a:	0e 94 ab 32 	call	0x6556	; 0x6556 <__mulhisi3>
    537e:	46 0e       	add	r4, r22
    5380:	57 1e       	adc	r5, r23
    5382:	68 1e       	adc	r6, r24
    5384:	79 1e       	adc	r7, r25
    acc += (int32_t)W_hn[10][13] * (int32_t)h_state[13];
    5386:	2f e0       	ldi	r18, 0x0F	; 15
    5388:	30 e0       	ldi	r19, 0x00	; 0
    538a:	ab 8d       	ldd	r26, Y+27	; 0x1b
    538c:	bc 8d       	ldd	r27, Y+28	; 0x1c
    538e:	0e 94 c2 32 	call	0x6584	; 0x6584 <__usmulhisi3>
    5392:	46 0e       	add	r4, r22
    5394:	57 1e       	adc	r5, r23
    5396:	68 1e       	adc	r6, r24
    5398:	79 1e       	adc	r7, r25
    acc += (int32_t)W_hn[10][14] * (int32_t)h_state[14];
    539a:	ef 96       	adiw	r28, 0x3f	; 63
    539c:	2c ad       	ldd	r18, Y+60	; 0x3c
    539e:	3d ad       	ldd	r19, Y+61	; 0x3d
    53a0:	4e ad       	ldd	r20, Y+62	; 0x3e
    53a2:	5f ad       	ldd	r21, Y+63	; 0x3f
    53a4:	ef 97       	sbiw	r28, 0x3f	; 63
    53a6:	42 0e       	add	r4, r18
    53a8:	53 1e       	adc	r5, r19
    53aa:	64 1e       	adc	r6, r20
    53ac:	75 1e       	adc	r7, r21
    acc += (int32_t)W_hn[10][15] * (int32_t)h_state[15];
    53ae:	6b 96       	adiw	r28, 0x1b	; 27
    53b0:	8c ad       	ldd	r24, Y+60	; 0x3c
    53b2:	9d ad       	ldd	r25, Y+61	; 0x3d
    53b4:	ae ad       	ldd	r26, Y+62	; 0x3e
    53b6:	bf ad       	ldd	r27, Y+63	; 0x3f
    53b8:	6b 97       	sbiw	r28, 0x1b	; 27
    53ba:	48 0e       	add	r4, r24
    53bc:	59 1e       	adc	r5, r25
    53be:	6a 1e       	adc	r6, r26
    53c0:	7b 1e       	adc	r7, r27
    acc >>= FRAC_BITS;
    53c2:	46 e0       	ldi	r20, 0x06	; 6
    53c4:	75 94       	asr	r7
    53c6:	67 94       	ror	r6
    53c8:	57 94       	ror	r5
    53ca:	47 94       	ror	r4
    53cc:	4a 95       	dec	r20
    53ce:	d1 f7       	brne	.-12     	; 0x53c4 <__stack+0x31c5>
static inline int16_t fp_mul(int16_t a, int16_t b) {
    return (int16_t)(((int32_t)a * (int32_t)b) >> FRAC_BITS);
}

static inline int16_t fp_sat32(int32_t v) {
    if (v > FP_MAX) return FP_MAX;
    53d0:	af ef       	ldi	r26, 0xFF	; 255
    53d2:	bf e7       	ldi	r27, 0x7F	; 127
    53d4:	41 14       	cp	r4, r1
    53d6:	90 e8       	ldi	r25, 0x80	; 128
    53d8:	59 06       	cpc	r5, r25
    53da:	61 04       	cpc	r6, r1
    53dc:	71 04       	cpc	r7, r1
    53de:	54 f4       	brge	.+20     	; 0x53f4 <__stack+0x31f5>
    if (v < FP_MIN) return FP_MIN;
    53e0:	41 14       	cp	r4, r1
    53e2:	a0 e8       	ldi	r26, 0x80	; 128
    53e4:	5a 06       	cpc	r5, r26
    53e6:	af ef       	ldi	r26, 0xFF	; 255
    53e8:	6a 06       	cpc	r6, r26
    53ea:	7a 06       	cpc	r7, r26
    53ec:	14 f4       	brge	.+4      	; 0x53f2 <__stack+0x31f3>
    53ee:	0c 94 9e 32 	jmp	0x653c	; 0x653c <__stack+0x433d>
    return (int16_t)v;
    53f2:	d2 01       	movw	r26, r4
// ---------------------------------------------------------------------------
// Fixed-point primitives  (kept as inline functions so avr-gcc inlines them
// and the assembly is one flat sequence of instructions)
// ---------------------------------------------------------------------------
static inline int16_t fp_mul(int16_t a, int16_t b) {
    return (int16_t)(((int32_t)a * (int32_t)b) >> FRAC_BITS);
    53f4:	c5 57       	subi	r28, 0x75	; 117
    53f6:	de 4f       	sbci	r29, 0xFE	; 254
    53f8:	28 81       	ld	r18, Y
    53fa:	39 81       	ldd	r19, Y+1	; 0x01
    53fc:	cb 58       	subi	r28, 0x8B	; 139
    53fe:	d1 40       	sbci	r29, 0x01	; 1
    5400:	0e 94 ab 32 	call	0x6556	; 0x6556 <__mulhisi3>
    5404:	dc 01       	movw	r26, r24
    5406:	cb 01       	movw	r24, r22
    5408:	e6 e0       	ldi	r30, 0x06	; 6
    540a:	b5 95       	asr	r27
    540c:	a7 95       	ror	r26
    540e:	97 95       	ror	r25
    5410:	87 95       	ror	r24
    5412:	ea 95       	dec	r30
    5414:	d1 f7       	brne	.-12     	; 0x540a <__stack+0x320b>
    acc += (int32_t)W_hn[10][13] * (int32_t)h_state[13];
    acc += (int32_t)W_hn[10][14] * (int32_t)h_state[14];
    acc += (int32_t)W_hn[10][15] * (int32_t)h_state[15];
    acc >>= FRAC_BITS;
    //   scale by r[10]
    acc = (int32_t)fp_mul(r[10], fp_sat32(acc));
    5416:	09 2e       	mov	r0, r25
    5418:	00 0c       	add	r0, r0
    541a:	aa 0b       	sbc	r26, r26
    541c:	bb 0b       	sbc	r27, r27
    acc += (int32_t)W_in[10][58] * (int32_t)x[58];
    acc += (int32_t)W_in[10][59] * (int32_t)x[59];
    acc += (int32_t)W_in[10][60] * (int32_t)x[60];
    acc += (int32_t)W_in[10][61] * (int32_t)x[61];
    acc += (int32_t)W_in[10][62] * (int32_t)x[62];
    acc += (int32_t)W_in[10][63] * (int32_t)x[63];
    541e:	8a 59       	subi	r24, 0x9A	; 154
    5420:	93 4e       	sbci	r25, 0xE3	; 227
    5422:	af 4f       	sbci	r26, 0xFF	; 255
    5424:	bf 4f       	sbci	r27, 0xFF	; 255
    acc >>= FRAC_BITS;
    5426:	f6 e0       	ldi	r31, 0x06	; 6
    5428:	b5 95       	asr	r27
    542a:	a7 95       	ror	r26
    542c:	97 95       	ror	r25
    542e:	87 95       	ror	r24
    5430:	fa 95       	dec	r31
    5432:	d1 f7       	brne	.-12     	; 0x5428 <__stack+0x3229>
    n[10] = fp_tanh(fp_sat32(acc));
    5434:	0e 94 1a 01 	call	0x234	; 0x234 <_ZL7fp_tanhi>
    5438:	98 ab       	std	Y+48, r25	; 0x30
    543a:	8f a7       	std	Y+47, r24	; 0x2f

    // n[11]  -- recurrent term: acc_r = W_hn[11]@h + b_hn[11]
    acc = (int32_t)b_hn[11];
    acc += (int32_t)W_hn[11][0] * (int32_t)h_state[0];
    543c:	4b a8       	ldd	r4, Y+51	; 0x33
    543e:	5c a8       	ldd	r5, Y+52	; 0x34
    5440:	6d a8       	ldd	r6, Y+53	; 0x35
    5442:	7e a8       	ldd	r7, Y+54	; 0x36
    5444:	bf e2       	ldi	r27, 0x2F	; 47
    5446:	4b 0e       	add	r4, r27
    5448:	51 1c       	adc	r5, r1
    544a:	61 1c       	adc	r6, r1
    544c:	71 1c       	adc	r7, r1
    acc += (int32_t)W_hn[11][1] * (int32_t)h_state[1];
    544e:	ab 96       	adiw	r28, 0x2b	; 43
    5450:	2c ad       	ldd	r18, Y+60	; 0x3c
    5452:	3d ad       	ldd	r19, Y+61	; 0x3d
    5454:	4e ad       	ldd	r20, Y+62	; 0x3e
    5456:	5f ad       	ldd	r21, Y+63	; 0x3f
    5458:	ab 97       	sbiw	r28, 0x2b	; 43
    545a:	42 0e       	add	r4, r18
    545c:	53 1e       	adc	r5, r19
    545e:	64 1e       	adc	r6, r20
    5460:	75 1e       	adc	r7, r21
    acc += (int32_t)W_hn[11][2] * (int32_t)h_state[2];
    5462:	cd 56       	subi	r28, 0x6D	; 109
    5464:	df 4f       	sbci	r29, 0xFF	; 255
    5466:	88 81       	ld	r24, Y
    5468:	99 81       	ldd	r25, Y+1	; 0x01
    546a:	aa 81       	ldd	r26, Y+2	; 0x02
    546c:	bb 81       	ldd	r27, Y+3	; 0x03
    546e:	c3 59       	subi	r28, 0x93	; 147
    5470:	d0 40       	sbci	r29, 0x00	; 0
    5472:	48 0e       	add	r4, r24
    5474:	59 1e       	adc	r5, r25
    5476:	6a 1e       	adc	r6, r26
    5478:	7b 1e       	adc	r7, r27
    acc += (int32_t)W_hn[11][3] * (int32_t)h_state[3];
    547a:	91 01       	movw	r18, r2
    547c:	a7 ef       	ldi	r26, 0xF7	; 247
    547e:	bf ef       	ldi	r27, 0xFF	; 255
    5480:	0e 94 ab 32 	call	0x6556	; 0x6556 <__mulhisi3>
    5484:	46 0e       	add	r4, r22
    5486:	57 1e       	adc	r5, r23
    5488:	68 1e       	adc	r6, r24
    548a:	79 1e       	adc	r7, r25
    acc += (int32_t)W_hn[11][4] * (int32_t)h_state[4];
    548c:	2d 81       	ldd	r18, Y+5	; 0x05
    548e:	3e 81       	ldd	r19, Y+6	; 0x06
    5490:	a1 ec       	ldi	r26, 0xC1	; 193
    5492:	bf ef       	ldi	r27, 0xFF	; 255
    5494:	0e 94 ab 32 	call	0x6556	; 0x6556 <__mulhisi3>
    5498:	46 0e       	add	r4, r22
    549a:	57 1e       	adc	r5, r23
    549c:	68 1e       	adc	r6, r24
    549e:	79 1e       	adc	r7, r25
    acc += (int32_t)W_hn[11][5] * (int32_t)h_state[5];
    54a0:	2d 85       	ldd	r18, Y+13	; 0x0d
    54a2:	3e 85       	ldd	r19, Y+14	; 0x0e
    54a4:	a0 ee       	ldi	r26, 0xE0	; 224
    54a6:	bf ef       	ldi	r27, 0xFF	; 255
    54a8:	0e 94 ab 32 	call	0x6556	; 0x6556 <__mulhisi3>
    54ac:	46 0e       	add	r4, r22
    54ae:	57 1e       	adc	r5, r23
    54b0:	68 1e       	adc	r6, r24
    54b2:	79 1e       	adc	r7, r25
    acc += (int32_t)W_hn[11][6] * (int32_t)h_state[6];
    54b4:	2b a5       	ldd	r18, Y+43	; 0x2b
    54b6:	3c a5       	ldd	r19, Y+44	; 0x2c
    54b8:	4d a5       	ldd	r20, Y+45	; 0x2d
    54ba:	5e a5       	ldd	r21, Y+46	; 0x2e
    54bc:	42 0e       	add	r4, r18
    54be:	53 1e       	adc	r5, r19
    54c0:	64 1e       	adc	r6, r20
    54c2:	75 1e       	adc	r7, r21
    acc += (int32_t)W_hn[11][7] * (int32_t)h_state[7];
    54c4:	c9 51       	subi	r28, 0x19	; 25
    54c6:	df 4f       	sbci	r29, 0xFF	; 255
    54c8:	88 81       	ld	r24, Y
    54ca:	99 81       	ldd	r25, Y+1	; 0x01
    54cc:	aa 81       	ldd	r26, Y+2	; 0x02
    54ce:	bb 81       	ldd	r27, Y+3	; 0x03
    54d0:	c7 5e       	subi	r28, 0xE7	; 231
    54d2:	d0 40       	sbci	r29, 0x00	; 0
    54d4:	48 0e       	add	r4, r24
    54d6:	59 1e       	adc	r5, r25
    54d8:	6a 1e       	adc	r6, r26
    54da:	7b 1e       	adc	r7, r27
    acc += (int32_t)W_hn[11][8] * (int32_t)h_state[8];
    54dc:	2f 89       	ldd	r18, Y+23	; 0x17
    54de:	38 8d       	ldd	r19, Y+24	; 0x18
    54e0:	a8 ef       	ldi	r26, 0xF8	; 248
    54e2:	bf ef       	ldi	r27, 0xFF	; 255
    54e4:	0e 94 ab 32 	call	0x6556	; 0x6556 <__mulhisi3>
    54e8:	46 0e       	add	r4, r22
    54ea:	57 1e       	adc	r5, r23
    54ec:	68 1e       	adc	r6, r24
    54ee:	79 1e       	adc	r7, r25
    acc += (int32_t)W_hn[11][9] * (int32_t)h_state[9];
    54f0:	2c e2       	ldi	r18, 0x2C	; 44
    54f2:	30 e0       	ldi	r19, 0x00	; 0
    54f4:	a9 85       	ldd	r26, Y+9	; 0x09
    54f6:	ba 85       	ldd	r27, Y+10	; 0x0a
    54f8:	0e 94 c2 32 	call	0x6584	; 0x6584 <__usmulhisi3>
    54fc:	46 0e       	add	r4, r22
    54fe:	57 1e       	adc	r5, r23
    5500:	68 1e       	adc	r6, r24
    5502:	79 1e       	adc	r7, r25
    acc += (int32_t)W_hn[11][10] * (int32_t)h_state[10];
    5504:	84 0c       	add	r8, r4
    5506:	95 1c       	adc	r9, r5
    5508:	a6 1c       	adc	r10, r6
    550a:	b7 1c       	adc	r11, r7
    acc += (int32_t)W_hn[11][11] * (int32_t)h_state[11];
    550c:	2e e1       	ldi	r18, 0x1E	; 30
    550e:	30 e0       	ldi	r19, 0x00	; 0
    5510:	a9 8d       	ldd	r26, Y+25	; 0x19
    5512:	ba 8d       	ldd	r27, Y+26	; 0x1a
    5514:	0e 94 c2 32 	call	0x6584	; 0x6584 <__usmulhisi3>
    5518:	2b 01       	movw	r4, r22
    551a:	3c 01       	movw	r6, r24
    551c:	84 0c       	add	r8, r4
    551e:	95 1c       	adc	r9, r5
    5520:	a6 1c       	adc	r10, r6
    5522:	b7 1c       	adc	r11, r7
    acc += (int32_t)W_hn[11][12] * (int32_t)h_state[12];
    5524:	20 e3       	ldi	r18, 0x30	; 48
    5526:	30 e0       	ldi	r19, 0x00	; 0
    5528:	d8 01       	movw	r26, r16
    552a:	0e 94 c2 32 	call	0x6584	; 0x6584 <__usmulhisi3>
    552e:	86 0e       	add	r8, r22
    5530:	97 1e       	adc	r9, r23
    5532:	a8 1e       	adc	r10, r24
    5534:	b9 1e       	adc	r11, r25
    acc += (int32_t)W_hn[11][13] * (int32_t)h_state[13];
    5536:	c9 52       	subi	r28, 0x29	; 41
    5538:	df 4f       	sbci	r29, 0xFF	; 255
    553a:	28 81       	ld	r18, Y
    553c:	39 81       	ldd	r19, Y+1	; 0x01
    553e:	4a 81       	ldd	r20, Y+2	; 0x02
    5540:	5b 81       	ldd	r21, Y+3	; 0x03
    5542:	c7 5d       	subi	r28, 0xD7	; 215
    5544:	d0 40       	sbci	r29, 0x00	; 0
    5546:	82 0e       	add	r8, r18
    5548:	93 1e       	adc	r9, r19
    554a:	a4 1e       	adc	r10, r20
    554c:	b5 1e       	adc	r11, r21
    acc += (int32_t)W_hn[11][14] * (int32_t)h_state[14];
    554e:	2d 8d       	ldd	r18, Y+29	; 0x1d
    5550:	3e 8d       	ldd	r19, Y+30	; 0x1e
    5552:	ae ee       	ldi	r26, 0xEE	; 238
    5554:	bf ef       	ldi	r27, 0xFF	; 255
    5556:	0e 94 ab 32 	call	0x6556	; 0x6556 <__mulhisi3>
    555a:	86 0e       	add	r8, r22
    555c:	97 1e       	adc	r9, r23
    555e:	a8 1e       	adc	r10, r24
    5560:	b9 1e       	adc	r11, r25
    acc += (int32_t)W_hn[11][15] * (int32_t)h_state[15];
    5562:	2b 89       	ldd	r18, Y+19	; 0x13
    5564:	3c 89       	ldd	r19, Y+20	; 0x14
    5566:	a7 ee       	ldi	r26, 0xE7	; 231
    5568:	bf ef       	ldi	r27, 0xFF	; 255
    556a:	0e 94 ab 32 	call	0x6556	; 0x6556 <__mulhisi3>
    556e:	86 0e       	add	r8, r22
    5570:	97 1e       	adc	r9, r23
    5572:	a8 1e       	adc	r10, r24
    5574:	b9 1e       	adc	r11, r25
    acc >>= FRAC_BITS;
    5576:	a6 e0       	ldi	r26, 0x06	; 6
    5578:	b5 94       	asr	r11
    557a:	a7 94       	ror	r10
    557c:	97 94       	ror	r9
    557e:	87 94       	ror	r8
    5580:	aa 95       	dec	r26
    5582:	d1 f7       	brne	.-12     	; 0x5578 <__stack+0x3379>
static inline int16_t fp_mul(int16_t a, int16_t b) {
    return (int16_t)(((int32_t)a * (int32_t)b) >> FRAC_BITS);
}

static inline int16_t fp_sat32(int32_t v) {
    if (v > FP_MAX) return FP_MAX;
    5584:	af ef       	ldi	r26, 0xFF	; 255
    5586:	bf e7       	ldi	r27, 0x7F	; 127
    5588:	81 14       	cp	r8, r1
    558a:	30 e8       	ldi	r19, 0x80	; 128
    558c:	93 06       	cpc	r9, r19
    558e:	a1 04       	cpc	r10, r1
    5590:	b1 04       	cpc	r11, r1
    5592:	54 f4       	brge	.+20     	; 0x55a8 <__stack+0x33a9>
    if (v < FP_MIN) return FP_MIN;
    return (int16_t)v;
    5594:	d4 01       	movw	r26, r8
    return (int16_t)(((int32_t)a * (int32_t)b) >> FRAC_BITS);
}

static inline int16_t fp_sat32(int32_t v) {
    if (v > FP_MAX) return FP_MAX;
    if (v < FP_MIN) return FP_MIN;
    5596:	81 14       	cp	r8, r1
    5598:	40 e8       	ldi	r20, 0x80	; 128
    559a:	94 06       	cpc	r9, r20
    559c:	4f ef       	ldi	r20, 0xFF	; 255
    559e:	a4 06       	cpc	r10, r20
    55a0:	b4 06       	cpc	r11, r20
    55a2:	14 f4       	brge	.+4      	; 0x55a8 <__stack+0x33a9>
    55a4:	a0 e0       	ldi	r26, 0x00	; 0
    55a6:	b0 e8       	ldi	r27, 0x80	; 128
// ---------------------------------------------------------------------------
// Fixed-point primitives  (kept as inline functions so avr-gcc inlines them
// and the assembly is one flat sequence of instructions)
// ---------------------------------------------------------------------------
static inline int16_t fp_mul(int16_t a, int16_t b) {
    return (int16_t)(((int32_t)a * (int32_t)b) >> FRAC_BITS);
    55a8:	c3 57       	subi	r28, 0x73	; 115
    55aa:	de 4f       	sbci	r29, 0xFE	; 254
    55ac:	28 81       	ld	r18, Y
    55ae:	39 81       	ldd	r19, Y+1	; 0x01
    55b0:	cd 58       	subi	r28, 0x8D	; 141
    55b2:	d1 40       	sbci	r29, 0x01	; 1
    55b4:	0e 94 ab 32 	call	0x6556	; 0x6556 <__mulhisi3>
    55b8:	dc 01       	movw	r26, r24
    55ba:	cb 01       	movw	r24, r22
    55bc:	56 e0       	ldi	r21, 0x06	; 6
    55be:	b5 95       	asr	r27
    55c0:	a7 95       	ror	r26
    55c2:	97 95       	ror	r25
    55c4:	87 95       	ror	r24
    55c6:	5a 95       	dec	r21
    55c8:	d1 f7       	brne	.-12     	; 0x55be <__stack+0x33bf>
    acc += (int32_t)W_hn[11][13] * (int32_t)h_state[13];
    acc += (int32_t)W_hn[11][14] * (int32_t)h_state[14];
    acc += (int32_t)W_hn[11][15] * (int32_t)h_state[15];
    acc >>= FRAC_BITS;
    //   scale by r[11]
    acc = (int32_t)fp_mul(r[11], fp_sat32(acc));
    55ca:	09 2e       	mov	r0, r25
    55cc:	00 0c       	add	r0, r0
    55ce:	aa 0b       	sbc	r26, r26
    55d0:	bb 0b       	sbc	r27, r27
    acc += (int32_t)W_in[11][58] * (int32_t)x[58];
    acc += (int32_t)W_in[11][59] * (int32_t)x[59];
    acc += (int32_t)W_in[11][60] * (int32_t)x[60];
    acc += (int32_t)W_in[11][61] * (int32_t)x[61];
    acc += (int32_t)W_in[11][62] * (int32_t)x[62];
    acc += (int32_t)W_in[11][63] * (int32_t)x[63];
    55d2:	88 5a       	subi	r24, 0xA8	; 168
    55d4:	9a 4f       	sbci	r25, 0xFA	; 250
    55d6:	af 4f       	sbci	r26, 0xFF	; 255
    55d8:	bf 4f       	sbci	r27, 0xFF	; 255
    acc >>= FRAC_BITS;
    55da:	66 e0       	ldi	r22, 0x06	; 6
    55dc:	b5 95       	asr	r27
    55de:	a7 95       	ror	r26
    55e0:	97 95       	ror	r25
    55e2:	87 95       	ror	r24
    55e4:	6a 95       	dec	r22
    55e6:	d1 f7       	brne	.-12     	; 0x55dc <__stack+0x33dd>
    n[11] = fp_tanh(fp_sat32(acc));
    55e8:	0e 94 1a 01 	call	0x234	; 0x234 <_ZL7fp_tanhi>
    55ec:	9c ab       	std	Y+52, r25	; 0x34
    55ee:	8b ab       	std	Y+51, r24	; 0x33

    // n[12]  -- recurrent term: acc_r = W_hn[12]@h + b_hn[12]
    acc = (int32_t)b_hn[12];
    acc += (int32_t)W_hn[12][0] * (int32_t)h_state[0];
    55f0:	27 e0       	ldi	r18, 0x07	; 7
    55f2:	30 e0       	ldi	r19, 0x00	; 0
    55f4:	ab 85       	ldd	r26, Y+11	; 0x0b
    55f6:	bc 85       	ldd	r27, Y+12	; 0x0c
    55f8:	0e 94 c2 32 	call	0x6584	; 0x6584 <__usmulhisi3>
    55fc:	4b 01       	movw	r8, r22
    55fe:	5c 01       	movw	r10, r24
    5600:	52 e0       	ldi	r21, 0x02	; 2
    5602:	85 1a       	sub	r8, r21
    5604:	91 08       	sbc	r9, r1
    5606:	a1 08       	sbc	r10, r1
    5608:	b1 08       	sbc	r11, r1
    acc += (int32_t)W_hn[12][1] * (int32_t)h_state[1];
    560a:	2f 81       	ldd	r18, Y+7	; 0x07
    560c:	38 85       	ldd	r19, Y+8	; 0x08
    560e:	a6 ed       	ldi	r26, 0xD6	; 214
    5610:	bf ef       	ldi	r27, 0xFF	; 255
    5612:	0e 94 ab 32 	call	0x6556	; 0x6556 <__mulhisi3>
    5616:	86 0e       	add	r8, r22
    5618:	97 1e       	adc	r9, r23
    561a:	a8 1e       	adc	r10, r24
    561c:	b9 1e       	adc	r11, r25
    acc += (int32_t)W_hn[12][2] * (int32_t)h_state[2];
    561e:	2e e0       	ldi	r18, 0x0E	; 14
    5620:	30 e0       	ldi	r19, 0x00	; 0
    5622:	ad 89       	ldd	r26, Y+21	; 0x15
    5624:	be 89       	ldd	r27, Y+22	; 0x16
    5626:	0e 94 c2 32 	call	0x6584	; 0x6584 <__usmulhisi3>
    562a:	86 0e       	add	r8, r22
    562c:	97 1e       	adc	r9, r23
    562e:	a8 1e       	adc	r10, r24
    5630:	b9 1e       	adc	r11, r25
    acc += (int32_t)W_hn[12][3] * (int32_t)h_state[3];
    5632:	2c e2       	ldi	r18, 0x2C	; 44
    5634:	30 e0       	ldi	r19, 0x00	; 0
    5636:	d1 01       	movw	r26, r2
    5638:	0e 94 c2 32 	call	0x6584	; 0x6584 <__usmulhisi3>
    563c:	86 0e       	add	r8, r22
    563e:	97 1e       	adc	r9, r23
    5640:	a8 1e       	adc	r10, r24
    5642:	b9 1e       	adc	r11, r25
    acc += (int32_t)W_hn[12][4] * (int32_t)h_state[4];
    5644:	2e e2       	ldi	r18, 0x2E	; 46
    5646:	30 e0       	ldi	r19, 0x00	; 0
    5648:	ad 81       	ldd	r26, Y+5	; 0x05
    564a:	be 81       	ldd	r27, Y+6	; 0x06
    564c:	0e 94 c2 32 	call	0x6584	; 0x6584 <__usmulhisi3>
    5650:	86 0e       	add	r8, r22
    5652:	97 1e       	adc	r9, r23
    5654:	a8 1e       	adc	r10, r24
    5656:	b9 1e       	adc	r11, r25
    acc += (int32_t)W_hn[12][5] * (int32_t)h_state[5];
    5658:	cb 5a       	subi	r28, 0xAB	; 171
    565a:	de 4f       	sbci	r29, 0xFE	; 254
    565c:	88 81       	ld	r24, Y
    565e:	99 81       	ldd	r25, Y+1	; 0x01
    5660:	aa 81       	ldd	r26, Y+2	; 0x02
    5662:	bb 81       	ldd	r27, Y+3	; 0x03
    5664:	c5 55       	subi	r28, 0x55	; 85
    5666:	d1 40       	sbci	r29, 0x01	; 1
    5668:	88 0e       	add	r8, r24
    566a:	99 1e       	adc	r9, r25
    566c:	aa 1e       	adc	r10, r26
    566e:	bb 1e       	adc	r11, r27
    acc += (int32_t)W_hn[12][6] * (int32_t)h_state[6];
    5670:	25 e0       	ldi	r18, 0x05	; 5
    5672:	30 e0       	ldi	r19, 0x00	; 0
    5674:	c9 56       	subi	r28, 0x69	; 105
    5676:	de 4f       	sbci	r29, 0xFE	; 254
    5678:	a8 81       	ld	r26, Y
    567a:	b9 81       	ldd	r27, Y+1	; 0x01
    567c:	c7 59       	subi	r28, 0x97	; 151
    567e:	d1 40       	sbci	r29, 0x01	; 1
    5680:	0e 94 c2 32 	call	0x6584	; 0x6584 <__usmulhisi3>
    5684:	86 0e       	add	r8, r22
    5686:	97 1e       	adc	r9, r23
    5688:	a8 1e       	adc	r10, r24
    568a:	b9 1e       	adc	r11, r25
    acc += (int32_t)W_hn[12][7] * (int32_t)h_state[7];
    568c:	29 89       	ldd	r18, Y+17	; 0x11
    568e:	3a 89       	ldd	r19, Y+18	; 0x12
    5690:	a2 ee       	ldi	r26, 0xE2	; 226
    5692:	bf ef       	ldi	r27, 0xFF	; 255
    5694:	0e 94 ab 32 	call	0x6556	; 0x6556 <__mulhisi3>
    5698:	86 0e       	add	r8, r22
    569a:	97 1e       	adc	r9, r23
    569c:	a8 1e       	adc	r10, r24
    569e:	b9 1e       	adc	r11, r25
    acc += (int32_t)W_hn[12][8] * (int32_t)h_state[8];
    56a0:	21 e3       	ldi	r18, 0x31	; 49
    56a2:	30 e0       	ldi	r19, 0x00	; 0
    56a4:	af 89       	ldd	r26, Y+23	; 0x17
    56a6:	b8 8d       	ldd	r27, Y+24	; 0x18
    56a8:	0e 94 c2 32 	call	0x6584	; 0x6584 <__usmulhisi3>
    56ac:	86 0e       	add	r8, r22
    56ae:	97 1e       	adc	r9, r23
    56b0:	a8 1e       	adc	r10, r24
    56b2:	b9 1e       	adc	r11, r25
    acc += (int32_t)W_hn[12][9] * (int32_t)h_state[9];
    56b4:	29 85       	ldd	r18, Y+9	; 0x09
    56b6:	3a 85       	ldd	r19, Y+10	; 0x0a
    56b8:	aa ec       	ldi	r26, 0xCA	; 202
    56ba:	bf ef       	ldi	r27, 0xFF	; 255
    56bc:	0e 94 ab 32 	call	0x6556	; 0x6556 <__mulhisi3>
    56c0:	86 0e       	add	r8, r22
    56c2:	97 1e       	adc	r9, r23
    56c4:	a8 1e       	adc	r10, r24
    56c6:	b9 1e       	adc	r11, r25
    acc += (int32_t)W_hn[12][10] * (int32_t)h_state[10];
    56c8:	2f 85       	ldd	r18, Y+15	; 0x0f
    56ca:	38 89       	ldd	r19, Y+16	; 0x10
    56cc:	0e 94 ab 32 	call	0x6556	; 0x6556 <__mulhisi3>
    56d0:	86 0e       	add	r8, r22
    56d2:	97 1e       	adc	r9, r23
    56d4:	a8 1e       	adc	r10, r24
    56d6:	b9 1e       	adc	r11, r25
    acc += (int32_t)W_hn[12][11] * (int32_t)h_state[11];
    56d8:	29 8d       	ldd	r18, Y+25	; 0x19
    56da:	3a 8d       	ldd	r19, Y+26	; 0x1a
    56dc:	a2 ec       	ldi	r26, 0xC2	; 194
    56de:	bf ef       	ldi	r27, 0xFF	; 255
    56e0:	0e 94 ab 32 	call	0x6556	; 0x6556 <__mulhisi3>
    56e4:	86 0e       	add	r8, r22
    56e6:	97 1e       	adc	r9, r23
    56e8:	a8 1e       	adc	r10, r24
    56ea:	b9 1e       	adc	r11, r25
    acc += (int32_t)W_hn[12][12] * (int32_t)h_state[12];
    56ec:	c5 53       	subi	r28, 0x35	; 53
    56ee:	df 4f       	sbci	r29, 0xFF	; 255
    56f0:	28 81       	ld	r18, Y
    56f2:	39 81       	ldd	r19, Y+1	; 0x01
    56f4:	4a 81       	ldd	r20, Y+2	; 0x02
    56f6:	5b 81       	ldd	r21, Y+3	; 0x03
    56f8:	cb 5c       	subi	r28, 0xCB	; 203
    56fa:	d0 40       	sbci	r29, 0x00	; 0
    56fc:	82 0e       	add	r8, r18
    56fe:	93 1e       	adc	r9, r19
    5700:	a4 1e       	adc	r10, r20
    5702:	b5 1e       	adc	r11, r21
    acc += (int32_t)W_hn[12][13] * (int32_t)h_state[13];
    5704:	2b 8d       	ldd	r18, Y+27	; 0x1b
    5706:	3c 8d       	ldd	r19, Y+28	; 0x1c
    5708:	a4 ec       	ldi	r26, 0xC4	; 196
    570a:	bf ef       	ldi	r27, 0xFF	; 255
    570c:	0e 94 ab 32 	call	0x6556	; 0x6556 <__mulhisi3>
    5710:	86 0e       	add	r8, r22
    5712:	97 1e       	adc	r9, r23
    5714:	a8 1e       	adc	r10, r24
    5716:	b9 1e       	adc	r11, r25
    acc += (int32_t)W_hn[12][14] * (int32_t)h_state[14];
    5718:	2a e0       	ldi	r18, 0x0A	; 10
    571a:	30 e0       	ldi	r19, 0x00	; 0
    571c:	ad 8d       	ldd	r26, Y+29	; 0x1d
    571e:	be 8d       	ldd	r27, Y+30	; 0x1e
    5720:	0e 94 c2 32 	call	0x6584	; 0x6584 <__usmulhisi3>
    5724:	86 0e       	add	r8, r22
    5726:	97 1e       	adc	r9, r23
    5728:	a8 1e       	adc	r10, r24
    572a:	b9 1e       	adc	r11, r25
    acc += (int32_t)W_hn[12][15] * (int32_t)h_state[15];
    572c:	2b 89       	ldd	r18, Y+19	; 0x13
    572e:	3c 89       	ldd	r19, Y+20	; 0x14
    5730:	a4 ef       	ldi	r26, 0xF4	; 244
    5732:	bf ef       	ldi	r27, 0xFF	; 255
    5734:	0e 94 ab 32 	call	0x6556	; 0x6556 <__mulhisi3>
    5738:	86 0e       	add	r8, r22
    573a:	97 1e       	adc	r9, r23
    573c:	a8 1e       	adc	r10, r24
    573e:	b9 1e       	adc	r11, r25
    acc >>= FRAC_BITS;
    5740:	76 e0       	ldi	r23, 0x06	; 6
    5742:	b5 94       	asr	r11
    5744:	a7 94       	ror	r10
    5746:	97 94       	ror	r9
    5748:	87 94       	ror	r8
    574a:	7a 95       	dec	r23
    574c:	d1 f7       	brne	.-12     	; 0x5742 <__stack+0x3543>
static inline int16_t fp_mul(int16_t a, int16_t b) {
    return (int16_t)(((int32_t)a * (int32_t)b) >> FRAC_BITS);
}

static inline int16_t fp_sat32(int32_t v) {
    if (v > FP_MAX) return FP_MAX;
    574e:	af ef       	ldi	r26, 0xFF	; 255
    5750:	bf e7       	ldi	r27, 0x7F	; 127
    5752:	81 14       	cp	r8, r1
    5754:	30 e8       	ldi	r19, 0x80	; 128
    5756:	93 06       	cpc	r9, r19
    5758:	a1 04       	cpc	r10, r1
    575a:	b1 04       	cpc	r11, r1
    575c:	54 f4       	brge	.+20     	; 0x5772 <__stack+0x3573>
    if (v < FP_MIN) return FP_MIN;
    return (int16_t)v;
    575e:	d4 01       	movw	r26, r8
    return (int16_t)(((int32_t)a * (int32_t)b) >> FRAC_BITS);
}

static inline int16_t fp_sat32(int32_t v) {
    if (v > FP_MAX) return FP_MAX;
    if (v < FP_MIN) return FP_MIN;
    5760:	81 14       	cp	r8, r1
    5762:	40 e8       	ldi	r20, 0x80	; 128
    5764:	94 06       	cpc	r9, r20
    5766:	4f ef       	ldi	r20, 0xFF	; 255
    5768:	a4 06       	cpc	r10, r20
    576a:	b4 06       	cpc	r11, r20
    576c:	14 f4       	brge	.+4      	; 0x5772 <__stack+0x3573>
    576e:	a0 e0       	ldi	r26, 0x00	; 0
    5770:	b0 e8       	ldi	r27, 0x80	; 128
// ---------------------------------------------------------------------------
// Fixed-point primitives  (kept as inline functions so avr-gcc inlines them
// and the assembly is one flat sequence of instructions)
// ---------------------------------------------------------------------------
static inline int16_t fp_mul(int16_t a, int16_t b) {
    return (int16_t)(((int32_t)a * (int32_t)b) >> FRAC_BITS);
    5772:	c1 57       	subi	r28, 0x71	; 113
    5774:	de 4f       	sbci	r29, 0xFE	; 254
    5776:	28 81       	ld	r18, Y
    5778:	39 81       	ldd	r19, Y+1	; 0x01
    577a:	cf 58       	subi	r28, 0x8F	; 143
    577c:	d1 40       	sbci	r29, 0x01	; 1
    577e:	0e 94 ab 32 	call	0x6556	; 0x6556 <__mulhisi3>
    5782:	dc 01       	movw	r26, r24
    5784:	cb 01       	movw	r24, r22
    5786:	f6 e0       	ldi	r31, 0x06	; 6
    5788:	b5 95       	asr	r27
    578a:	a7 95       	ror	r26
    578c:	97 95       	ror	r25
    578e:	87 95       	ror	r24
    5790:	fa 95       	dec	r31
    5792:	d1 f7       	brne	.-12     	; 0x5788 <__stack+0x3589>
    acc += (int32_t)W_hn[12][13] * (int32_t)h_state[13];
    acc += (int32_t)W_hn[12][14] * (int32_t)h_state[14];
    acc += (int32_t)W_hn[12][15] * (int32_t)h_state[15];
    acc >>= FRAC_BITS;
    //   scale by r[12]
    acc = (int32_t)fp_mul(r[12], fp_sat32(acc));
    5794:	09 2e       	mov	r0, r25
    5796:	00 0c       	add	r0, r0
    5798:	aa 0b       	sbc	r26, r26
    579a:	bb 0b       	sbc	r27, r27
    acc += (int32_t)W_in[12][58] * (int32_t)x[58];
    acc += (int32_t)W_in[12][59] * (int32_t)x[59];
    acc += (int32_t)W_in[12][60] * (int32_t)x[60];
    acc += (int32_t)W_in[12][61] * (int32_t)x[61];
    acc += (int32_t)W_in[12][62] * (int32_t)x[62];
    acc += (int32_t)W_in[12][63] * (int32_t)x[63];
    579c:	81 5f       	subi	r24, 0xF1	; 241
    579e:	98 43       	sbci	r25, 0x38	; 56
    57a0:	a1 09       	sbc	r26, r1
    57a2:	b1 09       	sbc	r27, r1
    acc >>= FRAC_BITS;
    57a4:	26 e0       	ldi	r18, 0x06	; 6
    57a6:	b5 95       	asr	r27
    57a8:	a7 95       	ror	r26
    57aa:	97 95       	ror	r25
    57ac:	87 95       	ror	r24
    57ae:	2a 95       	dec	r18
    57b0:	d1 f7       	brne	.-12     	; 0x57a6 <__stack+0x35a7>
    n[12] = fp_tanh(fp_sat32(acc));
    57b2:	0e 94 1a 01 	call	0x234	; 0x234 <_ZL7fp_tanhi>
    57b6:	9c af       	std	Y+60, r25	; 0x3c
    57b8:	8b af       	std	Y+59, r24	; 0x3b

    // n[13]  -- recurrent term: acc_r = W_hn[13]@h + b_hn[13]
    acc = (int32_t)b_hn[13];
    acc += (int32_t)W_hn[13][0] * (int32_t)h_state[0];
    57ba:	2c e0       	ldi	r18, 0x0C	; 12
    57bc:	30 e0       	ldi	r19, 0x00	; 0
    57be:	ab 85       	ldd	r26, Y+11	; 0x0b
    57c0:	bc 85       	ldd	r27, Y+12	; 0x0c
    57c2:	0e 94 c2 32 	call	0x6584	; 0x6584 <__usmulhisi3>
    57c6:	4b 01       	movw	r8, r22
    57c8:	5c 01       	movw	r10, r24
    57ca:	52 e0       	ldi	r21, 0x02	; 2
    57cc:	85 1a       	sub	r8, r21
    57ce:	91 08       	sbc	r9, r1
    57d0:	a1 08       	sbc	r10, r1
    57d2:	b1 08       	sbc	r11, r1
    acc += (int32_t)W_hn[13][1] * (int32_t)h_state[1];
    57d4:	24 e3       	ldi	r18, 0x34	; 52
    57d6:	30 e0       	ldi	r19, 0x00	; 0
    57d8:	af 81       	ldd	r26, Y+7	; 0x07
    57da:	b8 85       	ldd	r27, Y+8	; 0x08
    57dc:	0e 94 c2 32 	call	0x6584	; 0x6584 <__usmulhisi3>
    57e0:	86 0e       	add	r8, r22
    57e2:	97 1e       	adc	r9, r23
    57e4:	a8 1e       	adc	r10, r24
    57e6:	b9 1e       	adc	r11, r25
    acc += (int32_t)W_hn[13][2] * (int32_t)h_state[2];
    57e8:	27 e0       	ldi	r18, 0x07	; 7
    57ea:	30 e0       	ldi	r19, 0x00	; 0
    57ec:	ad 89       	ldd	r26, Y+21	; 0x15
    57ee:	be 89       	ldd	r27, Y+22	; 0x16
    57f0:	0e 94 c2 32 	call	0x6584	; 0x6584 <__usmulhisi3>
    57f4:	86 0e       	add	r8, r22
    57f6:	97 1e       	adc	r9, r23
    57f8:	a8 1e       	adc	r10, r24
    57fa:	b9 1e       	adc	r11, r25
    acc += (int32_t)W_hn[13][3] * (int32_t)h_state[3];
    57fc:	26 e0       	ldi	r18, 0x06	; 6
    57fe:	30 e0       	ldi	r19, 0x00	; 0
    5800:	d1 01       	movw	r26, r2
    5802:	0e 94 c2 32 	call	0x6584	; 0x6584 <__usmulhisi3>
    5806:	86 0e       	add	r8, r22
    5808:	97 1e       	adc	r9, r23
    580a:	a8 1e       	adc	r10, r24
    580c:	b9 1e       	adc	r11, r25
    acc += (int32_t)W_hn[13][4] * (int32_t)h_state[4];
    580e:	ad 81       	ldd	r26, Y+5	; 0x05
    5810:	be 81       	ldd	r27, Y+6	; 0x06
    5812:	bd 01       	movw	r22, r26
    5814:	bb 0f       	add	r27, r27
    5816:	88 0b       	sbc	r24, r24
    5818:	99 0b       	sbc	r25, r25
    581a:	36 e0       	ldi	r19, 0x06	; 6
    581c:	66 0f       	add	r22, r22
    581e:	77 1f       	adc	r23, r23
    5820:	88 1f       	adc	r24, r24
    5822:	99 1f       	adc	r25, r25
    5824:	3a 95       	dec	r19
    5826:	d1 f7       	brne	.-12     	; 0x581c <__stack+0x361d>
    5828:	86 0e       	add	r8, r22
    582a:	97 1e       	adc	r9, r23
    582c:	a8 1e       	adc	r10, r24
    582e:	b9 1e       	adc	r11, r25
    acc += (int32_t)W_hn[13][5] * (int32_t)h_state[5];
    5830:	2d 85       	ldd	r18, Y+13	; 0x0d
    5832:	3e 85       	ldd	r19, Y+14	; 0x0e
    5834:	ac ef       	ldi	r26, 0xFC	; 252
    5836:	bf ef       	ldi	r27, 0xFF	; 255
    5838:	0e 94 ab 32 	call	0x6556	; 0x6556 <__mulhisi3>
    583c:	86 0e       	add	r8, r22
    583e:	97 1e       	adc	r9, r23
    5840:	a8 1e       	adc	r10, r24
    5842:	b9 1e       	adc	r11, r25
    acc += (int32_t)W_hn[13][6] * (int32_t)h_state[6];
    5844:	23 e2       	ldi	r18, 0x23	; 35
    5846:	30 e0       	ldi	r19, 0x00	; 0
    5848:	c9 56       	subi	r28, 0x69	; 105
    584a:	de 4f       	sbci	r29, 0xFE	; 254
    584c:	a8 81       	ld	r26, Y
    584e:	b9 81       	ldd	r27, Y+1	; 0x01
    5850:	c7 59       	subi	r28, 0x97	; 151
    5852:	d1 40       	sbci	r29, 0x01	; 1
    5854:	0e 94 c2 32 	call	0x6584	; 0x6584 <__usmulhisi3>
    5858:	86 0e       	add	r8, r22
    585a:	97 1e       	adc	r9, r23
    585c:	a8 1e       	adc	r10, r24
    585e:	b9 1e       	adc	r11, r25
    acc += (int32_t)W_hn[13][7] * (int32_t)h_state[7];
    5860:	29 89       	ldd	r18, Y+17	; 0x11
    5862:	3a 89       	ldd	r19, Y+18	; 0x12
    5864:	af ee       	ldi	r26, 0xEF	; 239
    5866:	bf ef       	ldi	r27, 0xFF	; 255
    5868:	0e 94 ab 32 	call	0x6556	; 0x6556 <__mulhisi3>
    586c:	86 0e       	add	r8, r22
    586e:	97 1e       	adc	r9, r23
    5870:	a8 1e       	adc	r10, r24
    5872:	b9 1e       	adc	r11, r25
    acc += (int32_t)W_hn[13][8] * (int32_t)h_state[8];
    5874:	2f 89       	ldd	r18, Y+23	; 0x17
    5876:	38 8d       	ldd	r19, Y+24	; 0x18
    5878:	ad ed       	ldi	r26, 0xDD	; 221
    587a:	bf ef       	ldi	r27, 0xFF	; 255
    587c:	0e 94 ab 32 	call	0x6556	; 0x6556 <__mulhisi3>
    5880:	86 0e       	add	r8, r22
    5882:	97 1e       	adc	r9, r23
    5884:	a8 1e       	adc	r10, r24
    5886:	b9 1e       	adc	r11, r25
    acc += (int32_t)W_hn[13][9] * (int32_t)h_state[9];
    5888:	23 e2       	ldi	r18, 0x23	; 35
    588a:	30 e0       	ldi	r19, 0x00	; 0
    588c:	a9 85       	ldd	r26, Y+9	; 0x09
    588e:	ba 85       	ldd	r27, Y+10	; 0x0a
    5890:	0e 94 c2 32 	call	0x6584	; 0x6584 <__usmulhisi3>
    5894:	86 0e       	add	r8, r22
    5896:	97 1e       	adc	r9, r23
    5898:	a8 1e       	adc	r10, r24
    589a:	b9 1e       	adc	r11, r25
    acc += (int32_t)W_hn[13][10] * (int32_t)h_state[10];
    589c:	2e e1       	ldi	r18, 0x1E	; 30
    589e:	30 e0       	ldi	r19, 0x00	; 0
    58a0:	af 85       	ldd	r26, Y+15	; 0x0f
    58a2:	b8 89       	ldd	r27, Y+16	; 0x10
    58a4:	0e 94 c2 32 	call	0x6584	; 0x6584 <__usmulhisi3>
    58a8:	86 0e       	add	r8, r22
    58aa:	97 1e       	adc	r9, r23
    58ac:	a8 1e       	adc	r10, r24
    58ae:	b9 1e       	adc	r11, r25
    acc += (int32_t)W_hn[13][11] * (int32_t)h_state[11];
    58b0:	29 8d       	ldd	r18, Y+25	; 0x19
    58b2:	3a 8d       	ldd	r19, Y+26	; 0x1a
    58b4:	a5 ee       	ldi	r26, 0xE5	; 229
    58b6:	bf ef       	ldi	r27, 0xFF	; 255
    58b8:	0e 94 ab 32 	call	0x6556	; 0x6556 <__mulhisi3>
    58bc:	86 0e       	add	r8, r22
    58be:	97 1e       	adc	r9, r23
    58c0:	a8 1e       	adc	r10, r24
    58c2:	b9 1e       	adc	r11, r25
    acc += (int32_t)W_hn[13][12] * (int32_t)h_state[12];
    58c4:	98 01       	movw	r18, r16
    58c6:	ab ef       	ldi	r26, 0xFB	; 251
    58c8:	bf ef       	ldi	r27, 0xFF	; 255
    58ca:	0e 94 ab 32 	call	0x6556	; 0x6556 <__mulhisi3>
    58ce:	86 0e       	add	r8, r22
    58d0:	97 1e       	adc	r9, r23
    58d2:	a8 1e       	adc	r10, r24
    58d4:	b9 1e       	adc	r11, r25
    acc += (int32_t)W_hn[13][13] * (int32_t)h_state[13];
    58d6:	cd 52       	subi	r28, 0x2D	; 45
    58d8:	df 4f       	sbci	r29, 0xFF	; 255
    58da:	28 81       	ld	r18, Y
    58dc:	39 81       	ldd	r19, Y+1	; 0x01
    58de:	4a 81       	ldd	r20, Y+2	; 0x02
    58e0:	5b 81       	ldd	r21, Y+3	; 0x03
    58e2:	c3 5d       	subi	r28, 0xD3	; 211
    58e4:	d0 40       	sbci	r29, 0x00	; 0
    58e6:	82 0e       	add	r8, r18
    58e8:	93 1e       	adc	r9, r19
    58ea:	a4 1e       	adc	r10, r20
    58ec:	b5 1e       	adc	r11, r21
    acc += (int32_t)W_hn[13][14] * (int32_t)h_state[14];
    58ee:	c5 50       	subi	r28, 0x05	; 5
    58f0:	df 4f       	sbci	r29, 0xFF	; 255
    58f2:	88 81       	ld	r24, Y
    58f4:	99 81       	ldd	r25, Y+1	; 0x01
    58f6:	aa 81       	ldd	r26, Y+2	; 0x02
    58f8:	bb 81       	ldd	r27, Y+3	; 0x03
    58fa:	cb 5f       	subi	r28, 0xFB	; 251
    58fc:	d0 40       	sbci	r29, 0x00	; 0
    58fe:	88 0e       	add	r8, r24
    5900:	99 1e       	adc	r9, r25
    5902:	aa 1e       	adc	r10, r26
    5904:	bb 1e       	adc	r11, r27
    acc += (int32_t)W_hn[13][15] * (int32_t)h_state[15];
    acc >>= FRAC_BITS;
    5906:	46 e0       	ldi	r20, 0x06	; 6
    5908:	b5 94       	asr	r11
    590a:	a7 94       	ror	r10
    590c:	97 94       	ror	r9
    590e:	87 94       	ror	r8
    5910:	4a 95       	dec	r20
    5912:	d1 f7       	brne	.-12     	; 0x5908 <__stack+0x3709>
static inline int16_t fp_mul(int16_t a, int16_t b) {
    return (int16_t)(((int32_t)a * (int32_t)b) >> FRAC_BITS);
}

static inline int16_t fp_sat32(int32_t v) {
    if (v > FP_MAX) return FP_MAX;
    5914:	af ef       	ldi	r26, 0xFF	; 255
    5916:	bf e7       	ldi	r27, 0x7F	; 127
    5918:	81 14       	cp	r8, r1
    591a:	90 e8       	ldi	r25, 0x80	; 128
    591c:	99 06       	cpc	r9, r25
    591e:	a1 04       	cpc	r10, r1
    5920:	b1 04       	cpc	r11, r1
    5922:	4c f4       	brge	.+18     	; 0x5936 <__stack+0x3737>
    if (v < FP_MIN) return FP_MIN;
    5924:	81 14       	cp	r8, r1
    5926:	a0 e8       	ldi	r26, 0x80	; 128
    5928:	9a 06       	cpc	r9, r26
    592a:	af ef       	ldi	r26, 0xFF	; 255
    592c:	aa 06       	cpc	r10, r26
    592e:	ba 06       	cpc	r11, r26
    5930:	0c f4       	brge	.+2      	; 0x5934 <__stack+0x3735>
    5932:	08 c6       	rjmp	.+3088   	; 0x6544 <__stack+0x4345>
    return (int16_t)v;
    5934:	d4 01       	movw	r26, r8
// ---------------------------------------------------------------------------
// Fixed-point primitives  (kept as inline functions so avr-gcc inlines them
// and the assembly is one flat sequence of instructions)
// ---------------------------------------------------------------------------
static inline int16_t fp_mul(int16_t a, int16_t b) {
    return (int16_t)(((int32_t)a * (int32_t)b) >> FRAC_BITS);
    5936:	cf 56       	subi	r28, 0x6F	; 111
    5938:	de 4f       	sbci	r29, 0xFE	; 254
    593a:	28 81       	ld	r18, Y
    593c:	39 81       	ldd	r19, Y+1	; 0x01
    593e:	c1 59       	subi	r28, 0x91	; 145
    5940:	d1 40       	sbci	r29, 0x01	; 1
    5942:	0e 94 ab 32 	call	0x6556	; 0x6556 <__mulhisi3>
    5946:	dc 01       	movw	r26, r24
    5948:	cb 01       	movw	r24, r22
    594a:	66 e0       	ldi	r22, 0x06	; 6
    594c:	b5 95       	asr	r27
    594e:	a7 95       	ror	r26
    5950:	97 95       	ror	r25
    5952:	87 95       	ror	r24
    5954:	6a 95       	dec	r22
    5956:	d1 f7       	brne	.-12     	; 0x594c <__stack+0x374d>
    acc += (int32_t)W_hn[13][13] * (int32_t)h_state[13];
    acc += (int32_t)W_hn[13][14] * (int32_t)h_state[14];
    acc += (int32_t)W_hn[13][15] * (int32_t)h_state[15];
    acc >>= FRAC_BITS;
    //   scale by r[13]
    acc = (int32_t)fp_mul(r[13], fp_sat32(acc));
    5958:	09 2e       	mov	r0, r25
    595a:	00 0c       	add	r0, r0
    595c:	aa 0b       	sbc	r26, r26
    595e:	bb 0b       	sbc	r27, r27
    acc += (int32_t)W_in[13][58] * (int32_t)x[58];
    acc += (int32_t)W_in[13][59] * (int32_t)x[59];
    acc += (int32_t)W_in[13][60] * (int32_t)x[60];
    acc += (int32_t)W_in[13][61] * (int32_t)x[61];
    acc += (int32_t)W_in[13][62] * (int32_t)x[62];
    acc += (int32_t)W_in[13][63] * (int32_t)x[63];
    5960:	89 5d       	subi	r24, 0xD9	; 217
    5962:	99 4b       	sbci	r25, 0xB9	; 185
    5964:	af 4f       	sbci	r26, 0xFF	; 255
    5966:	bf 4f       	sbci	r27, 0xFF	; 255
    acc >>= FRAC_BITS;
    5968:	76 e0       	ldi	r23, 0x06	; 6
    596a:	b5 95       	asr	r27
    596c:	a7 95       	ror	r26
    596e:	97 95       	ror	r25
    5970:	87 95       	ror	r24
    5972:	7a 95       	dec	r23
    5974:	d1 f7       	brne	.-12     	; 0x596a <__stack+0x376b>
    n[13] = fp_tanh(fp_sat32(acc));
    5976:	0e 94 1a 01 	call	0x234	; 0x234 <_ZL7fp_tanhi>
    597a:	9c a7       	std	Y+44, r25	; 0x2c
    597c:	8b a7       	std	Y+43, r24	; 0x2b

    // n[14]  -- recurrent term: acc_r = W_hn[14]@h + b_hn[14]
    acc = (int32_t)b_hn[14];
    acc += (int32_t)W_hn[14][0] * (int32_t)h_state[0];
    597e:	25 e1       	ldi	r18, 0x15	; 21
    5980:	30 e0       	ldi	r19, 0x00	; 0
    5982:	ab 85       	ldd	r26, Y+11	; 0x0b
    5984:	bc 85       	ldd	r27, Y+12	; 0x0c
    5986:	0e 94 c2 32 	call	0x6584	; 0x6584 <__usmulhisi3>
    598a:	4b 01       	movw	r8, r22
    598c:	5c 01       	movw	r10, r24
    598e:	bd e0       	ldi	r27, 0x0D	; 13
    5990:	8b 0e       	add	r8, r27
    5992:	91 1c       	adc	r9, r1
    5994:	a1 1c       	adc	r10, r1
    5996:	b1 1c       	adc	r11, r1
    acc += (int32_t)W_hn[14][1] * (int32_t)h_state[1];
    5998:	2d e2       	ldi	r18, 0x2D	; 45
    599a:	30 e0       	ldi	r19, 0x00	; 0
    599c:	af 81       	ldd	r26, Y+7	; 0x07
    599e:	b8 85       	ldd	r27, Y+8	; 0x08
    59a0:	0e 94 c2 32 	call	0x6584	; 0x6584 <__usmulhisi3>
    59a4:	86 0e       	add	r8, r22
    59a6:	97 1e       	adc	r9, r23
    59a8:	a8 1e       	adc	r10, r24
    59aa:	b9 1e       	adc	r11, r25
    acc += (int32_t)W_hn[14][2] * (int32_t)h_state[2];
    59ac:	27 e2       	ldi	r18, 0x27	; 39
    59ae:	30 e0       	ldi	r19, 0x00	; 0
    59b0:	ad 89       	ldd	r26, Y+21	; 0x15
    59b2:	be 89       	ldd	r27, Y+22	; 0x16
    59b4:	0e 94 c2 32 	call	0x6584	; 0x6584 <__usmulhisi3>
    59b8:	68 0d       	add	r22, r8
    59ba:	79 1d       	adc	r23, r9
    59bc:	8a 1d       	adc	r24, r10
    59be:	9b 1d       	adc	r25, r11
    acc += (int32_t)W_hn[14][3] * (int32_t)h_state[3];
    59c0:	c1 54       	subi	r28, 0x41	; 65
    59c2:	df 4f       	sbci	r29, 0xFF	; 255
    59c4:	28 81       	ld	r18, Y
    59c6:	39 81       	ldd	r19, Y+1	; 0x01
    59c8:	4a 81       	ldd	r20, Y+2	; 0x02
    59ca:	5b 81       	ldd	r21, Y+3	; 0x03
    59cc:	cf 5b       	subi	r28, 0xBF	; 191
    59ce:	d0 40       	sbci	r29, 0x00	; 0
    59d0:	62 0f       	add	r22, r18
    59d2:	73 1f       	adc	r23, r19
    59d4:	84 1f       	adc	r24, r20
    59d6:	95 1f       	adc	r25, r21
    acc += (int32_t)W_hn[14][4] * (int32_t)h_state[4];
    59d8:	c6 0e       	add	r12, r22
    59da:	d7 1e       	adc	r13, r23
    59dc:	e8 1e       	adc	r14, r24
    59de:	f9 1e       	adc	r15, r25
    acc += (int32_t)W_hn[14][5] * (int32_t)h_state[5];
    59e0:	cd 53       	subi	r28, 0x3D	; 61
    59e2:	df 4f       	sbci	r29, 0xFF	; 255
    59e4:	88 81       	ld	r24, Y
    59e6:	99 81       	ldd	r25, Y+1	; 0x01
    59e8:	aa 81       	ldd	r26, Y+2	; 0x02
    59ea:	bb 81       	ldd	r27, Y+3	; 0x03
    59ec:	c3 5c       	subi	r28, 0xC3	; 195
    59ee:	d0 40       	sbci	r29, 0x00	; 0
    59f0:	c8 0e       	add	r12, r24
    59f2:	d9 1e       	adc	r13, r25
    59f4:	ea 1e       	adc	r14, r26
    59f6:	fb 1e       	adc	r15, r27
    acc += (int32_t)W_hn[14][6] * (int32_t)h_state[6];
    59f8:	c9 56       	subi	r28, 0x69	; 105
    59fa:	de 4f       	sbci	r29, 0xFE	; 254
    59fc:	28 81       	ld	r18, Y
    59fe:	39 81       	ldd	r19, Y+1	; 0x01
    5a00:	c7 59       	subi	r28, 0x97	; 151
    5a02:	d1 40       	sbci	r29, 0x01	; 1
    5a04:	a9 ef       	ldi	r26, 0xF9	; 249
    5a06:	bf ef       	ldi	r27, 0xFF	; 255
    5a08:	0e 94 ab 32 	call	0x6556	; 0x6556 <__mulhisi3>
    5a0c:	c6 0e       	add	r12, r22
    5a0e:	d7 1e       	adc	r13, r23
    5a10:	e8 1e       	adc	r14, r24
    5a12:	f9 1e       	adc	r15, r25
    acc += (int32_t)W_hn[14][7] * (int32_t)h_state[7];
    5a14:	cd 5e       	subi	r28, 0xED	; 237
    5a16:	de 4f       	sbci	r29, 0xFE	; 254
    5a18:	28 81       	ld	r18, Y
    5a1a:	39 81       	ldd	r19, Y+1	; 0x01
    5a1c:	4a 81       	ldd	r20, Y+2	; 0x02
    5a1e:	5b 81       	ldd	r21, Y+3	; 0x03
    5a20:	c3 51       	subi	r28, 0x13	; 19
    5a22:	d1 40       	sbci	r29, 0x01	; 1
    5a24:	c2 0e       	add	r12, r18
    5a26:	d3 1e       	adc	r13, r19
    5a28:	e4 1e       	adc	r14, r20
    5a2a:	f5 1e       	adc	r15, r21
    acc += (int32_t)W_hn[14][8] * (int32_t)h_state[8];
    5a2c:	c9 53       	subi	r28, 0x39	; 57
    5a2e:	df 4f       	sbci	r29, 0xFF	; 255
    5a30:	88 81       	ld	r24, Y
    5a32:	99 81       	ldd	r25, Y+1	; 0x01
    5a34:	aa 81       	ldd	r26, Y+2	; 0x02
    5a36:	bb 81       	ldd	r27, Y+3	; 0x03
    5a38:	c7 5c       	subi	r28, 0xC7	; 199
    5a3a:	d0 40       	sbci	r29, 0x00	; 0
    5a3c:	c8 0e       	add	r12, r24
    5a3e:	d9 1e       	adc	r13, r25
    5a40:	ea 1e       	adc	r14, r26
    5a42:	fb 1e       	adc	r15, r27
    acc += (int32_t)W_hn[14][9] * (int32_t)h_state[9];
    5a44:	24 e1       	ldi	r18, 0x14	; 20
    5a46:	30 e0       	ldi	r19, 0x00	; 0
    5a48:	a9 85       	ldd	r26, Y+9	; 0x09
    5a4a:	ba 85       	ldd	r27, Y+10	; 0x0a
    5a4c:	0e 94 c2 32 	call	0x6584	; 0x6584 <__usmulhisi3>
    5a50:	c6 0e       	add	r12, r22
    5a52:	d7 1e       	adc	r13, r23
    5a54:	e8 1e       	adc	r14, r24
    5a56:	f9 1e       	adc	r15, r25
    acc += (int32_t)W_hn[14][10] * (int32_t)h_state[10];
    5a58:	2c e3       	ldi	r18, 0x3C	; 60
    5a5a:	30 e0       	ldi	r19, 0x00	; 0
    5a5c:	af 85       	ldd	r26, Y+15	; 0x0f
    5a5e:	b8 89       	ldd	r27, Y+16	; 0x10
    5a60:	0e 94 c2 32 	call	0x6584	; 0x6584 <__usmulhisi3>
    5a64:	c6 0e       	add	r12, r22
    5a66:	d7 1e       	adc	r13, r23
    5a68:	e8 1e       	adc	r14, r24
    5a6a:	f9 1e       	adc	r15, r25
    acc += (int32_t)W_hn[14][11] * (int32_t)h_state[11];
    5a6c:	4c 0c       	add	r4, r12
    5a6e:	5d 1c       	adc	r5, r13
    5a70:	6e 1c       	adc	r6, r14
    5a72:	7f 1c       	adc	r7, r15
    acc += (int32_t)W_hn[14][12] * (int32_t)h_state[12];
    5a74:	98 01       	movw	r18, r16
    5a76:	ae ef       	ldi	r26, 0xFE	; 254
    5a78:	bf ef       	ldi	r27, 0xFF	; 255
    5a7a:	0e 94 ab 32 	call	0x6556	; 0x6556 <__mulhisi3>
    5a7e:	46 0e       	add	r4, r22
    5a80:	57 1e       	adc	r5, r23
    5a82:	68 1e       	adc	r6, r24
    5a84:	79 1e       	adc	r7, r25
    acc += (int32_t)W_hn[14][13] * (int32_t)h_state[13];
    5a86:	2b 8d       	ldd	r18, Y+27	; 0x1b
    5a88:	3c 8d       	ldd	r19, Y+28	; 0x1c
    5a8a:	ae ee       	ldi	r26, 0xEE	; 238
    5a8c:	bf ef       	ldi	r27, 0xFF	; 255
    5a8e:	0e 94 ab 32 	call	0x6556	; 0x6556 <__mulhisi3>
    5a92:	46 0e       	add	r4, r22
    5a94:	57 1e       	adc	r5, r23
    5a96:	68 1e       	adc	r6, r24
    5a98:	79 1e       	adc	r7, r25
    acc += (int32_t)W_hn[14][14] * (int32_t)h_state[14];
    5a9a:	2d 8d       	ldd	r18, Y+29	; 0x1d
    5a9c:	3e 8d       	ldd	r19, Y+30	; 0x1e
    5a9e:	ac ed       	ldi	r26, 0xDC	; 220
    5aa0:	bf ef       	ldi	r27, 0xFF	; 255
    5aa2:	0e 94 ab 32 	call	0x6556	; 0x6556 <__mulhisi3>
    5aa6:	46 0e       	add	r4, r22
    5aa8:	57 1e       	adc	r5, r23
    5aaa:	68 1e       	adc	r6, r24
    5aac:	79 1e       	adc	r7, r25
    acc += (int32_t)W_hn[14][15] * (int32_t)h_state[15];
    5aae:	2b 89       	ldd	r18, Y+19	; 0x13
    5ab0:	3c 89       	ldd	r19, Y+20	; 0x14
    5ab2:	ae ef       	ldi	r26, 0xFE	; 254
    5ab4:	bf ef       	ldi	r27, 0xFF	; 255
    5ab6:	0e 94 ab 32 	call	0x6556	; 0x6556 <__mulhisi3>
    5aba:	dc 01       	movw	r26, r24
    5abc:	cb 01       	movw	r24, r22
    5abe:	84 0d       	add	r24, r4
    5ac0:	95 1d       	adc	r25, r5
    5ac2:	a6 1d       	adc	r26, r6
    5ac4:	b7 1d       	adc	r27, r7
    acc >>= FRAC_BITS;
    5ac6:	e6 e0       	ldi	r30, 0x06	; 6
    5ac8:	b5 95       	asr	r27
    5aca:	a7 95       	ror	r26
    5acc:	97 95       	ror	r25
    5ace:	87 95       	ror	r24
    5ad0:	ea 95       	dec	r30
    5ad2:	d1 f7       	brne	.-12     	; 0x5ac8 <__stack+0x38c9>
static inline int16_t fp_mul(int16_t a, int16_t b) {
    return (int16_t)(((int32_t)a * (int32_t)b) >> FRAC_BITS);
}

static inline int16_t fp_sat32(int32_t v) {
    if (v > FP_MAX) return FP_MAX;
    5ad4:	81 15       	cp	r24, r1
    5ad6:	e0 e8       	ldi	r30, 0x80	; 128
    5ad8:	9e 07       	cpc	r25, r30
    5ada:	a1 05       	cpc	r26, r1
    5adc:	b1 05       	cpc	r27, r1
    5ade:	0c f0       	brlt	.+2      	; 0x5ae2 <__stack+0x38e3>
    5ae0:	34 c5       	rjmp	.+2664   	; 0x654a <__stack+0x434b>
    if (v < FP_MIN) return FP_MIN;
    5ae2:	81 15       	cp	r24, r1
    5ae4:	f0 e8       	ldi	r31, 0x80	; 128
    5ae6:	9f 07       	cpc	r25, r31
    5ae8:	ff ef       	ldi	r31, 0xFF	; 255
    5aea:	af 07       	cpc	r26, r31
    5aec:	bf 07       	cpc	r27, r31
    5aee:	0c f4       	brge	.+2      	; 0x5af2 <__stack+0x38f3>
    5af0:	2f c5       	rjmp	.+2654   	; 0x6550 <__stack+0x4351>
    return (int16_t)v;
    5af2:	dc 01       	movw	r26, r24
// ---------------------------------------------------------------------------
// Fixed-point primitives  (kept as inline functions so avr-gcc inlines them
// and the assembly is one flat sequence of instructions)
// ---------------------------------------------------------------------------
static inline int16_t fp_mul(int16_t a, int16_t b) {
    return (int16_t)(((int32_t)a * (int32_t)b) >> FRAC_BITS);
    5af4:	cd 56       	subi	r28, 0x6D	; 109
    5af6:	de 4f       	sbci	r29, 0xFE	; 254
    5af8:	28 81       	ld	r18, Y
    5afa:	39 81       	ldd	r19, Y+1	; 0x01
    5afc:	c3 59       	subi	r28, 0x93	; 147
    5afe:	d1 40       	sbci	r29, 0x01	; 1
    5b00:	0e 94 ab 32 	call	0x6556	; 0x6556 <__mulhisi3>
    5b04:	dc 01       	movw	r26, r24
    5b06:	cb 01       	movw	r24, r22
    5b08:	36 e0       	ldi	r19, 0x06	; 6
    5b0a:	b5 95       	asr	r27
    5b0c:	a7 95       	ror	r26
    5b0e:	97 95       	ror	r25
    5b10:	87 95       	ror	r24
    5b12:	3a 95       	dec	r19
    5b14:	d1 f7       	brne	.-12     	; 0x5b0a <__stack+0x390b>
    acc += (int32_t)W_hn[14][13] * (int32_t)h_state[13];
    acc += (int32_t)W_hn[14][14] * (int32_t)h_state[14];
    acc += (int32_t)W_hn[14][15] * (int32_t)h_state[15];
    acc >>= FRAC_BITS;
    //   scale by r[14]
    acc = (int32_t)fp_mul(r[14], fp_sat32(acc));
    5b16:	09 2e       	mov	r0, r25
    5b18:	00 0c       	add	r0, r0
    5b1a:	aa 0b       	sbc	r26, r26
    5b1c:	bb 0b       	sbc	r27, r27
    acc += (int32_t)W_in[14][58] * (int32_t)x[58];
    acc += (int32_t)W_in[14][59] * (int32_t)x[59];
    acc += (int32_t)W_in[14][60] * (int32_t)x[60];
    acc += (int32_t)W_in[14][61] * (int32_t)x[61];
    acc += (int32_t)W_in[14][62] * (int32_t)x[62];
    acc += (int32_t)W_in[14][63] * (int32_t)x[63];
    5b1e:	8a 57       	subi	r24, 0x7A	; 122
    5b20:	99 43       	sbci	r25, 0x39	; 57
    5b22:	a1 09       	sbc	r26, r1
    5b24:	b1 09       	sbc	r27, r1
    acc >>= FRAC_BITS;
    5b26:	46 e0       	ldi	r20, 0x06	; 6
    5b28:	b5 95       	asr	r27
    5b2a:	a7 95       	ror	r26
    5b2c:	97 95       	ror	r25
    5b2e:	87 95       	ror	r24
    5b30:	4a 95       	dec	r20
    5b32:	d1 f7       	brne	.-12     	; 0x5b28 <__stack+0x3929>
    n[14] = fp_tanh(fp_sat32(acc));
    5b34:	0e 94 1a 01 	call	0x234	; 0x234 <_ZL7fp_tanhi>
    5b38:	5c 01       	movw	r10, r24

    // n[15]  -- recurrent term: acc_r = W_hn[15]@h + b_hn[15]
    acc = (int32_t)b_hn[15];
    acc += (int32_t)W_hn[15][0] * (int32_t)h_state[0];
    acc += (int32_t)W_hn[15][1] * (int32_t)h_state[1];
    5b3a:	a7 96       	adiw	r28, 0x27	; 39
    5b3c:	cc ac       	ldd	r12, Y+60	; 0x3c
    5b3e:	dd ac       	ldd	r13, Y+61	; 0x3d
    5b40:	ee ac       	ldd	r14, Y+62	; 0x3e
    5b42:	ff ac       	ldd	r15, Y+63	; 0x3f
    5b44:	a7 97       	sbiw	r28, 0x27	; 39
    5b46:	ab 96       	adiw	r28, 0x2b	; 43
    5b48:	2c ad       	ldd	r18, Y+60	; 0x3c
    5b4a:	3d ad       	ldd	r19, Y+61	; 0x3d
    5b4c:	4e ad       	ldd	r20, Y+62	; 0x3e
    5b4e:	5f ad       	ldd	r21, Y+63	; 0x3f
    5b50:	ab 97       	sbiw	r28, 0x2b	; 43
    5b52:	c2 0e       	add	r12, r18
    5b54:	d3 1e       	adc	r13, r19
    5b56:	e4 1e       	adc	r14, r20
    5b58:	f5 1e       	adc	r15, r21
    acc += (int32_t)W_hn[15][2] * (int32_t)h_state[2];
    5b5a:	2d 89       	ldd	r18, Y+21	; 0x15
    5b5c:	3e 89       	ldd	r19, Y+22	; 0x16
    5b5e:	a5 ec       	ldi	r26, 0xC5	; 197
    5b60:	bf ef       	ldi	r27, 0xFF	; 255
    5b62:	0e 94 ab 32 	call	0x6556	; 0x6556 <__mulhisi3>
    5b66:	c6 0e       	add	r12, r22
    5b68:	d7 1e       	adc	r13, r23
    5b6a:	e8 1e       	adc	r14, r24
    5b6c:	f9 1e       	adc	r15, r25
    acc += (int32_t)W_hn[15][3] * (int32_t)h_state[3];
    5b6e:	91 01       	movw	r18, r2
    5b70:	aa ed       	ldi	r26, 0xDA	; 218
    5b72:	bf ef       	ldi	r27, 0xFF	; 255
    5b74:	0e 94 ab 32 	call	0x6556	; 0x6556 <__mulhisi3>
    5b78:	c6 0e       	add	r12, r22
    5b7a:	d7 1e       	adc	r13, r23
    5b7c:	e8 1e       	adc	r14, r24
    5b7e:	f9 1e       	adc	r15, r25
    acc += (int32_t)W_hn[15][4] * (int32_t)h_state[4];
    5b80:	c1 52       	subi	r28, 0x21	; 33
    5b82:	df 4f       	sbci	r29, 0xFF	; 255
    5b84:	88 81       	ld	r24, Y
    5b86:	99 81       	ldd	r25, Y+1	; 0x01
    5b88:	aa 81       	ldd	r26, Y+2	; 0x02
    5b8a:	bb 81       	ldd	r27, Y+3	; 0x03
    5b8c:	cf 5d       	subi	r28, 0xDF	; 223
    5b8e:	d0 40       	sbci	r29, 0x00	; 0
    5b90:	c8 0e       	add	r12, r24
    5b92:	d9 1e       	adc	r13, r25
    5b94:	ea 1e       	adc	r14, r26
    5b96:	fb 1e       	adc	r15, r27
    acc += (int32_t)W_hn[15][5] * (int32_t)h_state[5];
    5b98:	2d 85       	ldd	r18, Y+13	; 0x0d
    5b9a:	3e 85       	ldd	r19, Y+14	; 0x0e
    5b9c:	ae ee       	ldi	r26, 0xEE	; 238
    5b9e:	bf ef       	ldi	r27, 0xFF	; 255
    5ba0:	0e 94 ab 32 	call	0x6556	; 0x6556 <__mulhisi3>
    5ba4:	c6 0e       	add	r12, r22
    5ba6:	d7 1e       	adc	r13, r23
    5ba8:	e8 1e       	adc	r14, r24
    5baa:	f9 1e       	adc	r15, r25
    acc += (int32_t)W_hn[15][6] * (int32_t)h_state[6];
    5bac:	c9 56       	subi	r28, 0x69	; 105
    5bae:	de 4f       	sbci	r29, 0xFE	; 254
    5bb0:	28 81       	ld	r18, Y
    5bb2:	39 81       	ldd	r19, Y+1	; 0x01
    5bb4:	c7 59       	subi	r28, 0x97	; 151
    5bb6:	d1 40       	sbci	r29, 0x01	; 1
    5bb8:	ac ef       	ldi	r26, 0xFC	; 252
    5bba:	bf ef       	ldi	r27, 0xFF	; 255
    5bbc:	0e 94 ab 32 	call	0x6556	; 0x6556 <__mulhisi3>
    5bc0:	c6 0e       	add	r12, r22
    5bc2:	d7 1e       	adc	r13, r23
    5bc4:	e8 1e       	adc	r14, r24
    5bc6:	f9 1e       	adc	r15, r25
    acc += (int32_t)W_hn[15][7] * (int32_t)h_state[7];
    5bc8:	a3 96       	adiw	r28, 0x23	; 35
    5bca:	2c ad       	ldd	r18, Y+60	; 0x3c
    5bcc:	3d ad       	ldd	r19, Y+61	; 0x3d
    5bce:	4e ad       	ldd	r20, Y+62	; 0x3e
    5bd0:	5f ad       	ldd	r21, Y+63	; 0x3f
    5bd2:	a3 97       	sbiw	r28, 0x23	; 35
    5bd4:	c2 0e       	add	r12, r18
    5bd6:	d3 1e       	adc	r13, r19
    5bd8:	e4 1e       	adc	r14, r20
    5bda:	f5 1e       	adc	r15, r21
    acc += (int32_t)W_hn[15][8] * (int32_t)h_state[8];
    5bdc:	63 96       	adiw	r28, 0x13	; 19
    5bde:	8c ad       	ldd	r24, Y+60	; 0x3c
    5be0:	9d ad       	ldd	r25, Y+61	; 0x3d
    5be2:	ae ad       	ldd	r26, Y+62	; 0x3e
    5be4:	bf ad       	ldd	r27, Y+63	; 0x3f
    5be6:	63 97       	sbiw	r28, 0x13	; 19
    5be8:	c8 0e       	add	r12, r24
    5bea:	d9 1e       	adc	r13, r25
    5bec:	ea 1e       	adc	r14, r26
    5bee:	fb 1e       	adc	r15, r27
    acc += (int32_t)W_hn[15][9] * (int32_t)h_state[9];
    5bf0:	2e e3       	ldi	r18, 0x3E	; 62
    5bf2:	30 e0       	ldi	r19, 0x00	; 0
    5bf4:	a9 85       	ldd	r26, Y+9	; 0x09
    5bf6:	ba 85       	ldd	r27, Y+10	; 0x0a
    5bf8:	0e 94 c2 32 	call	0x6584	; 0x6584 <__usmulhisi3>
    5bfc:	c6 0e       	add	r12, r22
    5bfe:	d7 1e       	adc	r13, r23
    5c00:	e8 1e       	adc	r14, r24
    5c02:	f9 1e       	adc	r15, r25
    acc += (int32_t)W_hn[15][10] * (int32_t)h_state[10];
    5c04:	c9 5d       	subi	r28, 0xD9	; 217
    5c06:	de 4f       	sbci	r29, 0xFE	; 254
    5c08:	28 81       	ld	r18, Y
    5c0a:	39 81       	ldd	r19, Y+1	; 0x01
    5c0c:	4a 81       	ldd	r20, Y+2	; 0x02
    5c0e:	5b 81       	ldd	r21, Y+3	; 0x03
    5c10:	c7 52       	subi	r28, 0x27	; 39
    5c12:	d1 40       	sbci	r29, 0x01	; 1
    5c14:	c2 0e       	add	r12, r18
    5c16:	d3 1e       	adc	r13, r19
    5c18:	e4 1e       	adc	r14, r20
    5c1a:	f5 1e       	adc	r15, r21
    acc += (int32_t)W_hn[15][11] * (int32_t)h_state[11];
    5c1c:	2a e1       	ldi	r18, 0x1A	; 26
    5c1e:	30 e0       	ldi	r19, 0x00	; 0
    5c20:	a9 8d       	ldd	r26, Y+25	; 0x19
    5c22:	ba 8d       	ldd	r27, Y+26	; 0x1a
    5c24:	0e 94 c2 32 	call	0x6584	; 0x6584 <__usmulhisi3>
    5c28:	c6 0e       	add	r12, r22
    5c2a:	d7 1e       	adc	r13, r23
    5c2c:	e8 1e       	adc	r14, r24
    5c2e:	f9 1e       	adc	r15, r25
    acc += (int32_t)W_hn[15][12] * (int32_t)h_state[12];
    5c30:	c1 53       	subi	r28, 0x31	; 49
    5c32:	df 4f       	sbci	r29, 0xFF	; 255
    5c34:	88 81       	ld	r24, Y
    5c36:	99 81       	ldd	r25, Y+1	; 0x01
    5c38:	aa 81       	ldd	r26, Y+2	; 0x02
    5c3a:	bb 81       	ldd	r27, Y+3	; 0x03
    5c3c:	cf 5c       	subi	r28, 0xCF	; 207
    5c3e:	d0 40       	sbci	r29, 0x00	; 0
    5c40:	c8 0e       	add	r12, r24
    5c42:	d9 1e       	adc	r13, r25
    5c44:	ea 1e       	adc	r14, r26
    5c46:	fb 1e       	adc	r15, r27
    acc += (int32_t)W_hn[15][13] * (int32_t)h_state[13];
    5c48:	6f 96       	adiw	r28, 0x1f	; 31
    5c4a:	2c ad       	ldd	r18, Y+60	; 0x3c
    5c4c:	3d ad       	ldd	r19, Y+61	; 0x3d
    5c4e:	4e ad       	ldd	r20, Y+62	; 0x3e
    5c50:	5f ad       	ldd	r21, Y+63	; 0x3f
    5c52:	6f 97       	sbiw	r28, 0x1f	; 31
    5c54:	c2 0e       	add	r12, r18
    5c56:	d3 1e       	adc	r13, r19
    5c58:	e4 1e       	adc	r14, r20
    5c5a:	f5 1e       	adc	r15, r21
    acc += (int32_t)W_hn[15][14] * (int32_t)h_state[14];
    5c5c:	2b e2       	ldi	r18, 0x2B	; 43
    5c5e:	30 e0       	ldi	r19, 0x00	; 0
    5c60:	ad 8d       	ldd	r26, Y+29	; 0x1d
    5c62:	be 8d       	ldd	r27, Y+30	; 0x1e
    5c64:	0e 94 c2 32 	call	0x6584	; 0x6584 <__usmulhisi3>
    5c68:	c6 0e       	add	r12, r22
    5c6a:	d7 1e       	adc	r13, r23
    5c6c:	e8 1e       	adc	r14, r24
    5c6e:	f9 1e       	adc	r15, r25
    acc += (int32_t)W_hn[15][15] * (int32_t)h_state[15];
    5c70:	2b 89       	ldd	r18, Y+19	; 0x13
    5c72:	3c 89       	ldd	r19, Y+20	; 0x14
    5c74:	a2 ee       	ldi	r26, 0xE2	; 226
    5c76:	bf ef       	ldi	r27, 0xFF	; 255
    5c78:	0e 94 ab 32 	call	0x6556	; 0x6556 <__mulhisi3>
    5c7c:	c6 0e       	add	r12, r22
    5c7e:	d7 1e       	adc	r13, r23
    5c80:	e8 1e       	adc	r14, r24
    5c82:	f9 1e       	adc	r15, r25
    acc >>= FRAC_BITS;
    5c84:	56 e0       	ldi	r21, 0x06	; 6
    5c86:	f5 94       	asr	r15
    5c88:	e7 94       	ror	r14
    5c8a:	d7 94       	ror	r13
    5c8c:	c7 94       	ror	r12
    5c8e:	5a 95       	dec	r21
    5c90:	d1 f7       	brne	.-12     	; 0x5c86 <__stack+0x3a87>
static inline int16_t fp_mul(int16_t a, int16_t b) {
    return (int16_t)(((int32_t)a * (int32_t)b) >> FRAC_BITS);
}

static inline int16_t fp_sat32(int32_t v) {
    if (v > FP_MAX) return FP_MAX;
    5c92:	af ef       	ldi	r26, 0xFF	; 255
    5c94:	bf e7       	ldi	r27, 0x7F	; 127
    5c96:	c1 14       	cp	r12, r1
    5c98:	30 e8       	ldi	r19, 0x80	; 128
    5c9a:	d3 06       	cpc	r13, r19
    5c9c:	e1 04       	cpc	r14, r1
    5c9e:	f1 04       	cpc	r15, r1
    5ca0:	54 f4       	brge	.+20     	; 0x5cb6 <__stack+0x3ab7>
    if (v < FP_MIN) return FP_MIN;
    return (int16_t)v;
    5ca2:	d6 01       	movw	r26, r12
    return (int16_t)(((int32_t)a * (int32_t)b) >> FRAC_BITS);
}

static inline int16_t fp_sat32(int32_t v) {
    if (v > FP_MAX) return FP_MAX;
    if (v < FP_MIN) return FP_MIN;
    5ca4:	c1 14       	cp	r12, r1
    5ca6:	40 e8       	ldi	r20, 0x80	; 128
    5ca8:	d4 06       	cpc	r13, r20
    5caa:	4f ef       	ldi	r20, 0xFF	; 255
    5cac:	e4 06       	cpc	r14, r20
    5cae:	f4 06       	cpc	r15, r20
    5cb0:	14 f4       	brge	.+4      	; 0x5cb6 <__stack+0x3ab7>
    5cb2:	a0 e0       	ldi	r26, 0x00	; 0
    5cb4:	b0 e8       	ldi	r27, 0x80	; 128
// ---------------------------------------------------------------------------
// Fixed-point primitives  (kept as inline functions so avr-gcc inlines them
// and the assembly is one flat sequence of instructions)
// ---------------------------------------------------------------------------
static inline int16_t fp_mul(int16_t a, int16_t b) {
    return (int16_t)(((int32_t)a * (int32_t)b) >> FRAC_BITS);
    5cb6:	cb 56       	subi	r28, 0x6B	; 107
    5cb8:	de 4f       	sbci	r29, 0xFE	; 254
    5cba:	28 81       	ld	r18, Y
    5cbc:	39 81       	ldd	r19, Y+1	; 0x01
    5cbe:	c5 59       	subi	r28, 0x95	; 149
    5cc0:	d1 40       	sbci	r29, 0x01	; 1
    5cc2:	0e 94 ab 32 	call	0x6556	; 0x6556 <__mulhisi3>
    5cc6:	dc 01       	movw	r26, r24
    5cc8:	cb 01       	movw	r24, r22
    5cca:	26 e0       	ldi	r18, 0x06	; 6
    5ccc:	b5 95       	asr	r27
    5cce:	a7 95       	ror	r26
    5cd0:	97 95       	ror	r25
    5cd2:	87 95       	ror	r24
    5cd4:	2a 95       	dec	r18
    5cd6:	d1 f7       	brne	.-12     	; 0x5ccc <__stack+0x3acd>
    acc += (int32_t)W_hn[15][13] * (int32_t)h_state[13];
    acc += (int32_t)W_hn[15][14] * (int32_t)h_state[14];
    acc += (int32_t)W_hn[15][15] * (int32_t)h_state[15];
    acc >>= FRAC_BITS;
    //   scale by r[15]
    acc = (int32_t)fp_mul(r[15], fp_sat32(acc));
    5cd8:	09 2e       	mov	r0, r25
    5cda:	00 0c       	add	r0, r0
    5cdc:	aa 0b       	sbc	r26, r26
    5cde:	bb 0b       	sbc	r27, r27
    acc += (int32_t)W_in[15][58] * (int32_t)x[58];
    acc += (int32_t)W_in[15][59] * (int32_t)x[59];
    acc += (int32_t)W_in[15][60] * (int32_t)x[60];
    acc += (int32_t)W_in[15][61] * (int32_t)x[61];
    acc += (int32_t)W_in[15][62] * (int32_t)x[62];
    acc += (int32_t)W_in[15][63] * (int32_t)x[63];
    5ce0:	8f 57       	subi	r24, 0x7F	; 127
    5ce2:	96 4c       	sbci	r25, 0xC6	; 198
    5ce4:	af 4f       	sbci	r26, 0xFF	; 255
    5ce6:	bf 4f       	sbci	r27, 0xFF	; 255
    acc >>= FRAC_BITS;
    5ce8:	36 e0       	ldi	r19, 0x06	; 6
    5cea:	b5 95       	asr	r27
    5cec:	a7 95       	ror	r26
    5cee:	97 95       	ror	r25
    5cf0:	87 95       	ror	r24
    5cf2:	3a 95       	dec	r19
    5cf4:	d1 f7       	brne	.-12     	; 0x5cea <__stack+0x3aeb>
    n[15] = fp_tanh(fp_sat32(acc));
    5cf6:	0e 94 1a 01 	call	0x234	; 0x234 <_ZL7fp_tanhi>
    5cfa:	4c 01       	movw	r8, r24
// ---------------------------------------------------------------------------
// Fixed-point primitives  (kept as inline functions so avr-gcc inlines them
// and the assembly is one flat sequence of instructions)
// ---------------------------------------------------------------------------
static inline int16_t fp_mul(int16_t a, int16_t b) {
    return (int16_t)(((int32_t)a * (int32_t)b) >> FRAC_BITS);
    5cfc:	2b 85       	ldd	r18, Y+11	; 0x0b
    5cfe:	3c 85       	ldd	r19, Y+12	; 0x0c
    5d00:	c9 55       	subi	r28, 0x59	; 89
    5d02:	df 4f       	sbci	r29, 0xFF	; 255
    5d04:	a8 81       	ld	r26, Y
    5d06:	b9 81       	ldd	r27, Y+1	; 0x01
    5d08:	c7 5a       	subi	r28, 0xA7	; 167
    5d0a:	d0 40       	sbci	r29, 0x00	; 0
    5d0c:	0e 94 ab 32 	call	0x6556	; 0x6556 <__mulhisi3>
    5d10:	6b 01       	movw	r12, r22
    5d12:	7c 01       	movw	r14, r24
    5d14:	46 e0       	ldi	r20, 0x06	; 6
    5d16:	f5 94       	asr	r15
    5d18:	e7 94       	ror	r14
    5d1a:	d7 94       	ror	r13
    5d1c:	c7 94       	ror	r12
    5d1e:	4a 95       	dec	r20
    5d20:	d1 f7       	brne	.-12     	; 0x5d16 <__stack+0x3b17>
    n[15] = fp_tanh(fp_sat32(acc));

    // ================================================================
    // HIDDEN STATE UPDATE:  h[i] = (1-z[i])*n[i] + z[i]*h_prev[i]
    // ================================================================
    h_state[0] = fp_add_sat(
    5d22:	20 e4       	ldi	r18, 0x40	; 64
    5d24:	30 e0       	ldi	r19, 0x00	; 0
    5d26:	2a 1b       	sub	r18, r26
    5d28:	3b 0b       	sbc	r19, r27
// ---------------------------------------------------------------------------
// Fixed-point primitives  (kept as inline functions so avr-gcc inlines them
// and the assembly is one flat sequence of instructions)
// ---------------------------------------------------------------------------
static inline int16_t fp_mul(int16_t a, int16_t b) {
    return (int16_t)(((int32_t)a * (int32_t)b) >> FRAC_BITS);
    5d2a:	c9 54       	subi	r28, 0x49	; 73
    5d2c:	df 4f       	sbci	r29, 0xFF	; 255
    5d2e:	a8 81       	ld	r26, Y
    5d30:	b9 81       	ldd	r27, Y+1	; 0x01
    5d32:	c7 5b       	subi	r28, 0xB7	; 183
    5d34:	d0 40       	sbci	r29, 0x00	; 0
    5d36:	0e 94 ab 32 	call	0x6556	; 0x6556 <__mulhisi3>
    5d3a:	dc 01       	movw	r26, r24
    5d3c:	cb 01       	movw	r24, r22
    5d3e:	56 e0       	ldi	r21, 0x06	; 6
    5d40:	b5 95       	asr	r27
    5d42:	a7 95       	ror	r26
    5d44:	97 95       	ror	r25
    5d46:	87 95       	ror	r24
    5d48:	5a 95       	dec	r21
    5d4a:	d1 f7       	brne	.-12     	; 0x5d40 <__stack+0x3b41>
    n[15] = fp_tanh(fp_sat32(acc));

    // ================================================================
    // HIDDEN STATE UPDATE:  h[i] = (1-z[i])*n[i] + z[i]*h_prev[i]
    // ================================================================
    h_state[0] = fp_add_sat(
    5d4c:	b6 01       	movw	r22, r12
    5d4e:	0e 94 95 00 	call	0x12a	; 0x12a <_ZL10fp_add_satii>
    5d52:	9c 87       	std	Y+12, r25	; 0x0c
    5d54:	8b 87       	std	Y+11, r24	; 0x0b
// ---------------------------------------------------------------------------
// Fixed-point primitives  (kept as inline functions so avr-gcc inlines them
// and the assembly is one flat sequence of instructions)
// ---------------------------------------------------------------------------
static inline int16_t fp_mul(int16_t a, int16_t b) {
    return (int16_t)(((int32_t)a * (int32_t)b) >> FRAC_BITS);
    5d56:	2f 81       	ldd	r18, Y+7	; 0x07
    5d58:	38 85       	ldd	r19, Y+8	; 0x08
    5d5a:	c1 5c       	subi	r28, 0xC1	; 193
    5d5c:	de 4f       	sbci	r29, 0xFE	; 254
    5d5e:	a8 81       	ld	r26, Y
    5d60:	b9 81       	ldd	r27, Y+1	; 0x01
    5d62:	cf 53       	subi	r28, 0x3F	; 63
    5d64:	d1 40       	sbci	r29, 0x01	; 1
    5d66:	0e 94 ab 32 	call	0x6556	; 0x6556 <__mulhisi3>
    5d6a:	6b 01       	movw	r12, r22
    5d6c:	7c 01       	movw	r14, r24
    5d6e:	66 e0       	ldi	r22, 0x06	; 6
    5d70:	f5 94       	asr	r15
    5d72:	e7 94       	ror	r14
    5d74:	d7 94       	ror	r13
    5d76:	c7 94       	ror	r12
    5d78:	6a 95       	dec	r22
    5d7a:	d1 f7       	brne	.-12     	; 0x5d70 <__stack+0x3b71>
    // ================================================================
    h_state[0] = fp_add_sat(
        fp_mul((int16_t)(FP_ONE - z[0]), n[0]),
        fp_mul(z[0], h_state[0])
    );
    h_state[1] = fp_add_sat(
    5d7c:	20 e4       	ldi	r18, 0x40	; 64
    5d7e:	30 e0       	ldi	r19, 0x00	; 0
    5d80:	2a 1b       	sub	r18, r26
    5d82:	3b 0b       	sbc	r19, r27
// ---------------------------------------------------------------------------
// Fixed-point primitives  (kept as inline functions so avr-gcc inlines them
// and the assembly is one flat sequence of instructions)
// ---------------------------------------------------------------------------
static inline int16_t fp_mul(int16_t a, int16_t b) {
    return (int16_t)(((int32_t)a * (int32_t)b) >> FRAC_BITS);
    5d84:	ad 96       	adiw	r28, 0x2d	; 45
    5d86:	ae ad       	ldd	r26, Y+62	; 0x3e
    5d88:	bf ad       	ldd	r27, Y+63	; 0x3f
    5d8a:	ad 97       	sbiw	r28, 0x2d	; 45
    5d8c:	0e 94 ab 32 	call	0x6556	; 0x6556 <__mulhisi3>
    5d90:	dc 01       	movw	r26, r24
    5d92:	cb 01       	movw	r24, r22
    5d94:	76 e0       	ldi	r23, 0x06	; 6
    5d96:	b5 95       	asr	r27
    5d98:	a7 95       	ror	r26
    5d9a:	97 95       	ror	r25
    5d9c:	87 95       	ror	r24
    5d9e:	7a 95       	dec	r23
    5da0:	d1 f7       	brne	.-12     	; 0x5d96 <__stack+0x3b97>
    // ================================================================
    h_state[0] = fp_add_sat(
        fp_mul((int16_t)(FP_ONE - z[0]), n[0]),
        fp_mul(z[0], h_state[0])
    );
    h_state[1] = fp_add_sat(
    5da2:	b6 01       	movw	r22, r12
    5da4:	0e 94 95 00 	call	0x12a	; 0x12a <_ZL10fp_add_satii>
    5da8:	98 87       	std	Y+8, r25	; 0x08
    5daa:	8f 83       	std	Y+7, r24	; 0x07
// ---------------------------------------------------------------------------
// Fixed-point primitives  (kept as inline functions so avr-gcc inlines them
// and the assembly is one flat sequence of instructions)
// ---------------------------------------------------------------------------
static inline int16_t fp_mul(int16_t a, int16_t b) {
    return (int16_t)(((int32_t)a * (int32_t)b) >> FRAC_BITS);
    5dac:	2d 89       	ldd	r18, Y+21	; 0x15
    5dae:	3e 89       	ldd	r19, Y+22	; 0x16
    5db0:	c1 56       	subi	r28, 0x61	; 97
    5db2:	df 4f       	sbci	r29, 0xFF	; 255
    5db4:	a8 81       	ld	r26, Y
    5db6:	b9 81       	ldd	r27, Y+1	; 0x01
    5db8:	cf 59       	subi	r28, 0x9F	; 159
    5dba:	d0 40       	sbci	r29, 0x00	; 0
    5dbc:	0e 94 ab 32 	call	0x6556	; 0x6556 <__mulhisi3>
    5dc0:	6b 01       	movw	r12, r22
    5dc2:	7c 01       	movw	r14, r24
    5dc4:	e6 e0       	ldi	r30, 0x06	; 6
    5dc6:	f5 94       	asr	r15
    5dc8:	e7 94       	ror	r14
    5dca:	d7 94       	ror	r13
    5dcc:	c7 94       	ror	r12
    5dce:	ea 95       	dec	r30
    5dd0:	d1 f7       	brne	.-12     	; 0x5dc6 <__stack+0x3bc7>
    );
    h_state[1] = fp_add_sat(
        fp_mul((int16_t)(FP_ONE - z[1]), n[1]),
        fp_mul(z[1], h_state[1])
    );
    h_state[2] = fp_add_sat(
    5dd2:	20 e4       	ldi	r18, 0x40	; 64
    5dd4:	30 e0       	ldi	r19, 0x00	; 0
    5dd6:	2a 1b       	sub	r18, r26
    5dd8:	3b 0b       	sbc	r19, r27
// ---------------------------------------------------------------------------
// Fixed-point primitives  (kept as inline functions so avr-gcc inlines them
// and the assembly is one flat sequence of instructions)
// ---------------------------------------------------------------------------
static inline int16_t fp_mul(int16_t a, int16_t b) {
    return (int16_t)(((int32_t)a * (int32_t)b) >> FRAC_BITS);
    5dda:	af a9       	ldd	r26, Y+55	; 0x37
    5ddc:	b8 ad       	ldd	r27, Y+56	; 0x38
    5dde:	0e 94 ab 32 	call	0x6556	; 0x6556 <__mulhisi3>
    5de2:	dc 01       	movw	r26, r24
    5de4:	cb 01       	movw	r24, r22
    5de6:	f6 e0       	ldi	r31, 0x06	; 6
    5de8:	b5 95       	asr	r27
    5dea:	a7 95       	ror	r26
    5dec:	97 95       	ror	r25
    5dee:	87 95       	ror	r24
    5df0:	fa 95       	dec	r31
    5df2:	d1 f7       	brne	.-12     	; 0x5de8 <__stack+0x3be9>
    );
    h_state[1] = fp_add_sat(
        fp_mul((int16_t)(FP_ONE - z[1]), n[1]),
        fp_mul(z[1], h_state[1])
    );
    h_state[2] = fp_add_sat(
    5df4:	b6 01       	movw	r22, r12
    5df6:	0e 94 95 00 	call	0x12a	; 0x12a <_ZL10fp_add_satii>
    5dfa:	9e 8b       	std	Y+22, r25	; 0x16
    5dfc:	8d 8b       	std	Y+21, r24	; 0x15
// ---------------------------------------------------------------------------
// Fixed-point primitives  (kept as inline functions so avr-gcc inlines them
// and the assembly is one flat sequence of instructions)
// ---------------------------------------------------------------------------
static inline int16_t fp_mul(int16_t a, int16_t b) {
    return (int16_t)(((int32_t)a * (int32_t)b) >> FRAC_BITS);
    5dfe:	91 01       	movw	r18, r2
    5e00:	c1 55       	subi	r28, 0x51	; 81
    5e02:	df 4f       	sbci	r29, 0xFF	; 255
    5e04:	a8 81       	ld	r26, Y
    5e06:	b9 81       	ldd	r27, Y+1	; 0x01
    5e08:	cf 5a       	subi	r28, 0xAF	; 175
    5e0a:	d0 40       	sbci	r29, 0x00	; 0
    5e0c:	0e 94 ab 32 	call	0x6556	; 0x6556 <__mulhisi3>
    5e10:	6b 01       	movw	r12, r22
    5e12:	7c 01       	movw	r14, r24
    5e14:	86 e0       	ldi	r24, 0x06	; 6
    5e16:	f5 94       	asr	r15
    5e18:	e7 94       	ror	r14
    5e1a:	d7 94       	ror	r13
    5e1c:	c7 94       	ror	r12
    5e1e:	8a 95       	dec	r24
    5e20:	d1 f7       	brne	.-12     	; 0x5e16 <__stack+0x3c17>
    );
    h_state[2] = fp_add_sat(
        fp_mul((int16_t)(FP_ONE - z[2]), n[2]),
        fp_mul(z[2], h_state[2])
    );
    h_state[3] = fp_add_sat(
    5e22:	20 e4       	ldi	r18, 0x40	; 64
    5e24:	30 e0       	ldi	r19, 0x00	; 0
    5e26:	2a 1b       	sub	r18, r26
    5e28:	3b 0b       	sbc	r19, r27
// ---------------------------------------------------------------------------
// Fixed-point primitives  (kept as inline functions so avr-gcc inlines them
// and the assembly is one flat sequence of instructions)
// ---------------------------------------------------------------------------
static inline int16_t fp_mul(int16_t a, int16_t b) {
    return (int16_t)(((int32_t)a * (int32_t)b) >> FRAC_BITS);
    5e2a:	a9 81       	ldd	r26, Y+1	; 0x01
    5e2c:	ba 81       	ldd	r27, Y+2	; 0x02
    5e2e:	0e 94 ab 32 	call	0x6556	; 0x6556 <__mulhisi3>
    5e32:	dc 01       	movw	r26, r24
    5e34:	cb 01       	movw	r24, r22
    5e36:	26 e0       	ldi	r18, 0x06	; 6
    5e38:	b5 95       	asr	r27
    5e3a:	a7 95       	ror	r26
    5e3c:	97 95       	ror	r25
    5e3e:	87 95       	ror	r24
    5e40:	2a 95       	dec	r18
    5e42:	d1 f7       	brne	.-12     	; 0x5e38 <__stack+0x3c39>
    );
    h_state[2] = fp_add_sat(
        fp_mul((int16_t)(FP_ONE - z[2]), n[2]),
        fp_mul(z[2], h_state[2])
    );
    h_state[3] = fp_add_sat(
    5e44:	b6 01       	movw	r22, r12
    5e46:	0e 94 95 00 	call	0x12a	; 0x12a <_ZL10fp_add_satii>
    5e4a:	1c 01       	movw	r2, r24
// ---------------------------------------------------------------------------
// Fixed-point primitives  (kept as inline functions so avr-gcc inlines them
// and the assembly is one flat sequence of instructions)
// ---------------------------------------------------------------------------
static inline int16_t fp_mul(int16_t a, int16_t b) {
    return (int16_t)(((int32_t)a * (int32_t)b) >> FRAC_BITS);
    5e4c:	2d 81       	ldd	r18, Y+5	; 0x05
    5e4e:	3e 81       	ldd	r19, Y+6	; 0x06
    5e50:	c7 5a       	subi	r28, 0xA7	; 167
    5e52:	de 4f       	sbci	r29, 0xFE	; 254
    5e54:	a8 81       	ld	r26, Y
    5e56:	b9 81       	ldd	r27, Y+1	; 0x01
    5e58:	c9 55       	subi	r28, 0x59	; 89
    5e5a:	d1 40       	sbci	r29, 0x01	; 1
    5e5c:	0e 94 ab 32 	call	0x6556	; 0x6556 <__mulhisi3>
    5e60:	6b 01       	movw	r12, r22
    5e62:	7c 01       	movw	r14, r24
    5e64:	36 e0       	ldi	r19, 0x06	; 6
    5e66:	f5 94       	asr	r15
    5e68:	e7 94       	ror	r14
    5e6a:	d7 94       	ror	r13
    5e6c:	c7 94       	ror	r12
    5e6e:	3a 95       	dec	r19
    5e70:	d1 f7       	brne	.-12     	; 0x5e66 <__stack+0x3c67>
    );
    h_state[3] = fp_add_sat(
        fp_mul((int16_t)(FP_ONE - z[3]), n[3]),
        fp_mul(z[3], h_state[3])
    );
    h_state[4] = fp_add_sat(
    5e72:	20 e4       	ldi	r18, 0x40	; 64
    5e74:	30 e0       	ldi	r19, 0x00	; 0
    5e76:	2a 1b       	sub	r18, r26
    5e78:	3b 0b       	sbc	r19, r27
// ---------------------------------------------------------------------------
// Fixed-point primitives  (kept as inline functions so avr-gcc inlines them
// and the assembly is one flat sequence of instructions)
// ---------------------------------------------------------------------------
static inline int16_t fp_mul(int16_t a, int16_t b) {
    return (int16_t)(((int32_t)a * (int32_t)b) >> FRAC_BITS);
    5e7a:	c5 54       	subi	r28, 0x45	; 69
    5e7c:	df 4f       	sbci	r29, 0xFF	; 255
    5e7e:	a8 81       	ld	r26, Y
    5e80:	b9 81       	ldd	r27, Y+1	; 0x01
    5e82:	cb 5b       	subi	r28, 0xBB	; 187
    5e84:	d0 40       	sbci	r29, 0x00	; 0
    5e86:	0e 94 ab 32 	call	0x6556	; 0x6556 <__mulhisi3>
    5e8a:	dc 01       	movw	r26, r24
    5e8c:	cb 01       	movw	r24, r22
    5e8e:	46 e0       	ldi	r20, 0x06	; 6
    5e90:	b5 95       	asr	r27
    5e92:	a7 95       	ror	r26
    5e94:	97 95       	ror	r25
    5e96:	87 95       	ror	r24
    5e98:	4a 95       	dec	r20
    5e9a:	d1 f7       	brne	.-12     	; 0x5e90 <__stack+0x3c91>
    );
    h_state[3] = fp_add_sat(
        fp_mul((int16_t)(FP_ONE - z[3]), n[3]),
        fp_mul(z[3], h_state[3])
    );
    h_state[4] = fp_add_sat(
    5e9c:	b6 01       	movw	r22, r12
    5e9e:	0e 94 95 00 	call	0x12a	; 0x12a <_ZL10fp_add_satii>
    5ea2:	9e 83       	std	Y+6, r25	; 0x06
    5ea4:	8d 83       	std	Y+5, r24	; 0x05
// ---------------------------------------------------------------------------
// Fixed-point primitives  (kept as inline functions so avr-gcc inlines them
// and the assembly is one flat sequence of instructions)
// ---------------------------------------------------------------------------
static inline int16_t fp_mul(int16_t a, int16_t b) {
    return (int16_t)(((int32_t)a * (int32_t)b) >> FRAC_BITS);
    5ea6:	2d 85       	ldd	r18, Y+13	; 0x0d
    5ea8:	3e 85       	ldd	r19, Y+14	; 0x0e
    5eaa:	c5 57       	subi	r28, 0x75	; 117
    5eac:	df 4f       	sbci	r29, 0xFF	; 255
    5eae:	a8 81       	ld	r26, Y
    5eb0:	b9 81       	ldd	r27, Y+1	; 0x01
    5eb2:	cb 58       	subi	r28, 0x8B	; 139
    5eb4:	d0 40       	sbci	r29, 0x00	; 0
    5eb6:	0e 94 ab 32 	call	0x6556	; 0x6556 <__mulhisi3>
    5eba:	6b 01       	movw	r12, r22
    5ebc:	7c 01       	movw	r14, r24
    5ebe:	56 e0       	ldi	r21, 0x06	; 6
    5ec0:	f5 94       	asr	r15
    5ec2:	e7 94       	ror	r14
    5ec4:	d7 94       	ror	r13
    5ec6:	c7 94       	ror	r12
    5ec8:	5a 95       	dec	r21
    5eca:	d1 f7       	brne	.-12     	; 0x5ec0 <__stack+0x3cc1>
    );
    h_state[4] = fp_add_sat(
        fp_mul((int16_t)(FP_ONE - z[4]), n[4]),
        fp_mul(z[4], h_state[4])
    );
    h_state[5] = fp_add_sat(
    5ecc:	20 e4       	ldi	r18, 0x40	; 64
    5ece:	30 e0       	ldi	r19, 0x00	; 0
    5ed0:	2a 1b       	sub	r18, r26
    5ed2:	3b 0b       	sbc	r19, r27
// ---------------------------------------------------------------------------
// Fixed-point primitives  (kept as inline functions so avr-gcc inlines them
// and the assembly is one flat sequence of instructions)
// ---------------------------------------------------------------------------
static inline int16_t fp_mul(int16_t a, int16_t b) {
    return (int16_t)(((int32_t)a * (int32_t)b) >> FRAC_BITS);
    5ed4:	2d 96       	adiw	r28, 0x0d	; 13
    5ed6:	ae ad       	ldd	r26, Y+62	; 0x3e
    5ed8:	bf ad       	ldd	r27, Y+63	; 0x3f
    5eda:	2d 97       	sbiw	r28, 0x0d	; 13
    5edc:	0e 94 ab 32 	call	0x6556	; 0x6556 <__mulhisi3>
    5ee0:	dc 01       	movw	r26, r24
    5ee2:	cb 01       	movw	r24, r22
    5ee4:	66 e0       	ldi	r22, 0x06	; 6
    5ee6:	b5 95       	asr	r27
    5ee8:	a7 95       	ror	r26
    5eea:	97 95       	ror	r25
    5eec:	87 95       	ror	r24
    5eee:	6a 95       	dec	r22
    5ef0:	d1 f7       	brne	.-12     	; 0x5ee6 <__stack+0x3ce7>
    );
    h_state[4] = fp_add_sat(
        fp_mul((int16_t)(FP_ONE - z[4]), n[4]),
        fp_mul(z[4], h_state[4])
    );
    h_state[5] = fp_add_sat(
    5ef2:	b6 01       	movw	r22, r12
    5ef4:	0e 94 95 00 	call	0x12a	; 0x12a <_ZL10fp_add_satii>
    5ef8:	9e 87       	std	Y+14, r25	; 0x0e
    5efa:	8d 87       	std	Y+13, r24	; 0x0d
// ---------------------------------------------------------------------------
// Fixed-point primitives  (kept as inline functions so avr-gcc inlines them
// and the assembly is one flat sequence of instructions)
// ---------------------------------------------------------------------------
static inline int16_t fp_mul(int16_t a, int16_t b) {
    return (int16_t)(((int32_t)a * (int32_t)b) >> FRAC_BITS);
    5efc:	c9 56       	subi	r28, 0x69	; 105
    5efe:	de 4f       	sbci	r29, 0xFE	; 254
    5f00:	28 81       	ld	r18, Y
    5f02:	39 81       	ldd	r19, Y+1	; 0x01
    5f04:	c7 59       	subi	r28, 0x97	; 151
    5f06:	d1 40       	sbci	r29, 0x01	; 1
    5f08:	c1 5a       	subi	r28, 0xA1	; 161
    5f0a:	de 4f       	sbci	r29, 0xFE	; 254
    5f0c:	a8 81       	ld	r26, Y
    5f0e:	b9 81       	ldd	r27, Y+1	; 0x01
    5f10:	cf 55       	subi	r28, 0x5F	; 95
    5f12:	d1 40       	sbci	r29, 0x01	; 1
    5f14:	0e 94 ab 32 	call	0x6556	; 0x6556 <__mulhisi3>
    5f18:	6b 01       	movw	r12, r22
    5f1a:	7c 01       	movw	r14, r24
    5f1c:	76 e0       	ldi	r23, 0x06	; 6
    5f1e:	f5 94       	asr	r15
    5f20:	e7 94       	ror	r14
    5f22:	d7 94       	ror	r13
    5f24:	c7 94       	ror	r12
    5f26:	7a 95       	dec	r23
    5f28:	d1 f7       	brne	.-12     	; 0x5f1e <__stack+0x3d1f>
    );
    h_state[5] = fp_add_sat(
        fp_mul((int16_t)(FP_ONE - z[5]), n[5]),
        fp_mul(z[5], h_state[5])
    );
    h_state[6] = fp_add_sat(
    5f2a:	20 e4       	ldi	r18, 0x40	; 64
    5f2c:	30 e0       	ldi	r19, 0x00	; 0
    5f2e:	2a 1b       	sub	r18, r26
    5f30:	3b 0b       	sbc	r19, r27
// ---------------------------------------------------------------------------
// Fixed-point primitives  (kept as inline functions so avr-gcc inlines them
// and the assembly is one flat sequence of instructions)
// ---------------------------------------------------------------------------
static inline int16_t fp_mul(int16_t a, int16_t b) {
    return (int16_t)(((int32_t)a * (int32_t)b) >> FRAC_BITS);
    5f32:	e1 96       	adiw	r28, 0x31	; 49
    5f34:	ae ad       	ldd	r26, Y+62	; 0x3e
    5f36:	bf ad       	ldd	r27, Y+63	; 0x3f
    5f38:	e1 97       	sbiw	r28, 0x31	; 49
    5f3a:	0e 94 ab 32 	call	0x6556	; 0x6556 <__mulhisi3>
    5f3e:	dc 01       	movw	r26, r24
    5f40:	cb 01       	movw	r24, r22
    5f42:	e6 e0       	ldi	r30, 0x06	; 6
    5f44:	b5 95       	asr	r27
    5f46:	a7 95       	ror	r26
    5f48:	97 95       	ror	r25
    5f4a:	87 95       	ror	r24
    5f4c:	ea 95       	dec	r30
    5f4e:	d1 f7       	brne	.-12     	; 0x5f44 <__stack+0x3d45>
    );
    h_state[5] = fp_add_sat(
        fp_mul((int16_t)(FP_ONE - z[5]), n[5]),
        fp_mul(z[5], h_state[5])
    );
    h_state[6] = fp_add_sat(
    5f50:	b6 01       	movw	r22, r12
    5f52:	0e 94 95 00 	call	0x12a	; 0x12a <_ZL10fp_add_satii>
    5f56:	c9 56       	subi	r28, 0x69	; 105
    5f58:	de 4f       	sbci	r29, 0xFE	; 254
    5f5a:	99 83       	std	Y+1, r25	; 0x01
    5f5c:	88 83       	st	Y, r24
    5f5e:	c7 59       	subi	r28, 0x97	; 151
    5f60:	d1 40       	sbci	r29, 0x01	; 1
// ---------------------------------------------------------------------------
// Fixed-point primitives  (kept as inline functions so avr-gcc inlines them
// and the assembly is one flat sequence of instructions)
// ---------------------------------------------------------------------------
static inline int16_t fp_mul(int16_t a, int16_t b) {
    return (int16_t)(((int32_t)a * (int32_t)b) >> FRAC_BITS);
    5f62:	29 89       	ldd	r18, Y+17	; 0x11
    5f64:	3a 89       	ldd	r19, Y+18	; 0x12
    5f66:	c7 59       	subi	r28, 0x97	; 151
    5f68:	de 4f       	sbci	r29, 0xFE	; 254
    5f6a:	a8 81       	ld	r26, Y
    5f6c:	b9 81       	ldd	r27, Y+1	; 0x01
    5f6e:	c9 56       	subi	r28, 0x69	; 105
    5f70:	d1 40       	sbci	r29, 0x01	; 1
    5f72:	0e 94 ab 32 	call	0x6556	; 0x6556 <__mulhisi3>
    5f76:	6b 01       	movw	r12, r22
    5f78:	7c 01       	movw	r14, r24
    5f7a:	f6 e0       	ldi	r31, 0x06	; 6
    5f7c:	f5 94       	asr	r15
    5f7e:	e7 94       	ror	r14
    5f80:	d7 94       	ror	r13
    5f82:	c7 94       	ror	r12
    5f84:	fa 95       	dec	r31
    5f86:	d1 f7       	brne	.-12     	; 0x5f7c <__stack+0x3d7d>
    );
    h_state[6] = fp_add_sat(
        fp_mul((int16_t)(FP_ONE - z[6]), n[6]),
        fp_mul(z[6], h_state[6])
    );
    h_state[7] = fp_add_sat(
    5f88:	20 e4       	ldi	r18, 0x40	; 64
    5f8a:	30 e0       	ldi	r19, 0x00	; 0
    5f8c:	2a 1b       	sub	r18, r26
    5f8e:	3b 0b       	sbc	r19, r27
// ---------------------------------------------------------------------------
// Fixed-point primitives  (kept as inline functions so avr-gcc inlines them
// and the assembly is one flat sequence of instructions)
// ---------------------------------------------------------------------------
static inline int16_t fp_mul(int16_t a, int16_t b) {
    return (int16_t)(((int32_t)a * (int32_t)b) >> FRAC_BITS);
    5f90:	29 96       	adiw	r28, 0x09	; 9
    5f92:	ae ad       	ldd	r26, Y+62	; 0x3e
    5f94:	bf ad       	ldd	r27, Y+63	; 0x3f
    5f96:	29 97       	sbiw	r28, 0x09	; 9
    5f98:	0e 94 ab 32 	call	0x6556	; 0x6556 <__mulhisi3>
    5f9c:	dc 01       	movw	r26, r24
    5f9e:	cb 01       	movw	r24, r22
    5fa0:	26 e0       	ldi	r18, 0x06	; 6
    5fa2:	b5 95       	asr	r27
    5fa4:	a7 95       	ror	r26
    5fa6:	97 95       	ror	r25
    5fa8:	87 95       	ror	r24
    5faa:	2a 95       	dec	r18
    5fac:	d1 f7       	brne	.-12     	; 0x5fa2 <__stack+0x3da3>
    );
    h_state[6] = fp_add_sat(
        fp_mul((int16_t)(FP_ONE - z[6]), n[6]),
        fp_mul(z[6], h_state[6])
    );
    h_state[7] = fp_add_sat(
    5fae:	b6 01       	movw	r22, r12
    5fb0:	0e 94 95 00 	call	0x12a	; 0x12a <_ZL10fp_add_satii>
    5fb4:	9a 8b       	std	Y+18, r25	; 0x12
    5fb6:	89 8b       	std	Y+17, r24	; 0x11
// ---------------------------------------------------------------------------
// Fixed-point primitives  (kept as inline functions so avr-gcc inlines them
// and the assembly is one flat sequence of instructions)
// ---------------------------------------------------------------------------
static inline int16_t fp_mul(int16_t a, int16_t b) {
    return (int16_t)(((int32_t)a * (int32_t)b) >> FRAC_BITS);
    5fb8:	2f 89       	ldd	r18, Y+23	; 0x17
    5fba:	38 8d       	ldd	r19, Y+24	; 0x18
    5fbc:	c5 56       	subi	r28, 0x65	; 101
    5fbe:	df 4f       	sbci	r29, 0xFF	; 255
    5fc0:	a8 81       	ld	r26, Y
    5fc2:	b9 81       	ldd	r27, Y+1	; 0x01
    5fc4:	cb 59       	subi	r28, 0x9B	; 155
    5fc6:	d0 40       	sbci	r29, 0x00	; 0
    5fc8:	0e 94 ab 32 	call	0x6556	; 0x6556 <__mulhisi3>
    5fcc:	6b 01       	movw	r12, r22
    5fce:	7c 01       	movw	r14, r24
    5fd0:	36 e0       	ldi	r19, 0x06	; 6
    5fd2:	f5 94       	asr	r15
    5fd4:	e7 94       	ror	r14
    5fd6:	d7 94       	ror	r13
    5fd8:	c7 94       	ror	r12
    5fda:	3a 95       	dec	r19
    5fdc:	d1 f7       	brne	.-12     	; 0x5fd2 <__stack+0x3dd3>
    );
    h_state[7] = fp_add_sat(
        fp_mul((int16_t)(FP_ONE - z[7]), n[7]),
        fp_mul(z[7], h_state[7])
    );
    h_state[8] = fp_add_sat(
    5fde:	20 e4       	ldi	r18, 0x40	; 64
    5fe0:	30 e0       	ldi	r19, 0x00	; 0
    5fe2:	2a 1b       	sub	r18, r26
    5fe4:	3b 0b       	sbc	r19, r27
// ---------------------------------------------------------------------------
// Fixed-point primitives  (kept as inline functions so avr-gcc inlines them
// and the assembly is one flat sequence of instructions)
// ---------------------------------------------------------------------------
static inline int16_t fp_mul(int16_t a, int16_t b) {
    return (int16_t)(((int32_t)a * (int32_t)b) >> FRAC_BITS);
    5fe6:	21 96       	adiw	r28, 0x01	; 1
    5fe8:	ae ad       	ldd	r26, Y+62	; 0x3e
    5fea:	bf ad       	ldd	r27, Y+63	; 0x3f
    5fec:	21 97       	sbiw	r28, 0x01	; 1
    5fee:	0e 94 ab 32 	call	0x6556	; 0x6556 <__mulhisi3>
    5ff2:	dc 01       	movw	r26, r24
    5ff4:	cb 01       	movw	r24, r22
    5ff6:	46 e0       	ldi	r20, 0x06	; 6
    5ff8:	b5 95       	asr	r27
    5ffa:	a7 95       	ror	r26
    5ffc:	97 95       	ror	r25
    5ffe:	87 95       	ror	r24
    6000:	4a 95       	dec	r20
    6002:	d1 f7       	brne	.-12     	; 0x5ff8 <__stack+0x3df9>
    );
    h_state[7] = fp_add_sat(
        fp_mul((int16_t)(FP_ONE - z[7]), n[7]),
        fp_mul(z[7], h_state[7])
    );
    h_state[8] = fp_add_sat(
    6004:	b6 01       	movw	r22, r12
    6006:	0e 94 95 00 	call	0x12a	; 0x12a <_ZL10fp_add_satii>
    600a:	98 8f       	std	Y+24, r25	; 0x18
    600c:	8f 8b       	std	Y+23, r24	; 0x17
// ---------------------------------------------------------------------------
// Fixed-point primitives  (kept as inline functions so avr-gcc inlines them
// and the assembly is one flat sequence of instructions)
// ---------------------------------------------------------------------------
static inline int16_t fp_mul(int16_t a, int16_t b) {
    return (int16_t)(((int32_t)a * (int32_t)b) >> FRAC_BITS);
    600e:	29 85       	ldd	r18, Y+9	; 0x09
    6010:	3a 85       	ldd	r19, Y+10	; 0x0a
    6012:	c1 58       	subi	r28, 0x81	; 129
    6014:	df 4f       	sbci	r29, 0xFF	; 255
    6016:	a8 81       	ld	r26, Y
    6018:	b9 81       	ldd	r27, Y+1	; 0x01
    601a:	cf 57       	subi	r28, 0x7F	; 127
    601c:	d0 40       	sbci	r29, 0x00	; 0
    601e:	0e 94 ab 32 	call	0x6556	; 0x6556 <__mulhisi3>
    6022:	6b 01       	movw	r12, r22
    6024:	7c 01       	movw	r14, r24
    6026:	56 e0       	ldi	r21, 0x06	; 6
    6028:	f5 94       	asr	r15
    602a:	e7 94       	ror	r14
    602c:	d7 94       	ror	r13
    602e:	c7 94       	ror	r12
    6030:	5a 95       	dec	r21
    6032:	d1 f7       	brne	.-12     	; 0x6028 <__stack+0x3e29>
    );
    h_state[8] = fp_add_sat(
        fp_mul((int16_t)(FP_ONE - z[8]), n[8]),
        fp_mul(z[8], h_state[8])
    );
    h_state[9] = fp_add_sat(
    6034:	20 e4       	ldi	r18, 0x40	; 64
    6036:	30 e0       	ldi	r19, 0x00	; 0
    6038:	2a 1b       	sub	r18, r26
    603a:	3b 0b       	sbc	r19, r27
// ---------------------------------------------------------------------------
// Fixed-point primitives  (kept as inline functions so avr-gcc inlines them
// and the assembly is one flat sequence of instructions)
// ---------------------------------------------------------------------------
static inline int16_t fp_mul(int16_t a, int16_t b) {
    return (int16_t)(((int32_t)a * (int32_t)b) >> FRAC_BITS);
    603c:	af 8d       	ldd	r26, Y+31	; 0x1f
    603e:	b8 a1       	ldd	r27, Y+32	; 0x20
    6040:	0e 94 ab 32 	call	0x6556	; 0x6556 <__mulhisi3>
    6044:	dc 01       	movw	r26, r24
    6046:	cb 01       	movw	r24, r22
    6048:	66 e0       	ldi	r22, 0x06	; 6
    604a:	b5 95       	asr	r27
    604c:	a7 95       	ror	r26
    604e:	97 95       	ror	r25
    6050:	87 95       	ror	r24
    6052:	6a 95       	dec	r22
    6054:	d1 f7       	brne	.-12     	; 0x604a <__stack+0x3e4b>
    );
    h_state[8] = fp_add_sat(
        fp_mul((int16_t)(FP_ONE - z[8]), n[8]),
        fp_mul(z[8], h_state[8])
    );
    h_state[9] = fp_add_sat(
    6056:	b6 01       	movw	r22, r12
    6058:	0e 94 95 00 	call	0x12a	; 0x12a <_ZL10fp_add_satii>
    605c:	9a 87       	std	Y+10, r25	; 0x0a
    605e:	89 87       	std	Y+9, r24	; 0x09
// ---------------------------------------------------------------------------
// Fixed-point primitives  (kept as inline functions so avr-gcc inlines them
// and the assembly is one flat sequence of instructions)
// ---------------------------------------------------------------------------
static inline int16_t fp_mul(int16_t a, int16_t b) {
    return (int16_t)(((int32_t)a * (int32_t)b) >> FRAC_BITS);
    6060:	2f 85       	ldd	r18, Y+15	; 0x0f
    6062:	38 89       	ldd	r19, Y+16	; 0x10
    6064:	cd 57       	subi	r28, 0x7D	; 125
    6066:	df 4f       	sbci	r29, 0xFF	; 255
    6068:	a8 81       	ld	r26, Y
    606a:	b9 81       	ldd	r27, Y+1	; 0x01
    606c:	c3 58       	subi	r28, 0x83	; 131
    606e:	d0 40       	sbci	r29, 0x00	; 0
    6070:	0e 94 ab 32 	call	0x6556	; 0x6556 <__mulhisi3>
    6074:	6b 01       	movw	r12, r22
    6076:	7c 01       	movw	r14, r24
    6078:	76 e0       	ldi	r23, 0x06	; 6
    607a:	f5 94       	asr	r15
    607c:	e7 94       	ror	r14
    607e:	d7 94       	ror	r13
    6080:	c7 94       	ror	r12
    6082:	7a 95       	dec	r23
    6084:	d1 f7       	brne	.-12     	; 0x607a <__stack+0x3e7b>
    );
    h_state[9] = fp_add_sat(
        fp_mul((int16_t)(FP_ONE - z[9]), n[9]),
        fp_mul(z[9], h_state[9])
    );
    h_state[10] = fp_add_sat(
    6086:	20 e4       	ldi	r18, 0x40	; 64
    6088:	30 e0       	ldi	r19, 0x00	; 0
    608a:	2a 1b       	sub	r18, r26
    608c:	3b 0b       	sbc	r19, r27
// ---------------------------------------------------------------------------
// Fixed-point primitives  (kept as inline functions so avr-gcc inlines them
// and the assembly is one flat sequence of instructions)
// ---------------------------------------------------------------------------
static inline int16_t fp_mul(int16_t a, int16_t b) {
    return (int16_t)(((int32_t)a * (int32_t)b) >> FRAC_BITS);
    608e:	af a5       	ldd	r26, Y+47	; 0x2f
    6090:	b8 a9       	ldd	r27, Y+48	; 0x30
    6092:	0e 94 ab 32 	call	0x6556	; 0x6556 <__mulhisi3>
    6096:	dc 01       	movw	r26, r24
    6098:	cb 01       	movw	r24, r22
    609a:	e6 e0       	ldi	r30, 0x06	; 6
    609c:	b5 95       	asr	r27
    609e:	a7 95       	ror	r26
    60a0:	97 95       	ror	r25
    60a2:	87 95       	ror	r24
    60a4:	ea 95       	dec	r30
    60a6:	d1 f7       	brne	.-12     	; 0x609c <__stack+0x3e9d>
    );
    h_state[9] = fp_add_sat(
        fp_mul((int16_t)(FP_ONE - z[9]), n[9]),
        fp_mul(z[9], h_state[9])
    );
    h_state[10] = fp_add_sat(
    60a8:	b6 01       	movw	r22, r12
    60aa:	0e 94 95 00 	call	0x12a	; 0x12a <_ZL10fp_add_satii>
    60ae:	98 8b       	std	Y+16, r25	; 0x10
    60b0:	8f 87       	std	Y+15, r24	; 0x0f
// ---------------------------------------------------------------------------
// Fixed-point primitives  (kept as inline functions so avr-gcc inlines them
// and the assembly is one flat sequence of instructions)
// ---------------------------------------------------------------------------
static inline int16_t fp_mul(int16_t a, int16_t b) {
    return (int16_t)(((int32_t)a * (int32_t)b) >> FRAC_BITS);
    60b2:	29 8d       	ldd	r18, Y+25	; 0x19
    60b4:	3a 8d       	ldd	r19, Y+26	; 0x1a
    60b6:	e5 96       	adiw	r28, 0x35	; 53
    60b8:	ae ad       	ldd	r26, Y+62	; 0x3e
    60ba:	bf ad       	ldd	r27, Y+63	; 0x3f
    60bc:	e5 97       	sbiw	r28, 0x35	; 53
    60be:	0e 94 ab 32 	call	0x6556	; 0x6556 <__mulhisi3>
    60c2:	6b 01       	movw	r12, r22
    60c4:	7c 01       	movw	r14, r24
    60c6:	f6 e0       	ldi	r31, 0x06	; 6
    60c8:	f5 94       	asr	r15
    60ca:	e7 94       	ror	r14
    60cc:	d7 94       	ror	r13
    60ce:	c7 94       	ror	r12
    60d0:	fa 95       	dec	r31
    60d2:	d1 f7       	brne	.-12     	; 0x60c8 <__stack+0x3ec9>
    );
    h_state[10] = fp_add_sat(
        fp_mul((int16_t)(FP_ONE - z[10]), n[10]),
        fp_mul(z[10], h_state[10])
    );
    h_state[11] = fp_add_sat(
    60d4:	20 e4       	ldi	r18, 0x40	; 64
    60d6:	30 e0       	ldi	r19, 0x00	; 0
    60d8:	2a 1b       	sub	r18, r26
    60da:	3b 0b       	sbc	r19, r27
// ---------------------------------------------------------------------------
// Fixed-point primitives  (kept as inline functions so avr-gcc inlines them
// and the assembly is one flat sequence of instructions)
// ---------------------------------------------------------------------------
static inline int16_t fp_mul(int16_t a, int16_t b) {
    return (int16_t)(((int32_t)a * (int32_t)b) >> FRAC_BITS);
    60dc:	ab a9       	ldd	r26, Y+51	; 0x33
    60de:	bc a9       	ldd	r27, Y+52	; 0x34
    60e0:	0e 94 ab 32 	call	0x6556	; 0x6556 <__mulhisi3>
    60e4:	dc 01       	movw	r26, r24
    60e6:	cb 01       	movw	r24, r22
    60e8:	26 e0       	ldi	r18, 0x06	; 6
    60ea:	b5 95       	asr	r27
    60ec:	a7 95       	ror	r26
    60ee:	97 95       	ror	r25
    60f0:	87 95       	ror	r24
    60f2:	2a 95       	dec	r18
    60f4:	d1 f7       	brne	.-12     	; 0x60ea <__stack+0x3eeb>
    );
    h_state[10] = fp_add_sat(
        fp_mul((int16_t)(FP_ONE - z[10]), n[10]),
        fp_mul(z[10], h_state[10])
    );
    h_state[11] = fp_add_sat(
    60f6:	b6 01       	movw	r22, r12
    60f8:	0e 94 95 00 	call	0x12a	; 0x12a <_ZL10fp_add_satii>
    60fc:	9a 8f       	std	Y+26, r25	; 0x1a
    60fe:	89 8f       	std	Y+25, r24	; 0x19
// ---------------------------------------------------------------------------
// Fixed-point primitives  (kept as inline functions so avr-gcc inlines them
// and the assembly is one flat sequence of instructions)
// ---------------------------------------------------------------------------
static inline int16_t fp_mul(int16_t a, int16_t b) {
    return (int16_t)(((int32_t)a * (int32_t)b) >> FRAC_BITS);
    6100:	98 01       	movw	r18, r16
    6102:	c9 57       	subi	r28, 0x79	; 121
    6104:	df 4f       	sbci	r29, 0xFF	; 255
    6106:	a8 81       	ld	r26, Y
    6108:	b9 81       	ldd	r27, Y+1	; 0x01
    610a:	c7 58       	subi	r28, 0x87	; 135
    610c:	d0 40       	sbci	r29, 0x00	; 0
    610e:	0e 94 ab 32 	call	0x6556	; 0x6556 <__mulhisi3>
    6112:	6b 01       	movw	r12, r22
    6114:	7c 01       	movw	r14, r24
    6116:	36 e0       	ldi	r19, 0x06	; 6
    6118:	f5 94       	asr	r15
    611a:	e7 94       	ror	r14
    611c:	d7 94       	ror	r13
    611e:	c7 94       	ror	r12
    6120:	3a 95       	dec	r19
    6122:	d1 f7       	brne	.-12     	; 0x6118 <__stack+0x3f19>
    );
    h_state[11] = fp_add_sat(
        fp_mul((int16_t)(FP_ONE - z[11]), n[11]),
        fp_mul(z[11], h_state[11])
    );
    h_state[12] = fp_add_sat(
    6124:	20 e4       	ldi	r18, 0x40	; 64
    6126:	30 e0       	ldi	r19, 0x00	; 0
    6128:	2a 1b       	sub	r18, r26
    612a:	3b 0b       	sbc	r19, r27
// ---------------------------------------------------------------------------
// Fixed-point primitives  (kept as inline functions so avr-gcc inlines them
// and the assembly is one flat sequence of instructions)
// ---------------------------------------------------------------------------
static inline int16_t fp_mul(int16_t a, int16_t b) {
    return (int16_t)(((int32_t)a * (int32_t)b) >> FRAC_BITS);
    612c:	ab ad       	ldd	r26, Y+59	; 0x3b
    612e:	bc ad       	ldd	r27, Y+60	; 0x3c
    6130:	0e 94 ab 32 	call	0x6556	; 0x6556 <__mulhisi3>
    6134:	dc 01       	movw	r26, r24
    6136:	cb 01       	movw	r24, r22
    6138:	46 e0       	ldi	r20, 0x06	; 6
    613a:	b5 95       	asr	r27
    613c:	a7 95       	ror	r26
    613e:	97 95       	ror	r25
    6140:	87 95       	ror	r24
    6142:	4a 95       	dec	r20
    6144:	d1 f7       	brne	.-12     	; 0x613a <__stack+0x3f3b>
    );
    h_state[11] = fp_add_sat(
        fp_mul((int16_t)(FP_ONE - z[11]), n[11]),
        fp_mul(z[11], h_state[11])
    );
    h_state[12] = fp_add_sat(
    6146:	b6 01       	movw	r22, r12
    6148:	0e 94 95 00 	call	0x12a	; 0x12a <_ZL10fp_add_satii>
    614c:	8c 01       	movw	r16, r24
// ---------------------------------------------------------------------------
// Fixed-point primitives  (kept as inline functions so avr-gcc inlines them
// and the assembly is one flat sequence of instructions)
// ---------------------------------------------------------------------------
static inline int16_t fp_mul(int16_t a, int16_t b) {
    return (int16_t)(((int32_t)a * (int32_t)b) >> FRAC_BITS);
    614e:	2b 8d       	ldd	r18, Y+27	; 0x1b
    6150:	3c 8d       	ldd	r19, Y+28	; 0x1c
    6152:	e9 96       	adiw	r28, 0x39	; 57
    6154:	ae ad       	ldd	r26, Y+62	; 0x3e
    6156:	bf ad       	ldd	r27, Y+63	; 0x3f
    6158:	e9 97       	sbiw	r28, 0x39	; 57
    615a:	0e 94 ab 32 	call	0x6556	; 0x6556 <__mulhisi3>
    615e:	6b 01       	movw	r12, r22
    6160:	7c 01       	movw	r14, r24
    6162:	56 e0       	ldi	r21, 0x06	; 6
    6164:	f5 94       	asr	r15
    6166:	e7 94       	ror	r14
    6168:	d7 94       	ror	r13
    616a:	c7 94       	ror	r12
    616c:	5a 95       	dec	r21
    616e:	d1 f7       	brne	.-12     	; 0x6164 <__stack+0x3f65>
    );
    h_state[12] = fp_add_sat(
        fp_mul((int16_t)(FP_ONE - z[12]), n[12]),
        fp_mul(z[12], h_state[12])
    );
    h_state[13] = fp_add_sat(
    6170:	20 e4       	ldi	r18, 0x40	; 64
    6172:	30 e0       	ldi	r19, 0x00	; 0
    6174:	2a 1b       	sub	r18, r26
    6176:	3b 0b       	sbc	r19, r27
// ---------------------------------------------------------------------------
// Fixed-point primitives  (kept as inline functions so avr-gcc inlines them
// and the assembly is one flat sequence of instructions)
// ---------------------------------------------------------------------------
static inline int16_t fp_mul(int16_t a, int16_t b) {
    return (int16_t)(((int32_t)a * (int32_t)b) >> FRAC_BITS);
    6178:	ab a5       	ldd	r26, Y+43	; 0x2b
    617a:	bc a5       	ldd	r27, Y+44	; 0x2c
    617c:	0e 94 ab 32 	call	0x6556	; 0x6556 <__mulhisi3>
    6180:	dc 01       	movw	r26, r24
    6182:	cb 01       	movw	r24, r22
    6184:	66 e0       	ldi	r22, 0x06	; 6
    6186:	b5 95       	asr	r27
    6188:	a7 95       	ror	r26
    618a:	97 95       	ror	r25
    618c:	87 95       	ror	r24
    618e:	6a 95       	dec	r22
    6190:	d1 f7       	brne	.-12     	; 0x6186 <__stack+0x3f87>
    );
    h_state[12] = fp_add_sat(
        fp_mul((int16_t)(FP_ONE - z[12]), n[12]),
        fp_mul(z[12], h_state[12])
    );
    h_state[13] = fp_add_sat(
    6192:	b6 01       	movw	r22, r12
    6194:	0e 94 95 00 	call	0x12a	; 0x12a <_ZL10fp_add_satii>
    6198:	9c 8f       	std	Y+28, r25	; 0x1c
    619a:	8b 8f       	std	Y+27, r24	; 0x1b
// ---------------------------------------------------------------------------
// Fixed-point primitives  (kept as inline functions so avr-gcc inlines them
// and the assembly is one flat sequence of instructions)
// ---------------------------------------------------------------------------
static inline int16_t fp_mul(int16_t a, int16_t b) {
    return (int16_t)(((int32_t)a * (int32_t)b) >> FRAC_BITS);
    619c:	2d 8d       	ldd	r18, Y+29	; 0x1d
    619e:	3e 8d       	ldd	r19, Y+30	; 0x1e
    61a0:	65 96       	adiw	r28, 0x15	; 21
    61a2:	ae ad       	ldd	r26, Y+62	; 0x3e
    61a4:	bf ad       	ldd	r27, Y+63	; 0x3f
    61a6:	65 97       	sbiw	r28, 0x15	; 21
    61a8:	0e 94 ab 32 	call	0x6556	; 0x6556 <__mulhisi3>
    61ac:	6b 01       	movw	r12, r22
    61ae:	7c 01       	movw	r14, r24
    61b0:	76 e0       	ldi	r23, 0x06	; 6
    61b2:	f5 94       	asr	r15
    61b4:	e7 94       	ror	r14
    61b6:	d7 94       	ror	r13
    61b8:	c7 94       	ror	r12
    61ba:	7a 95       	dec	r23
    61bc:	d1 f7       	brne	.-12     	; 0x61b2 <__stack+0x3fb3>
    );
    h_state[13] = fp_add_sat(
        fp_mul((int16_t)(FP_ONE - z[13]), n[13]),
        fp_mul(z[13], h_state[13])
    );
    h_state[14] = fp_add_sat(
    61be:	20 e4       	ldi	r18, 0x40	; 64
    61c0:	30 e0       	ldi	r19, 0x00	; 0
    61c2:	2a 1b       	sub	r18, r26
    61c4:	3b 0b       	sbc	r19, r27
// ---------------------------------------------------------------------------
// Fixed-point primitives  (kept as inline functions so avr-gcc inlines them
// and the assembly is one flat sequence of instructions)
// ---------------------------------------------------------------------------
static inline int16_t fp_mul(int16_t a, int16_t b) {
    return (int16_t)(((int32_t)a * (int32_t)b) >> FRAC_BITS);
    61c6:	d5 01       	movw	r26, r10
    61c8:	0e 94 ab 32 	call	0x6556	; 0x6556 <__mulhisi3>
    61cc:	dc 01       	movw	r26, r24
    61ce:	cb 01       	movw	r24, r22
    61d0:	e6 e0       	ldi	r30, 0x06	; 6
    61d2:	b5 95       	asr	r27
    61d4:	a7 95       	ror	r26
    61d6:	97 95       	ror	r25
    61d8:	87 95       	ror	r24
    61da:	ea 95       	dec	r30
    61dc:	d1 f7       	brne	.-12     	; 0x61d2 <__stack+0x3fd3>
    );
    h_state[13] = fp_add_sat(
        fp_mul((int16_t)(FP_ONE - z[13]), n[13]),
        fp_mul(z[13], h_state[13])
    );
    h_state[14] = fp_add_sat(
    61de:	b6 01       	movw	r22, r12
    61e0:	0e 94 95 00 	call	0x12a	; 0x12a <_ZL10fp_add_satii>
    61e4:	9e 8f       	std	Y+30, r25	; 0x1e
    61e6:	8d 8f       	std	Y+29, r24	; 0x1d
// ---------------------------------------------------------------------------
// Fixed-point primitives  (kept as inline functions so avr-gcc inlines them
// and the assembly is one flat sequence of instructions)
// ---------------------------------------------------------------------------
static inline int16_t fp_mul(int16_t a, int16_t b) {
    return (int16_t)(((int32_t)a * (int32_t)b) >> FRAC_BITS);
    61e8:	2b 89       	ldd	r18, Y+19	; 0x13
    61ea:	3c 89       	ldd	r19, Y+20	; 0x14
    61ec:	af a1       	ldd	r26, Y+39	; 0x27
    61ee:	b8 a5       	ldd	r27, Y+40	; 0x28
    61f0:	0e 94 ab 32 	call	0x6556	; 0x6556 <__mulhisi3>
    61f4:	6b 01       	movw	r12, r22
    61f6:	7c 01       	movw	r14, r24
    61f8:	f6 e0       	ldi	r31, 0x06	; 6
    61fa:	f5 94       	asr	r15
    61fc:	e7 94       	ror	r14
    61fe:	d7 94       	ror	r13
    6200:	c7 94       	ror	r12
    6202:	fa 95       	dec	r31
    6204:	d1 f7       	brne	.-12     	; 0x61fa <__stack+0x3ffb>
    );
    h_state[14] = fp_add_sat(
        fp_mul((int16_t)(FP_ONE - z[14]), n[14]),
        fp_mul(z[14], h_state[14])
    );
    h_state[15] = fp_add_sat(
    6206:	20 e4       	ldi	r18, 0x40	; 64
    6208:	30 e0       	ldi	r19, 0x00	; 0
    620a:	2a 1b       	sub	r18, r26
    620c:	3b 0b       	sbc	r19, r27
// ---------------------------------------------------------------------------
// Fixed-point primitives  (kept as inline functions so avr-gcc inlines them
// and the assembly is one flat sequence of instructions)
// ---------------------------------------------------------------------------
static inline int16_t fp_mul(int16_t a, int16_t b) {
    return (int16_t)(((int32_t)a * (int32_t)b) >> FRAC_BITS);
    620e:	d4 01       	movw	r26, r8
    6210:	0e 94 ab 32 	call	0x6556	; 0x6556 <__mulhisi3>
    6214:	dc 01       	movw	r26, r24
    6216:	cb 01       	movw	r24, r22
    6218:	26 e0       	ldi	r18, 0x06	; 6
    621a:	b5 95       	asr	r27
    621c:	a7 95       	ror	r26
    621e:	97 95       	ror	r25
    6220:	87 95       	ror	r24
    6222:	2a 95       	dec	r18
    6224:	d1 f7       	brne	.-12     	; 0x621a <__stack+0x401b>
    );
    h_state[14] = fp_add_sat(
        fp_mul((int16_t)(FP_ONE - z[14]), n[14]),
        fp_mul(z[14], h_state[14])
    );
    h_state[15] = fp_add_sat(
    6226:	b6 01       	movw	r22, r12
    6228:	0e 94 95 00 	call	0x12a	; 0x12a <_ZL10fp_add_satii>
    622c:	9c 8b       	std	Y+20, r25	; 0x14
    622e:	8b 8b       	std	Y+19, r24	; 0x13
	
	setup();
    
	for (;;) {
		loop();
		if (serialEventRun) serialEventRun();
    6230:	80 e0       	ldi	r24, 0x00	; 0
    6232:	90 e0       	ldi	r25, 0x00	; 0
    6234:	89 2b       	or	r24, r25
    6236:	11 f4       	brne	.+4      	; 0x623c <__stack+0x403d>
    6238:	0c 94 7c 02 	jmp	0x4f8	; 0x4f8 <__LOCK_REGION_LENGTH__+0xf8>
    623c:	ab 85       	ldd	r26, Y+11	; 0x0b
    623e:	bc 85       	ldd	r27, Y+12	; 0x0c
    6240:	b0 93 01 02 	sts	0x0201, r27	; 0x800201 <__DATA_REGION_ORIGIN__+0x1>
    6244:	a0 93 00 02 	sts	0x0200, r26	; 0x800200 <__DATA_REGION_ORIGIN__>
    6248:	ef 81       	ldd	r30, Y+7	; 0x07
    624a:	f8 85       	ldd	r31, Y+8	; 0x08
    624c:	f0 93 03 02 	sts	0x0203, r31	; 0x800203 <__DATA_REGION_ORIGIN__+0x3>
    6250:	e0 93 02 02 	sts	0x0202, r30	; 0x800202 <__DATA_REGION_ORIGIN__+0x2>
    6254:	2d 89       	ldd	r18, Y+21	; 0x15
    6256:	3e 89       	ldd	r19, Y+22	; 0x16
    6258:	30 93 05 02 	sts	0x0205, r19	; 0x800205 <__DATA_REGION_ORIGIN__+0x5>
    625c:	20 93 04 02 	sts	0x0204, r18	; 0x800204 <__DATA_REGION_ORIGIN__+0x4>
    6260:	30 92 07 02 	sts	0x0207, r3	; 0x800207 <__DATA_REGION_ORIGIN__+0x7>
    6264:	20 92 06 02 	sts	0x0206, r2	; 0x800206 <__DATA_REGION_ORIGIN__+0x6>
    6268:	4d 81       	ldd	r20, Y+5	; 0x05
    626a:	5e 81       	ldd	r21, Y+6	; 0x06
    626c:	50 93 09 02 	sts	0x0209, r21	; 0x800209 <__DATA_REGION_ORIGIN__+0x9>
    6270:	40 93 08 02 	sts	0x0208, r20	; 0x800208 <__DATA_REGION_ORIGIN__+0x8>
    6274:	8d 85       	ldd	r24, Y+13	; 0x0d
    6276:	9e 85       	ldd	r25, Y+14	; 0x0e
    6278:	90 93 0b 02 	sts	0x020B, r25	; 0x80020b <__DATA_REGION_ORIGIN__+0xb>
    627c:	80 93 0a 02 	sts	0x020A, r24	; 0x80020a <__DATA_REGION_ORIGIN__+0xa>
    6280:	c9 56       	subi	r28, 0x69	; 105
    6282:	de 4f       	sbci	r29, 0xFE	; 254
    6284:	a8 81       	ld	r26, Y
    6286:	b9 81       	ldd	r27, Y+1	; 0x01
    6288:	c7 59       	subi	r28, 0x97	; 151
    628a:	d1 40       	sbci	r29, 0x01	; 1
    628c:	b0 93 0d 02 	sts	0x020D, r27	; 0x80020d <__DATA_REGION_ORIGIN__+0xd>
    6290:	a0 93 0c 02 	sts	0x020C, r26	; 0x80020c <__DATA_REGION_ORIGIN__+0xc>
    6294:	e9 89       	ldd	r30, Y+17	; 0x11
    6296:	fa 89       	ldd	r31, Y+18	; 0x12
    6298:	f0 93 0f 02 	sts	0x020F, r31	; 0x80020f <__DATA_REGION_ORIGIN__+0xf>
    629c:	e0 93 0e 02 	sts	0x020E, r30	; 0x80020e <__DATA_REGION_ORIGIN__+0xe>
    62a0:	2f 89       	ldd	r18, Y+23	; 0x17
    62a2:	38 8d       	ldd	r19, Y+24	; 0x18
    62a4:	30 93 11 02 	sts	0x0211, r19	; 0x800211 <__DATA_REGION_ORIGIN__+0x11>
    62a8:	20 93 10 02 	sts	0x0210, r18	; 0x800210 <__DATA_REGION_ORIGIN__+0x10>
    62ac:	49 85       	ldd	r20, Y+9	; 0x09
    62ae:	5a 85       	ldd	r21, Y+10	; 0x0a
    62b0:	50 93 13 02 	sts	0x0213, r21	; 0x800213 <__DATA_REGION_ORIGIN__+0x13>
    62b4:	40 93 12 02 	sts	0x0212, r20	; 0x800212 <__DATA_REGION_ORIGIN__+0x12>
    62b8:	8f 85       	ldd	r24, Y+15	; 0x0f
    62ba:	98 89       	ldd	r25, Y+16	; 0x10
    62bc:	90 93 15 02 	sts	0x0215, r25	; 0x800215 <__DATA_REGION_ORIGIN__+0x15>
    62c0:	80 93 14 02 	sts	0x0214, r24	; 0x800214 <__DATA_REGION_ORIGIN__+0x14>
    62c4:	a9 8d       	ldd	r26, Y+25	; 0x19
    62c6:	ba 8d       	ldd	r27, Y+26	; 0x1a
    62c8:	b0 93 17 02 	sts	0x0217, r27	; 0x800217 <__DATA_REGION_ORIGIN__+0x17>
    62cc:	a0 93 16 02 	sts	0x0216, r26	; 0x800216 <__DATA_REGION_ORIGIN__+0x16>
    62d0:	10 93 19 02 	sts	0x0219, r17	; 0x800219 <__DATA_REGION_ORIGIN__+0x19>
    62d4:	00 93 18 02 	sts	0x0218, r16	; 0x800218 <__DATA_REGION_ORIGIN__+0x18>
    62d8:	eb 8d       	ldd	r30, Y+27	; 0x1b
    62da:	fc 8d       	ldd	r31, Y+28	; 0x1c
    62dc:	f0 93 1b 02 	sts	0x021B, r31	; 0x80021b <__DATA_REGION_ORIGIN__+0x1b>
    62e0:	e0 93 1a 02 	sts	0x021A, r30	; 0x80021a <__DATA_REGION_ORIGIN__+0x1a>
    62e4:	2d 8d       	ldd	r18, Y+29	; 0x1d
    62e6:	3e 8d       	ldd	r19, Y+30	; 0x1e
    62e8:	30 93 1d 02 	sts	0x021D, r19	; 0x80021d <__DATA_REGION_ORIGIN__+0x1d>
    62ec:	20 93 1c 02 	sts	0x021C, r18	; 0x80021c <__DATA_REGION_ORIGIN__+0x1c>
    62f0:	4b 89       	ldd	r20, Y+19	; 0x13
    62f2:	5c 89       	ldd	r21, Y+20	; 0x14
    62f4:	50 93 1f 02 	sts	0x021F, r21	; 0x80021f <__DATA_REGION_ORIGIN__+0x1f>
    62f8:	40 93 1e 02 	sts	0x021E, r20	; 0x80021e <__DATA_REGION_ORIGIN__+0x1e>
    62fc:	0e 94 00 00 	call	0	; 0x0 <__vectors>
    6300:	0c 94 1c 02 	jmp	0x438	; 0x438 <__LOCK_REGION_LENGTH__+0x38>
static inline int16_t fp_mul(int16_t a, int16_t b) {
    return (int16_t)(((int32_t)a * (int32_t)b) >> FRAC_BITS);
}

static inline int16_t fp_sat32(int32_t v) {
    if (v > FP_MAX) return FP_MAX;
    6304:	8f ef       	ldi	r24, 0xFF	; 255
    6306:	9f e7       	ldi	r25, 0x7F	; 127
    6308:	0c 94 e9 03 	jmp	0x7d2	; 0x7d2 <__LOCK_REGION_LENGTH__+0x3d2>
    if (v < FP_MIN) return FP_MIN;
    630c:	80 e0       	ldi	r24, 0x00	; 0
    630e:	90 e8       	ldi	r25, 0x80	; 128
    6310:	0c 94 e9 03 	jmp	0x7d2	; 0x7d2 <__LOCK_REGION_LENGTH__+0x3d2>
static inline int16_t fp_mul(int16_t a, int16_t b) {
    return (int16_t)(((int32_t)a * (int32_t)b) >> FRAC_BITS);
}

static inline int16_t fp_sat32(int32_t v) {
    if (v > FP_MAX) return FP_MAX;
    6314:	8f ef       	ldi	r24, 0xFF	; 255
    6316:	9f e7       	ldi	r25, 0x7F	; 127
    6318:	0c 94 ca 04 	jmp	0x994	; 0x994 <__LOCK_REGION_LENGTH__+0x594>
    if (v < FP_MIN) return FP_MIN;
    631c:	80 e0       	ldi	r24, 0x00	; 0
    631e:	90 e8       	ldi	r25, 0x80	; 128
    6320:	0c 94 ca 04 	jmp	0x994	; 0x994 <__LOCK_REGION_LENGTH__+0x594>
static inline int16_t fp_mul(int16_t a, int16_t b) {
    return (int16_t)(((int32_t)a * (int32_t)b) >> FRAC_BITS);
}

static inline int16_t fp_sat32(int32_t v) {
    if (v > FP_MAX) return FP_MAX;
    6324:	8f ef       	ldi	r24, 0xFF	; 255
    6326:	9f e7       	ldi	r25, 0x7F	; 127
    6328:	0c 94 c9 05 	jmp	0xb92	; 0xb92 <__LOCK_REGION_LENGTH__+0x792>
    if (v < FP_MIN) return FP_MIN;
    632c:	80 e0       	ldi	r24, 0x00	; 0
    632e:	90 e8       	ldi	r25, 0x80	; 128
    6330:	0c 94 c9 05 	jmp	0xb92	; 0xb92 <__LOCK_REGION_LENGTH__+0x792>
static inline int16_t fp_mul(int16_t a, int16_t b) {
    return (int16_t)(((int32_t)a * (int32_t)b) >> FRAC_BITS);
}

static inline int16_t fp_sat32(int32_t v) {
    if (v > FP_MAX) return FP_MAX;
    6334:	8f ef       	ldi	r24, 0xFF	; 255
    6336:	9f e7       	ldi	r25, 0x7F	; 127
    6338:	0c 94 fb 06 	jmp	0xdf6	; 0xdf6 <__LOCK_REGION_LENGTH__+0x9f6>
    if (v < FP_MIN) return FP_MIN;
    633c:	80 e0       	ldi	r24, 0x00	; 0
    633e:	90 e8       	ldi	r25, 0x80	; 128
    6340:	0c 94 fb 06 	jmp	0xdf6	; 0xdf6 <__LOCK_REGION_LENGTH__+0x9f6>
static inline int16_t fp_mul(int16_t a, int16_t b) {
    return (int16_t)(((int32_t)a * (int32_t)b) >> FRAC_BITS);
}

static inline int16_t fp_sat32(int32_t v) {
    if (v > FP_MAX) return FP_MAX;
    6344:	8f ef       	ldi	r24, 0xFF	; 255
    6346:	9f e7       	ldi	r25, 0x7F	; 127
    6348:	0c 94 eb 07 	jmp	0xfd6	; 0xfd6 <__LOCK_REGION_LENGTH__+0xbd6>
    if (v < FP_MIN) return FP_MIN;
    634c:	80 e0       	ldi	r24, 0x00	; 0
    634e:	90 e8       	ldi	r25, 0x80	; 128
    6350:	0c 94 eb 07 	jmp	0xfd6	; 0xfd6 <__LOCK_REGION_LENGTH__+0xbd6>
static inline int16_t fp_mul(int16_t a, int16_t b) {
    return (int16_t)(((int32_t)a * (int32_t)b) >> FRAC_BITS);
}

static inline int16_t fp_sat32(int32_t v) {
    if (v > FP_MAX) return FP_MAX;
    6354:	8f ef       	ldi	r24, 0xFF	; 255
    6356:	9f e7       	ldi	r25, 0x7F	; 127
    6358:	0c 94 e9 08 	jmp	0x11d2	; 0x11d2 <__LOCK_REGION_LENGTH__+0xdd2>
    if (v < FP_MIN) return FP_MIN;
    635c:	80 e0       	ldi	r24, 0x00	; 0
    635e:	90 e8       	ldi	r25, 0x80	; 128
    6360:	0c 94 e9 08 	jmp	0x11d2	; 0x11d2 <__LOCK_REGION_LENGTH__+0xdd2>
static inline int16_t fp_mul(int16_t a, int16_t b) {
    return (int16_t)(((int32_t)a * (int32_t)b) >> FRAC_BITS);
}

static inline int16_t fp_sat32(int32_t v) {
    if (v > FP_MAX) return FP_MAX;
    6364:	8f ef       	ldi	r24, 0xFF	; 255
    6366:	9f e7       	ldi	r25, 0x7F	; 127
    6368:	0c 94 db 09 	jmp	0x13b6	; 0x13b6 <__LOCK_REGION_LENGTH__+0xfb6>
    if (v < FP_MIN) return FP_MIN;
    636c:	80 e0       	ldi	r24, 0x00	; 0
    636e:	90 e8       	ldi	r25, 0x80	; 128
    6370:	0c 94 db 09 	jmp	0x13b6	; 0x13b6 <__LOCK_REGION_LENGTH__+0xfb6>
static inline int16_t fp_mul(int16_t a, int16_t b) {
    return (int16_t)(((int32_t)a * (int32_t)b) >> FRAC_BITS);
}

static inline int16_t fp_sat32(int32_t v) {
    if (v > FP_MAX) return FP_MAX;
    6374:	8f ef       	ldi	r24, 0xFF	; 255
    6376:	9f e7       	ldi	r25, 0x7F	; 127
    6378:	0c 94 ca 0a 	jmp	0x1594	; 0x1594 <__LOCK_REGION_LENGTH__+0x1194>
    if (v < FP_MIN) return FP_MIN;
    637c:	80 e0       	ldi	r24, 0x00	; 0
    637e:	90 e8       	ldi	r25, 0x80	; 128
    6380:	0c 94 ca 0a 	jmp	0x1594	; 0x1594 <__LOCK_REGION_LENGTH__+0x1194>
static inline int16_t fp_mul(int16_t a, int16_t b) {
    return (int16_t)(((int32_t)a * (int32_t)b) >> FRAC_BITS);
}

static inline int16_t fp_sat32(int32_t v) {
    if (v > FP_MAX) return FP_MAX;
    6384:	8f ef       	ldi	r24, 0xFF	; 255
    6386:	9f e7       	ldi	r25, 0x7F	; 127
    6388:	0c 94 b2 0b 	jmp	0x1764	; 0x1764 <__LOCK_REGION_LENGTH__+0x1364>
    if (v < FP_MIN) return FP_MIN;
    638c:	80 e0       	ldi	r24, 0x00	; 0
    638e:	90 e8       	ldi	r25, 0x80	; 128
    6390:	0c 94 b2 0b 	jmp	0x1764	; 0x1764 <__LOCK_REGION_LENGTH__+0x1364>
static inline int16_t fp_mul(int16_t a, int16_t b) {
    return (int16_t)(((int32_t)a * (int32_t)b) >> FRAC_BITS);
}

static inline int16_t fp_sat32(int32_t v) {
    if (v > FP_MAX) return FP_MAX;
    6394:	8f ef       	ldi	r24, 0xFF	; 255
    6396:	9f e7       	ldi	r25, 0x7F	; 127
    6398:	0c 94 87 0c 	jmp	0x190e	; 0x190e <__LOCK_REGION_LENGTH__+0x150e>
    if (v < FP_MIN) return FP_MIN;
    639c:	80 e0       	ldi	r24, 0x00	; 0
    639e:	90 e8       	ldi	r25, 0x80	; 128
    63a0:	0c 94 87 0c 	jmp	0x190e	; 0x190e <__LOCK_REGION_LENGTH__+0x150e>
static inline int16_t fp_mul(int16_t a, int16_t b) {
    return (int16_t)(((int32_t)a * (int32_t)b) >> FRAC_BITS);
}

static inline int16_t fp_sat32(int32_t v) {
    if (v > FP_MAX) return FP_MAX;
    63a4:	8f ef       	ldi	r24, 0xFF	; 255
    63a6:	9f e7       	ldi	r25, 0x7F	; 127
    63a8:	0c 94 44 0d 	jmp	0x1a88	; 0x1a88 <__LOCK_REGION_LENGTH__+0x1688>
    if (v < FP_MIN) return FP_MIN;
    63ac:	80 e0       	ldi	r24, 0x00	; 0
    63ae:	90 e8       	ldi	r25, 0x80	; 128
    63b0:	0c 94 44 0d 	jmp	0x1a88	; 0x1a88 <__LOCK_REGION_LENGTH__+0x1688>
static inline int16_t fp_mul(int16_t a, int16_t b) {
    return (int16_t)(((int32_t)a * (int32_t)b) >> FRAC_BITS);
}

static inline int16_t fp_sat32(int32_t v) {
    if (v > FP_MAX) return FP_MAX;
    63b4:	8f ef       	ldi	r24, 0xFF	; 255
    63b6:	9f e7       	ldi	r25, 0x7F	; 127
    63b8:	0c 94 28 0e 	jmp	0x1c50	; 0x1c50 <__LOCK_REGION_LENGTH__+0x1850>
    if (v < FP_MIN) return FP_MIN;
    63bc:	80 e0       	ldi	r24, 0x00	; 0
    63be:	90 e8       	ldi	r25, 0x80	; 128
    63c0:	0c 94 28 0e 	jmp	0x1c50	; 0x1c50 <__LOCK_REGION_LENGTH__+0x1850>
static inline int16_t fp_mul(int16_t a, int16_t b) {
    return (int16_t)(((int32_t)a * (int32_t)b) >> FRAC_BITS);
}

static inline int16_t fp_sat32(int32_t v) {
    if (v > FP_MAX) return FP_MAX;
    63c4:	8f ef       	ldi	r24, 0xFF	; 255
    63c6:	9f e7       	ldi	r25, 0x7F	; 127
    63c8:	0c 94 13 0f 	jmp	0x1e26	; 0x1e26 <__LOCK_REGION_LENGTH__+0x1a26>
    if (v < FP_MIN) return FP_MIN;
    63cc:	80 e0       	ldi	r24, 0x00	; 0
    63ce:	90 e8       	ldi	r25, 0x80	; 128
    63d0:	0c 94 13 0f 	jmp	0x1e26	; 0x1e26 <__LOCK_REGION_LENGTH__+0x1a26>
static inline int16_t fp_mul(int16_t a, int16_t b) {
    return (int16_t)(((int32_t)a * (int32_t)b) >> FRAC_BITS);
}

static inline int16_t fp_sat32(int32_t v) {
    if (v > FP_MAX) return FP_MAX;
    63d4:	8f ef       	ldi	r24, 0xFF	; 255
    63d6:	9f e7       	ldi	r25, 0x7F	; 127
    63d8:	0c 94 e8 0f 	jmp	0x1fd0	; 0x1fd0 <__LOCK_REGION_LENGTH__+0x1bd0>
    if (v < FP_MIN) return FP_MIN;
    63dc:	80 e0       	ldi	r24, 0x00	; 0
    63de:	90 e8       	ldi	r25, 0x80	; 128
    63e0:	0c 94 e8 0f 	jmp	0x1fd0	; 0x1fd0 <__LOCK_REGION_LENGTH__+0x1bd0>
static inline int16_t fp_mul(int16_t a, int16_t b) {
    return (int16_t)(((int32_t)a * (int32_t)b) >> FRAC_BITS);
}

static inline int16_t fp_sat32(int32_t v) {
    if (v > FP_MAX) return FP_MAX;
    63e4:	8f ef       	ldi	r24, 0xFF	; 255
    63e6:	9f e7       	ldi	r25, 0x7F	; 127
    63e8:	0c 94 bc 10 	jmp	0x2178	; 0x2178 <__LOCK_REGION_LENGTH__+0x1d78>
    if (v < FP_MIN) return FP_MIN;
    63ec:	80 e0       	ldi	r24, 0x00	; 0
    63ee:	90 e8       	ldi	r25, 0x80	; 128
    63f0:	0c 94 bc 10 	jmp	0x2178	; 0x2178 <__LOCK_REGION_LENGTH__+0x1d78>
static inline int16_t fp_mul(int16_t a, int16_t b) {
    return (int16_t)(((int32_t)a * (int32_t)b) >> FRAC_BITS);
}

static inline int16_t fp_sat32(int32_t v) {
    if (v > FP_MAX) return FP_MAX;
    63f4:	8f ef       	ldi	r24, 0xFF	; 255
    63f6:	9f e7       	ldi	r25, 0x7F	; 127
    63f8:	0c 94 89 11 	jmp	0x2312	; 0x2312 <__stack+0x113>
    if (v < FP_MIN) return FP_MIN;
    63fc:	80 e0       	ldi	r24, 0x00	; 0
    63fe:	90 e8       	ldi	r25, 0x80	; 128
    6400:	0c 94 89 11 	jmp	0x2312	; 0x2312 <__stack+0x113>
static inline int16_t fp_mul(int16_t a, int16_t b) {
    return (int16_t)(((int32_t)a * (int32_t)b) >> FRAC_BITS);
}

static inline int16_t fp_sat32(int32_t v) {
    if (v > FP_MAX) return FP_MAX;
    6404:	8f ef       	ldi	r24, 0xFF	; 255
    6406:	9f e7       	ldi	r25, 0x7F	; 127
    6408:	0c 94 56 12 	jmp	0x24ac	; 0x24ac <__stack+0x2ad>
    if (v < FP_MIN) return FP_MIN;
    640c:	80 e0       	ldi	r24, 0x00	; 0
    640e:	90 e8       	ldi	r25, 0x80	; 128
    6410:	0c 94 56 12 	jmp	0x24ac	; 0x24ac <__stack+0x2ad>
static inline int16_t fp_mul(int16_t a, int16_t b) {
    return (int16_t)(((int32_t)a * (int32_t)b) >> FRAC_BITS);
}

static inline int16_t fp_sat32(int32_t v) {
    if (v > FP_MAX) return FP_MAX;
    6414:	8f ef       	ldi	r24, 0xFF	; 255
    6416:	9f e7       	ldi	r25, 0x7F	; 127
    6418:	0c 94 4b 13 	jmp	0x2696	; 0x2696 <__stack+0x497>
    if (v < FP_MIN) return FP_MIN;
    641c:	80 e0       	ldi	r24, 0x00	; 0
    641e:	90 e8       	ldi	r25, 0x80	; 128
    6420:	0c 94 4b 13 	jmp	0x2696	; 0x2696 <__stack+0x497>
static inline int16_t fp_mul(int16_t a, int16_t b) {
    return (int16_t)(((int32_t)a * (int32_t)b) >> FRAC_BITS);
}

static inline int16_t fp_sat32(int32_t v) {
    if (v > FP_MAX) return FP_MAX;
    6424:	8f ef       	ldi	r24, 0xFF	; 255
    6426:	9f e7       	ldi	r25, 0x7F	; 127
    6428:	0c 94 33 14 	jmp	0x2866	; 0x2866 <__stack+0x667>
    if (v < FP_MIN) return FP_MIN;
    642c:	80 e0       	ldi	r24, 0x00	; 0
    642e:	90 e8       	ldi	r25, 0x80	; 128
    6430:	0c 94 33 14 	jmp	0x2866	; 0x2866 <__stack+0x667>
static inline int16_t fp_mul(int16_t a, int16_t b) {
    return (int16_t)(((int32_t)a * (int32_t)b) >> FRAC_BITS);
}

static inline int16_t fp_sat32(int32_t v) {
    if (v > FP_MAX) return FP_MAX;
    6434:	8f ef       	ldi	r24, 0xFF	; 255
    6436:	9f e7       	ldi	r25, 0x7F	; 127
    6438:	0c 94 13 15 	jmp	0x2a26	; 0x2a26 <__stack+0x827>
    if (v < FP_MIN) return FP_MIN;
    643c:	80 e0       	ldi	r24, 0x00	; 0
    643e:	90 e8       	ldi	r25, 0x80	; 128
    6440:	0c 94 13 15 	jmp	0x2a26	; 0x2a26 <__stack+0x827>
static inline int16_t fp_mul(int16_t a, int16_t b) {
    return (int16_t)(((int32_t)a * (int32_t)b) >> FRAC_BITS);
}

static inline int16_t fp_sat32(int32_t v) {
    if (v > FP_MAX) return FP_MAX;
    6444:	8f ef       	ldi	r24, 0xFF	; 255
    6446:	9f e7       	ldi	r25, 0x7F	; 127
    6448:	0c 94 ef 15 	jmp	0x2bde	; 0x2bde <__stack+0x9df>
    if (v < FP_MIN) return FP_MIN;
    644c:	80 e0       	ldi	r24, 0x00	; 0
    644e:	90 e8       	ldi	r25, 0x80	; 128
    6450:	0c 94 ef 15 	jmp	0x2bde	; 0x2bde <__stack+0x9df>
static inline int16_t fp_mul(int16_t a, int16_t b) {
    return (int16_t)(((int32_t)a * (int32_t)b) >> FRAC_BITS);
}

static inline int16_t fp_sat32(int32_t v) {
    if (v > FP_MAX) return FP_MAX;
    6454:	8f ef       	ldi	r24, 0xFF	; 255
    6456:	9f e7       	ldi	r25, 0x7F	; 127
    6458:	0c 94 c4 16 	jmp	0x2d88	; 0x2d88 <__stack+0xb89>
    if (v < FP_MIN) return FP_MIN;
    645c:	80 e0       	ldi	r24, 0x00	; 0
    645e:	90 e8       	ldi	r25, 0x80	; 128
    6460:	0c 94 c4 16 	jmp	0x2d88	; 0x2d88 <__stack+0xb89>
static inline int16_t fp_mul(int16_t a, int16_t b) {
    return (int16_t)(((int32_t)a * (int32_t)b) >> FRAC_BITS);
}

static inline int16_t fp_sat32(int32_t v) {
    if (v > FP_MAX) return FP_MAX;
    6464:	8f ef       	ldi	r24, 0xFF	; 255
    6466:	9f e7       	ldi	r25, 0x7F	; 127
    6468:	0c 94 b7 17 	jmp	0x2f6e	; 0x2f6e <__stack+0xd6f>
    if (v < FP_MIN) return FP_MIN;
    646c:	80 e0       	ldi	r24, 0x00	; 0
    646e:	90 e8       	ldi	r25, 0x80	; 128
    6470:	0c 94 b7 17 	jmp	0x2f6e	; 0x2f6e <__stack+0xd6f>
static inline int16_t fp_mul(int16_t a, int16_t b) {
    return (int16_t)(((int32_t)a * (int32_t)b) >> FRAC_BITS);
}

static inline int16_t fp_sat32(int32_t v) {
    if (v > FP_MAX) return FP_MAX;
    6474:	8f ef       	ldi	r24, 0xFF	; 255
    6476:	9f e7       	ldi	r25, 0x7F	; 127
    6478:	0c 94 e1 18 	jmp	0x31c2	; 0x31c2 <__stack+0xfc3>
    if (v < FP_MIN) return FP_MIN;
    647c:	80 e0       	ldi	r24, 0x00	; 0
    647e:	90 e8       	ldi	r25, 0x80	; 128
    6480:	0c 94 e1 18 	jmp	0x31c2	; 0x31c2 <__stack+0xfc3>
static inline int16_t fp_mul(int16_t a, int16_t b) {
    return (int16_t)(((int32_t)a * (int32_t)b) >> FRAC_BITS);
}

static inline int16_t fp_sat32(int32_t v) {
    if (v > FP_MAX) return FP_MAX;
    6484:	8f ef       	ldi	r24, 0xFF	; 255
    6486:	9f e7       	ldi	r25, 0x7F	; 127
    6488:	0c 94 b0 19 	jmp	0x3360	; 0x3360 <__stack+0x1161>
    if (v < FP_MIN) return FP_MIN;
    648c:	80 e0       	ldi	r24, 0x00	; 0
    648e:	90 e8       	ldi	r25, 0x80	; 128
    6490:	0c 94 b0 19 	jmp	0x3360	; 0x3360 <__stack+0x1161>
static inline int16_t fp_mul(int16_t a, int16_t b) {
    return (int16_t)(((int32_t)a * (int32_t)b) >> FRAC_BITS);
}

static inline int16_t fp_sat32(int32_t v) {
    if (v > FP_MAX) return FP_MAX;
    6494:	8f ef       	ldi	r24, 0xFF	; 255
    6496:	9f e7       	ldi	r25, 0x7F	; 127
    6498:	0c 94 83 1a 	jmp	0x3506	; 0x3506 <__stack+0x1307>
    if (v < FP_MIN) return FP_MIN;
    649c:	80 e0       	ldi	r24, 0x00	; 0
    649e:	90 e8       	ldi	r25, 0x80	; 128
    64a0:	0c 94 83 1a 	jmp	0x3506	; 0x3506 <__stack+0x1307>
static inline int16_t fp_mul(int16_t a, int16_t b) {
    return (int16_t)(((int32_t)a * (int32_t)b) >> FRAC_BITS);
}

static inline int16_t fp_sat32(int32_t v) {
    if (v > FP_MAX) return FP_MAX;
    64a4:	8f ef       	ldi	r24, 0xFF	; 255
    64a6:	9f e7       	ldi	r25, 0x7F	; 127
    64a8:	0c 94 6c 1b 	jmp	0x36d8	; 0x36d8 <__stack+0x14d9>
    if (v < FP_MIN) return FP_MIN;
    64ac:	80 e0       	ldi	r24, 0x00	; 0
    64ae:	90 e8       	ldi	r25, 0x80	; 128
    64b0:	0c 94 6c 1b 	jmp	0x36d8	; 0x36d8 <__stack+0x14d9>
static inline int16_t fp_mul(int16_t a, int16_t b) {
    return (int16_t)(((int32_t)a * (int32_t)b) >> FRAC_BITS);
}

static inline int16_t fp_sat32(int32_t v) {
    if (v > FP_MAX) return FP_MAX;
    64b4:	8f ef       	ldi	r24, 0xFF	; 255
    64b6:	9f e7       	ldi	r25, 0x7F	; 127
    64b8:	0c 94 3e 1c 	jmp	0x387c	; 0x387c <__stack+0x167d>
    if (v < FP_MIN) return FP_MIN;
    64bc:	80 e0       	ldi	r24, 0x00	; 0
    64be:	90 e8       	ldi	r25, 0x80	; 128
    64c0:	0c 94 3e 1c 	jmp	0x387c	; 0x387c <__stack+0x167d>
static inline int16_t fp_mul(int16_t a, int16_t b) {
    return (int16_t)(((int32_t)a * (int32_t)b) >> FRAC_BITS);
}

static inline int16_t fp_sat32(int32_t v) {
    if (v > FP_MAX) return FP_MAX;
    64c4:	8f ef       	ldi	r24, 0xFF	; 255
    64c6:	9f e7       	ldi	r25, 0x7F	; 127
    64c8:	0c 94 0b 1d 	jmp	0x3a16	; 0x3a16 <__stack+0x1817>
    if (v < FP_MIN) return FP_MIN;
    64cc:	80 e0       	ldi	r24, 0x00	; 0
    64ce:	90 e8       	ldi	r25, 0x80	; 128
    64d0:	0c 94 0b 1d 	jmp	0x3a16	; 0x3a16 <__stack+0x1817>
static inline int16_t fp_mul(int16_t a, int16_t b) {
    return (int16_t)(((int32_t)a * (int32_t)b) >> FRAC_BITS);
}

static inline int16_t fp_sat32(int32_t v) {
    if (v > FP_MAX) return FP_MAX;
    64d4:	8f ef       	ldi	r24, 0xFF	; 255
    64d6:	9f e7       	ldi	r25, 0x7F	; 127
    64d8:	0c 94 d1 1d 	jmp	0x3ba2	; 0x3ba2 <__stack+0x19a3>
    if (v < FP_MIN) return FP_MIN;
    64dc:	80 e0       	ldi	r24, 0x00	; 0
    64de:	90 e8       	ldi	r25, 0x80	; 128
    64e0:	0c 94 d1 1d 	jmp	0x3ba2	; 0x3ba2 <__stack+0x19a3>
static inline int16_t fp_mul(int16_t a, int16_t b) {
    return (int16_t)(((int32_t)a * (int32_t)b) >> FRAC_BITS);
}

static inline int16_t fp_sat32(int32_t v) {
    if (v > FP_MAX) return FP_MAX;
    64e4:	8f ef       	ldi	r24, 0xFF	; 255
    64e6:	9f e7       	ldi	r25, 0x7F	; 127
    64e8:	0c 94 d5 1e 	jmp	0x3daa	; 0x3daa <__stack+0x1bab>
    if (v < FP_MIN) return FP_MIN;
    64ec:	80 e0       	ldi	r24, 0x00	; 0
    64ee:	90 e8       	ldi	r25, 0x80	; 128
    64f0:	0c 94 d5 1e 	jmp	0x3daa	; 0x3daa <__stack+0x1bab>
static inline int16_t fp_mul(int16_t a, int16_t b) {
    return (int16_t)(((int32_t)a * (int32_t)b) >> FRAC_BITS);
}

static inline int16_t fp_sat32(int32_t v) {
    if (v > FP_MAX) return FP_MAX;
    64f4:	8f ef       	ldi	r24, 0xFF	; 255
    64f6:	9f e7       	ldi	r25, 0x7F	; 127
    64f8:	0c 94 9c 1f 	jmp	0x3f38	; 0x3f38 <__stack+0x1d39>
    if (v < FP_MIN) return FP_MIN;
    64fc:	80 e0       	ldi	r24, 0x00	; 0
    64fe:	90 e8       	ldi	r25, 0x80	; 128
    6500:	0c 94 9c 1f 	jmp	0x3f38	; 0x3f38 <__stack+0x1d39>
    6504:	a0 e0       	ldi	r26, 0x00	; 0
    6506:	b0 e8       	ldi	r27, 0x80	; 128
    6508:	0c 94 42 22 	jmp	0x4484	; 0x4484 <__stack+0x2285>
    650c:	a0 e0       	ldi	r26, 0x00	; 0
    650e:	b0 e8       	ldi	r27, 0x80	; 128
    6510:	0c 94 4b 23 	jmp	0x4696	; 0x4696 <__stack+0x2497>
    6514:	a0 e0       	ldi	r26, 0x00	; 0
    6516:	b0 e8       	ldi	r27, 0x80	; 128
    6518:	0c 94 1e 25 	jmp	0x4a3c	; 0x4a3c <__stack+0x283d>
    651c:	a0 e0       	ldi	r26, 0x00	; 0
    651e:	b0 e8       	ldi	r27, 0x80	; 128
    6520:	0c 94 fe 26 	jmp	0x4dfc	; 0x4dfc <__stack+0x2bfd>
    6524:	a0 e0       	ldi	r26, 0x00	; 0
    6526:	b0 e8       	ldi	r27, 0x80	; 128
    6528:	0c 94 e4 27 	jmp	0x4fc8	; 0x4fc8 <__stack+0x2dc9>
static inline int16_t fp_mul(int16_t a, int16_t b) {
    return (int16_t)(((int32_t)a * (int32_t)b) >> FRAC_BITS);
}

static inline int16_t fp_sat32(int32_t v) {
    if (v > FP_MAX) return FP_MAX;
    652c:	af ef       	ldi	r26, 0xFF	; 255
    652e:	bf e7       	ldi	r27, 0x7F	; 127
    6530:	0c 94 18 29 	jmp	0x5230	; 0x5230 <__stack+0x3031>
    if (v < FP_MIN) return FP_MIN;
    6534:	a0 e0       	ldi	r26, 0x00	; 0
    6536:	b0 e8       	ldi	r27, 0x80	; 128
    6538:	0c 94 18 29 	jmp	0x5230	; 0x5230 <__stack+0x3031>
    653c:	a0 e0       	ldi	r26, 0x00	; 0
    653e:	b0 e8       	ldi	r27, 0x80	; 128
    6540:	0c 94 fa 29 	jmp	0x53f4	; 0x53f4 <__stack+0x31f5>
    6544:	a0 e0       	ldi	r26, 0x00	; 0
    6546:	b0 e8       	ldi	r27, 0x80	; 128
    6548:	f6 c9       	rjmp	.-3092   	; 0x5936 <__stack+0x3737>
static inline int16_t fp_mul(int16_t a, int16_t b) {
    return (int16_t)(((int32_t)a * (int32_t)b) >> FRAC_BITS);
}

static inline int16_t fp_sat32(int32_t v) {
    if (v > FP_MAX) return FP_MAX;
    654a:	af ef       	ldi	r26, 0xFF	; 255
    654c:	bf e7       	ldi	r27, 0x7F	; 127
    654e:	d2 ca       	rjmp	.-2652   	; 0x5af4 <__stack+0x38f5>
    if (v < FP_MIN) return FP_MIN;
    6550:	a0 e0       	ldi	r26, 0x00	; 0
    6552:	b0 e8       	ldi	r27, 0x80	; 128
    6554:	cf ca       	rjmp	.-2658   	; 0x5af4 <__stack+0x38f5>

00006556 <__mulhisi3>:
    6556:	0e 94 b3 32 	call	0x6566	; 0x6566 <__umulhisi3>
    655a:	33 23       	and	r19, r19
    655c:	12 f4       	brpl	.+4      	; 0x6562 <__mulhisi3+0xc>
    655e:	8a 1b       	sub	r24, r26
    6560:	9b 0b       	sbc	r25, r27
    6562:	0c 94 c4 32 	jmp	0x6588	; 0x6588 <__usmulhisi3_tail>

00006566 <__umulhisi3>:
    6566:	a2 9f       	mul	r26, r18
    6568:	b0 01       	movw	r22, r0
    656a:	b3 9f       	mul	r27, r19
    656c:	c0 01       	movw	r24, r0
    656e:	a3 9f       	mul	r26, r19
    6570:	70 0d       	add	r23, r0
    6572:	81 1d       	adc	r24, r1
    6574:	11 24       	eor	r1, r1
    6576:	91 1d       	adc	r25, r1
    6578:	b2 9f       	mul	r27, r18
    657a:	70 0d       	add	r23, r0
    657c:	81 1d       	adc	r24, r1
    657e:	11 24       	eor	r1, r1
    6580:	91 1d       	adc	r25, r1
    6582:	08 95       	ret

00006584 <__usmulhisi3>:
    6584:	0e 94 b3 32 	call	0x6566	; 0x6566 <__umulhisi3>

00006588 <__usmulhisi3_tail>:
    6588:	b7 ff       	sbrs	r27, 7
    658a:	08 95       	ret
    658c:	82 1b       	sub	r24, r18
    658e:	93 0b       	sbc	r25, r19
    6590:	08 95       	ret

00006592 <_exit>:
    6592:	f8 94       	cli

00006594 <__stop_program>:
    6594:	ff cf       	rjmp	.-2      	; 0x6594 <__stop_program>
